
========================================================================

** ELF Header Information

    File Name: .\Objects\ble_tx.axf

    Machine class: ELFCLASS32 (32-bit)
    Data encoding: ELFDATA2LSB (Little endian)
    Header version: EV_CURRENT (Current version)
    Operating System ABI: none
    ABI Version: 0
    File Type: ET_EXEC (Executable) (2)
    Machine: EM_ARM (ARM)

    Image Entry point: Not specified
    Flags: EF_ARM_ABI_FLOAT_SOFT (0x05000200)

    ARM ELF revision: 5 (ABI version 2)

    Conforms to Soft float procedure-call standard

    Built with
    Component: ARM Compiler 5.06 update 7 (build 960) Tool: armasm [4d35fa]
    Component: ARM Compiler 5.06 update 7 (build 960) Tool: armlink [4d3601]

    Header size: 52 bytes (0x34)
    Program header entry size: 32 bytes (0x20)
    Section header entry size: 40 bytes (0x28)

    Program header entries: 1
    Section header entries: 16

    Program header offset: 123856 (0x0001e3d0)
    Section header offset: 123888 (0x0001e3f0)

    Section header string table index: 15

========================================================================

** Program header #0

    Type          : PT_LOAD (1)
    File Offset   : 52 (0x34)
    Virtual Addr  : 0x00000000
    Physical Addr : 0x00000000
    Size in file  : 24176 bytes (0x5e70)
    Size in memory: 29032 bytes (0x7168)
    Flags         : PF_X + PF_W + PF_R (0x7)
    Alignment     : 16


========================================================================

** Section #1

    Name        : ER_IROM1
    Type        : SHT_PROGBITS (0x00000001)
    Flags       : SHF_ALLOC + SHF_EXECINSTR (0x00000006)
    Addr        : 0x00000000
    File Offset : 52 (0x34)
    Size        : 23992 bytes (0x5db8)
    Link        : SHN_UNDEF
    Info        : 0
    Alignment   : 4
    Entry Size  : 0

    $d.realdata
    RESET
    __Vectors
        0x00000000:    200013b0    ...     DCD    536875952
        0x00000004:    00001029    )...    DCD    4137
        0x00000008:    00000000    ....    DCD    0
        0x0000000c:    00000000    ....    DCD    0
        0x00000010:    00000000    ....    DCD    0
        0x00000014:    00000000    ....    DCD    0
        0x00000018:    00000000    ....    DCD    0
        0x0000001c:    00000000    ....    DCD    0
        0x00000020:    00000000    ....    DCD    0
        0x00000024:    00000000    ....    DCD    0
        0x00000028:    00000000    ....    DCD    0
        0x0000002c:    00000000    ....    DCD    0
        0x00000030:    00000000    ....    DCD    0
        0x00000034:    00000000    ....    DCD    0
        0x00000038:    00000000    ....    DCD    0
        0x0000003c:    00000000    ....    DCD    0
        0x00000040:    00001033    3...    DCD    4147
        0x00000044:    00001083    ....    DCD    4227
        0x00000048:    000010fb    ....    DCD    4347
        0x0000004c:    00001047    G...    DCD    4167
        0x00000050:    00000000    ....    DCD    0
        0x00000054:    00000000    ....    DCD    0
        0x00000058:    0000105b    [...    DCD    4187
        0x0000005c:    0000106f    o...    DCD    4207
        0x00000060:    000010d3    ....    DCD    4307
        0x00000064:    000010e7    ....    DCD    4327
        0x00000068:    00000000    ....    DCD    0
        0x0000006c:    0000110f    ....    DCD    4367
        0x00000070:    00001097    ....    DCD    4247
        0x00000074:    000010ab    ....    DCD    4267
        0x00000078:    000010bf    ....    DCD    4287
        0x0000007c:    00000000    ....    DCD    0
    $t
    !!!main
    __main
        0x00000080:    f000f802    ....    BL       __scatterload ; 0x88
        0x00000084:    f000f84b    ..K.    BL       __rt_entry ; 0x11e
    !!!scatter
    __scatterload
    __scatterload_rt2
    __scatterload_rt2_thumb_only
        0x00000088:    a00c        ..      ADR      r0,{pc}+0x34 ; 0xbc
        0x0000008a:    c830        0.      LDM      r0!,{r4,r5}
        0x0000008c:    3808        .8      SUBS     r0,r0,#8
        0x0000008e:    1824        $.      ADDS     r4,r4,r0
        0x00000090:    182d        -.      ADDS     r5,r5,r0
        0x00000092:    46a2        .F      MOV      r10,r4
        0x00000094:    1e67        g.      SUBS     r7,r4,#1
        0x00000096:    46ab        .F      MOV      r11,r5
    __scatterload_null
        0x00000098:    4654        TF      MOV      r4,r10
        0x0000009a:    465d        ]F      MOV      r5,r11
        0x0000009c:    42ac        .B      CMP      r4,r5
        0x0000009e:    d101        ..      BNE      0xa4 ; __scatterload_null + 12
        0x000000a0:    f000f83d    ..=.    BL       __rt_entry ; 0x11e
        0x000000a4:    467e        ~F      MOV      r6,pc
        0x000000a6:    3e0f        .>      SUBS     r6,r6,#0xf
        0x000000a8:    cc0f        ..      LDM      r4!,{r0-r3}
        0x000000aa:    46b6        .F      MOV      lr,r6
        0x000000ac:    2601        .&      MOVS     r6,#1
        0x000000ae:    4233        3B      TST      r3,r6
        0x000000b0:    d000        ..      BEQ      0xb4 ; __scatterload_null + 28
        0x000000b2:    1afb        ..      SUBS     r3,r7,r3
        0x000000b4:    46a2        .F      MOV      r10,r4
        0x000000b6:    46ab        .F      MOV      r11,r5
        0x000000b8:    4333        3C      ORRS     r3,r3,r6
        0x000000ba:    4718        .G      BX       r3
    $d
        0x000000bc:    00005cdc    .\..    DCD    23772
        0x000000c0:    00005cfc    .\..    DCD    23804
    $t
    !!handler_copy
    __scatterload_copy
        0x000000c4:    3a10        .:      SUBS     r2,r2,#0x10
        0x000000c6:    d302        ..      BCC      0xce ; __scatterload_copy + 10
        0x000000c8:    c878        x.      LDM      r0!,{r3-r6}
        0x000000ca:    c178        x.      STM      r1!,{r3-r6}
        0x000000cc:    d8fa        ..      BHI      __scatterload_copy ; 0xc4
        0x000000ce:    0752        R.      LSLS     r2,r2,#29
        0x000000d0:    d301        ..      BCC      0xd6 ; __scatterload_copy + 18
        0x000000d2:    c830        0.      LDM      r0!,{r4,r5}
        0x000000d4:    c130        0.      STM      r1!,{r4,r5}
        0x000000d6:    d501        ..      BPL      0xdc ; __scatterload_copy + 24
        0x000000d8:    6804        .h      LDR      r4,[r0,#0]
        0x000000da:    600c        .`      STR      r4,[r1,#0]
        0x000000dc:    4770        pG      BX       lr
        0x000000de:    0000        ..      MOVS     r0,r0
    !!handler_zi
    __scatterload_zeroinit
        0x000000e0:    2300        .#      MOVS     r3,#0
        0x000000e2:    2400        .$      MOVS     r4,#0
        0x000000e4:    2500        .%      MOVS     r5,#0
        0x000000e6:    2600        .&      MOVS     r6,#0
        0x000000e8:    3a10        .:      SUBS     r2,r2,#0x10
        0x000000ea:    d301        ..      BCC      0xf0 ; __scatterload_zeroinit + 16
        0x000000ec:    c178        x.      STM      r1!,{r3-r6}
        0x000000ee:    d8fb        ..      BHI      0xe8 ; __scatterload_zeroinit + 8
        0x000000f0:    0752        R.      LSLS     r2,r2,#29
        0x000000f2:    d300        ..      BCC      0xf6 ; __scatterload_zeroinit + 22
        0x000000f4:    c130        0.      STM      r1!,{r4,r5}
        0x000000f6:    d500        ..      BPL      0xfa ; __scatterload_zeroinit + 26
        0x000000f8:    600b        .`      STR      r3,[r1,#0]
        0x000000fa:    4770        pG      BX       lr
    .ARM.Collect$$_printf_percent$$00000000
    _printf_percent
        0x000000fc:    b510        ..      PUSH     {r4,lr}
    .ARM.Collect$$_printf_percent$$00000009
    _printf_d
        0x000000fe:    2964        d)      CMP      r1,#0x64
        0x00000100:    d102        ..      BNE      _printf_x ; 0x108
        0x00000102:    f004fe63    ..c.    BL       _printf_int_dec ; 0x4dcc
        0x00000106:    bd10        ..      POP      {r4,pc}
    .ARM.Collect$$_printf_percent$$0000000C
    _printf_x
        0x00000108:    2978        x)      CMP      r1,#0x78
        0x0000010a:    d102        ..      BNE      _printf_percent_end ; 0x112
        0x0000010c:    f004fe94    ....    BL       _printf_int_hex ; 0x4e38
        0x00000110:    bd10        ..      POP      {r4,pc}
    .ARM.Collect$$_printf_percent$$00000017
    _printf_percent_end
        0x00000112:    2000        .       MOVS     r0,#0
        0x00000114:    bd10        ..      POP      {r4,pc}
    .ARM.Collect$$libinit$$00000000
    __rt_lib_init
        0x00000116:    b51f        ..      PUSH     {r0-r4,lr}
    .ARM.Collect$$libinit$$00000002
    .ARM.Collect$$libinit$$00000004
    .ARM.Collect$$libinit$$0000000A
    .ARM.Collect$$libinit$$0000000C
    .ARM.Collect$$libinit$$0000000E
    .ARM.Collect$$libinit$$00000011
    .ARM.Collect$$libinit$$00000013
    .ARM.Collect$$libinit$$00000015
    .ARM.Collect$$libinit$$00000017
    .ARM.Collect$$libinit$$00000019
    .ARM.Collect$$libinit$$0000001B
    .ARM.Collect$$libinit$$0000001D
    .ARM.Collect$$libinit$$0000001F
    .ARM.Collect$$libinit$$00000021
    .ARM.Collect$$libinit$$00000023
    .ARM.Collect$$libinit$$00000025
    .ARM.Collect$$libinit$$0000002C
    .ARM.Collect$$libinit$$0000002E
    .ARM.Collect$$libinit$$00000030
    .ARM.Collect$$libinit$$00000032
    .ARM.Collect$$libinit$$00000033
    __rt_lib_init_alloca_1
    __rt_lib_init_argv_1
    __rt_lib_init_atexit_1
    __rt_lib_init_clock_1
    __rt_lib_init_cpp_1
    __rt_lib_init_exceptions_1
    __rt_lib_init_fp_1
    __rt_lib_init_fp_trap_1
    __rt_lib_init_getenv_1
    __rt_lib_init_heap_1
    __rt_lib_init_lc_collate_1
    __rt_lib_init_lc_ctype_1
    __rt_lib_init_lc_monetary_1
    __rt_lib_init_lc_numeric_1
    __rt_lib_init_lc_time_1
    __rt_lib_init_preinit_1
    __rt_lib_init_rand_1
    __rt_lib_init_return
    __rt_lib_init_signal_1
    __rt_lib_init_stdio_1
    __rt_lib_init_user_alloc_1
        0x00000118:    bd1f        ..      POP      {r0-r4,pc}
    .ARM.Collect$$libshutdown$$00000000
    __rt_lib_shutdown
        0x0000011a:    b510        ..      PUSH     {r4,lr}
    .ARM.Collect$$libshutdown$$00000002
    .ARM.Collect$$libshutdown$$00000004
    .ARM.Collect$$libshutdown$$00000006
    .ARM.Collect$$libshutdown$$00000009
    .ARM.Collect$$libshutdown$$0000000C
    .ARM.Collect$$libshutdown$$0000000E
    .ARM.Collect$$libshutdown$$00000011
    .ARM.Collect$$libshutdown$$00000012
    __rt_lib_shutdown_cpp_1
    __rt_lib_shutdown_fini_1
    __rt_lib_shutdown_fp_trap_1
    __rt_lib_shutdown_heap_1
    __rt_lib_shutdown_return
    __rt_lib_shutdown_signal_1
    __rt_lib_shutdown_stdio_1
    __rt_lib_shutdown_user_alloc_1
        0x0000011c:    bd10        ..      POP      {r4,pc}
    .ARM.Collect$$rtentry$$00000000
    .ARM.Collect$$rtentry$$00000002
    .ARM.Collect$$rtentry$$00000004
    __rt_entry
    __rt_entry_presh_1
    __rt_entry_sh
        0x0000011e:    f005fb69    ..i.    BL       __user_setup_stackheap ; 0x57f4
        0x00000122:    4611        .F      MOV      r1,r2
    .ARM.Collect$$rtentry$$00000009
    .ARM.Collect$$rtentry$$0000000A
    __rt_entry_li
    __rt_entry_postsh_1
        0x00000124:    f7fffff7    ....    BL       __rt_lib_init ; 0x116
    .ARM.Collect$$rtentry$$0000000C
    .ARM.Collect$$rtentry$$0000000D
    __rt_entry_main
    __rt_entry_postli_1
        0x00000128:    f000f824    ..$.    BL       main ; 0x174
        0x0000012c:    f005fb81    ....    BL       exit ; 0x5832
    .ARM.Collect$$rtexit$$00000000
    __rt_exit
        0x00000130:    b403        ..      PUSH     {r0,r1}
    .ARM.Collect$$rtexit$$00000002
    .ARM.Collect$$rtexit$$00000003
    __rt_exit_ls
    __rt_exit_prels_1
        0x00000132:    f7fffff2    ....    BL       __rt_lib_shutdown ; 0x11a
    .ARM.Collect$$rtexit$$00000004
    __rt_exit_exit
        0x00000136:    bc03        ..      POP      {r0,r1}
        0x00000138:    f001f831    ..1.    BL       _sys_exit ; 0x119e
    .emb_text
    __aeabi_memcpy4
    __aeabi_memcpy8
        0x0000013c:    b570        p.      PUSH     {r4-r6,lr}
        0x0000013e:    4605        .F      MOV      r5,r0
        0x00000140:    460c        .F      MOV      r4,r1
        0x00000142:    4616        .F      MOV      r6,r2
        0x00000144:    e002        ..      B        0x14c ; __aeabi_memcpy4 + 16
        0x00000146:    cc0f        ..      LDM      r4!,{r0-r3}
        0x00000148:    c50f        ..      STM      r5!,{r0-r3}
        0x0000014a:    3e10        .>      SUBS     r6,r6,#0x10
        0x0000014c:    2e10        ..      CMP      r6,#0x10
        0x0000014e:    d2fa        ..      BCS      0x146 ; __aeabi_memcpy4 + 10
        0x00000150:    2e08        ..      CMP      r6,#8
        0x00000152:    d302        ..      BCC      0x15a ; __aeabi_memcpy4 + 30
        0x00000154:    cc03        ..      LDM      r4!,{r0,r1}
        0x00000156:    c503        ..      STM      r5!,{r0,r1}
        0x00000158:    3e08        .>      SUBS     r6,r6,#8
        0x0000015a:    2e04        ..      CMP      r6,#4
        0x0000015c:    d307        ..      BCC      0x16e ; __aeabi_memcpy4 + 50
        0x0000015e:    cc01        ..      LDM      r4!,{r0}
        0x00000160:    c501        ..      STM      r5!,{r0}
        0x00000162:    1f36        6.      SUBS     r6,r6,#4
        0x00000164:    e003        ..      B        0x16e ; __aeabi_memcpy4 + 50
        0x00000166:    7821        !x      LDRB     r1,[r4,#0]
        0x00000168:    7029        )p      STRB     r1,[r5,#0]
        0x0000016a:    1c64        d.      ADDS     r4,r4,#1
        0x0000016c:    1c6d        m.      ADDS     r5,r5,#1
        0x0000016e:    1e76        v.      SUBS     r6,r6,#1
        0x00000170:    d2f9        ..      BCS      0x166 ; __aeabi_memcpy4 + 42
        0x00000172:    bd70        p.      POP      {r4-r6,pc}
    .text
    main
        0x00000174:    f004fc1a    ....    BL       initialize_mote ; 0x49ac
        0x00000178:    2000        .       MOVS     r0,#0
        0x0000017a:    0200        ..      LSLS     r0,r0,#8
        0x0000017c:    3000        .0      ADDS     r0,#0
        0x0000017e:    0200        ..      LSLS     r0,r0,#8
        0x00000180:    3059        Y0      ADDS     r0,r0,#0x59
        0x00000182:    0200        ..      LSLS     r0,r0,#8
        0x00000184:    3050        P0      ADDS     r0,r0,#0x50
        0x00000186:    f004fddd    ....    BL       __2printf ; 0x4d44
        0x0000018a:    f000f810    ....    BL       ble_init ; 0x1ae
        0x0000018e:    f000fc5f    .._.    BL       ble_init_tx ; 0xa50
        0x00000192:    f004faca    ....    BL       analog_scan_chain_write ; 0x472a
        0x00000196:    f004fabf    ....    BL       analog_scan_chain_load ; 0x4718
        0x0000019a:    f003f959    ..Y.    BL       crc_check ; 0x3450
        0x0000019e:    f001f835    ..5.    BL       perform_calibration ; 0x120c
        0x000001a2:    f000fe87    ....    BL       ble_connect_init ; 0xeb4
        0x000001a6:    e001        ..      B        0x1ac ; main + 56
        0x000001a8:    f000fe9f    ....    BL       ble_fake_connnect ; 0xeea
        0x000001ac:    e7fc        ..      B        0x1a8 ; main + 52
    .text
    ble_init
        0x000001ae:    b510        ..      PUSH     {r4,lr}
        0x000001b0:    2170        p!      MOVS     r1,#0x70
        0x000001b2:    2020                MOVS     r0,#0x20
        0x000001b4:    0200        ..      LSLS     r0,r0,#8
        0x000001b6:    3000        .0      ADDS     r0,#0
        0x000001b8:    0200        ..      LSLS     r0,r0,#8
        0x000001ba:    3000        .0      ADDS     r0,#0
        0x000001bc:    0200        ..      LSLS     r0,r0,#8
        0x000001be:    30b8        .0      ADDS     r0,r0,#0xb8
        0x000001c0:    f004fec5    ....    BL       __aeabi_memclr4 ; 0x4f4e
        0x000001c4:    2100        .!      MOVS     r1,#0
        0x000001c6:    2020                MOVS     r0,#0x20
        0x000001c8:    0200        ..      LSLS     r0,r0,#8
        0x000001ca:    3000        .0      ADDS     r0,#0
        0x000001cc:    0200        ..      LSLS     r0,r0,#8
        0x000001ce:    3000        .0      ADDS     r0,#0
        0x000001d0:    0200        ..      LSLS     r0,r0,#8
        0x000001d2:    30f8        .0      ADDS     r0,r0,#0xf8
        0x000001d4:    7001        .p      STRB     r1,[r0,#0]
        0x000001d6:    2102        .!      MOVS     r1,#2
        0x000001d8:    7041        Ap      STRB     r1,[r0,#1]
        0x000001da:    2172        r!      MOVS     r1,#0x72
        0x000001dc:    7081        .p      STRB     r1,[r0,#2]
        0x000001de:    2132        2!      MOVS     r1,#0x32
        0x000001e0:    70c1        .p      STRB     r1,[r0,#3]
        0x000001e2:    2180        .!      MOVS     r1,#0x80
        0x000001e4:    7101        .q      STRB     r1,[r0,#4]
        0x000001e6:    21c6        .!      MOVS     r1,#0xc6
        0x000001e8:    7141        Aq      STRB     r1,[r0,#5]
        0x000001ea:    2125        %!      MOVS     r1,#0x25
        0x000001ec:    7181        .q      STRB     r1,[r0,#6]
        0x000001ee:    2101        .!      MOVS     r1,#1
        0x000001f0:    71c1        .q      STRB     r1,[r0,#7]
        0x000001f2:    2153        S!      MOVS     r1,#0x53
        0x000001f4:    7301        .s      STRB     r1,[r0,#0xc]
        0x000001f6:    2143        C!      MOVS     r1,#0x43
        0x000001f8:    300c        .0      ADDS     r0,r0,#0xc
        0x000001fa:    7041        Ap      STRB     r1,[r0,#1]
        0x000001fc:    2155        U!      MOVS     r1,#0x55
        0x000001fe:    7081        .p      STRB     r1,[r0,#2]
        0x00000200:    214d        M!      MOVS     r1,#0x4d
        0x00000202:    70c1        .p      STRB     r1,[r0,#3]
        0x00000204:    2133        3!      MOVS     r1,#0x33
        0x00000206:    7101        .q      STRB     r1,[r0,#4]
        0x00000208:    bd10        ..      POP      {r4,pc}
    ble_generate_packet
        0x0000020a:    b5f0        ..      PUSH     {r4-r7,lr}
        0x0000020c:    b097        ..      SUB      sp,sp,#0x5c
        0x0000020e:    2700        .'      MOVS     r7,#0
        0x00000210:    2400        .$      MOVS     r4,#0
        0x00000212:    20aa        .       MOVS     r0,#0xaa
        0x00000214:    9016        ..      STR      r0,[sp,#0x58]
        0x00000216:    9015        ..      STR      r0,[sp,#0x54]
        0x00000218:    9014        ..      STR      r0,[sp,#0x50]
        0x0000021a:    2020                MOVS     r0,#0x20
        0x0000021c:    0200        ..      LSLS     r0,r0,#8
        0x0000021e:    3000        .0      ADDS     r0,#0
        0x00000220:    0200        ..      LSLS     r0,r0,#8
        0x00000222:    3000        .0      ADDS     r0,#0
        0x00000224:    0200        ..      LSLS     r0,r0,#8
        0x00000226:    30f8        .0      ADDS     r0,r0,#0xf8
        0x00000228:    7980        .y      LDRB     r0,[r0,#6]
        0x0000022a:    0680        ..      LSLS     r0,r0,#26
        0x0000022c:    0e80        ..      LSRS     r0,r0,#26
        0x0000022e:    3040        @0      ADDS     r0,r0,#0x40
        0x00000230:    9008        ..      STR      r0,[sp,#0x20]
        0x00000232:    2140        @!      MOVS     r1,#0x40
        0x00000234:    2020                MOVS     r0,#0x20
        0x00000236:    0200        ..      LSLS     r0,r0,#8
        0x00000238:    3000        .0      ADDS     r0,#0
        0x0000023a:    0200        ..      LSLS     r0,r0,#8
        0x0000023c:    3000        .0      ADDS     r0,#0
        0x0000023e:    0200        ..      LSLS     r0,r0,#8
        0x00000240:    30b8        .0      ADDS     r0,r0,#0xb8
        0x00000242:    f004fe84    ....    BL       __aeabi_memclr4 ; 0x4f4e
        0x00000246:    212c        ,!      MOVS     r1,#0x2c
        0x00000248:    a809        ..      ADD      r0,sp,#0x24
        0x0000024a:    f004fe80    ....    BL       __aeabi_memclr4 ; 0x4f4e
        0x0000024e:    2255        U"      MOVS     r2,#0x55
        0x00000250:    4639        9F      MOV      r1,r7
        0x00000252:    1c7f        ..      ADDS     r7,r7,#1
        0x00000254:    2020                MOVS     r0,#0x20
        0x00000256:    0200        ..      LSLS     r0,r0,#8
        0x00000258:    3000        .0      ADDS     r0,#0
        0x0000025a:    0200        ..      LSLS     r0,r0,#8
        0x0000025c:    3000        .0      ADDS     r0,#0
        0x0000025e:    0200        ..      LSLS     r0,r0,#8
        0x00000260:    30b8        .0      ADDS     r0,r0,#0xb8
        0x00000262:    5442        BT      STRB     r2,[r0,r1]
        0x00000264:    226b        k"      MOVS     r2,#0x6b
        0x00000266:    4639        9F      MOV      r1,r7
        0x00000268:    1c7f        ..      ADDS     r7,r7,#1
        0x0000026a:    5442        BT      STRB     r2,[r0,r1]
        0x0000026c:    227d        }"      MOVS     r2,#0x7d
        0x0000026e:    4639        9F      MOV      r1,r7
        0x00000270:    1c7f        ..      ADDS     r7,r7,#1
        0x00000272:    5442        BT      STRB     r2,[r0,r1]
        0x00000274:    2291        ."      MOVS     r2,#0x91
        0x00000276:    4639        9F      MOV      r1,r7
        0x00000278:    1c7f        ..      ADDS     r7,r7,#1
        0x0000027a:    5442        BT      STRB     r2,[r0,r1]
        0x0000027c:    2271        q"      MOVS     r2,#0x71
        0x0000027e:    4639        9F      MOV      r1,r7
        0x00000280:    1c7f        ..      ADDS     r7,r7,#1
        0x00000282:    5442        BT      STRB     r2,[r0,r1]
        0x00000284:    2240        @"      MOVS     r2,#0x40
        0x00000286:    4621        !F      MOV      r1,r4
        0x00000288:    1c64        d.      ADDS     r4,r4,#1
        0x0000028a:    a809        ..      ADD      r0,sp,#0x24
        0x0000028c:    5442        BT      STRB     r2,[r0,r1]
        0x0000028e:    22a4        ."      MOVS     r2,#0xa4
        0x00000290:    4621        !F      MOV      r1,r4
        0x00000292:    1c64        d.      ADDS     r4,r4,#1
        0x00000294:    5442        BT      STRB     r2,[r0,r1]
        0x00000296:    2505        .%      MOVS     r5,#5
        0x00000298:    e00f        ..      B        0x2ba ; ble_generate_packet + 176
        0x0000029a:    2120         !      MOVS     r1,#0x20
        0x0000029c:    0209        ..      LSLS     r1,r1,#8
        0x0000029e:    3100        .1      ADDS     r1,#0
        0x000002a0:    0209        ..      LSLS     r1,r1,#8
        0x000002a2:    3100        .1      ADDS     r1,#0
        0x000002a4:    0209        ..      LSLS     r1,r1,#8
        0x000002a6:    31f8        .1      ADDS     r1,r1,#0xf8
        0x000002a8:    5d48        H]      LDRB     r0,[r1,r5]
        0x000002aa:    f003f908    ....    BL       flipChar ; 0x34be
        0x000002ae:    4621        !F      MOV      r1,r4
        0x000002b0:    1c62        b.      ADDS     r2,r4,#1
        0x000002b2:    b2d4        ..      UXTB     r4,r2
        0x000002b4:    aa09        ..      ADD      r2,sp,#0x24
        0x000002b6:    5450        PT      STRB     r0,[r2,r1]
        0x000002b8:    1e6d        m.      SUBS     r5,r5,#1
        0x000002ba:    2d00        .-      CMP      r5,#0
        0x000002bc:    daed        ..      BGE      0x29a ; ble_generate_packet + 144
        0x000002be:    2020                MOVS     r0,#0x20
        0x000002c0:    0200        ..      LSLS     r0,r0,#8
        0x000002c2:    3000        .0      ADDS     r0,#0
        0x000002c4:    0200        ..      LSLS     r0,r0,#8
        0x000002c6:    3000        .0      ADDS     r0,#0
        0x000002c8:    0200        ..      LSLS     r0,r0,#8
        0x000002ca:    30f8        .0      ADDS     r0,r0,#0xf8
        0x000002cc:    79c0        .y      LDRB     r0,[r0,#7]
        0x000002ce:    2800        .(      CMP      r0,#0
        0x000002d0:    d01f        ..      BEQ      0x312 ; ble_generate_packet + 264
        0x000002d2:    2260        `"      MOVS     r2,#0x60
        0x000002d4:    4620         F      MOV      r0,r4
        0x000002d6:    1c61        a.      ADDS     r1,r4,#1
        0x000002d8:    b2cc        ..      UXTB     r4,r1
        0x000002da:    a909        ..      ADD      r1,sp,#0x24
        0x000002dc:    540a        .T      STRB     r2,[r1,r0]
        0x000002de:    2210        ."      MOVS     r2,#0x10
        0x000002e0:    4620         F      MOV      r0,r4
        0x000002e2:    1c61        a.      ADDS     r1,r4,#1
        0x000002e4:    b2cc        ..      UXTB     r4,r1
        0x000002e6:    a909        ..      ADD      r1,sp,#0x24
        0x000002e8:    540a        .T      STRB     r2,[r1,r0]
        0x000002ea:    2500        .%      MOVS     r5,#0
        0x000002ec:    e00f        ..      B        0x30e ; ble_generate_packet + 260
        0x000002ee:    2120         !      MOVS     r1,#0x20
        0x000002f0:    0209        ..      LSLS     r1,r1,#8
        0x000002f2:    3100        .1      ADDS     r1,#0
        0x000002f4:    0209        ..      LSLS     r1,r1,#8
        0x000002f6:    3101        .1      ADDS     r1,#1
        0x000002f8:    0209        ..      LSLS     r1,r1,#8
        0x000002fa:    3104        .1      ADDS     r1,#4
        0x000002fc:    5d48        H]      LDRB     r0,[r1,r5]
        0x000002fe:    f003f8de    ....    BL       flipChar ; 0x34be
        0x00000302:    4621        !F      MOV      r1,r4
        0x00000304:    1c62        b.      ADDS     r2,r4,#1
        0x00000306:    b2d4        ..      UXTB     r4,r2
        0x00000308:    aa09        ..      ADD      r2,sp,#0x24
        0x0000030a:    5450        PT      STRB     r0,[r2,r1]
        0x0000030c:    1c6d        m.      ADDS     r5,r5,#1
        0x0000030e:    2d05        .-      CMP      r5,#5
        0x00000310:    dbed        ..      BLT      0x2ee ; ble_generate_packet + 228
        0x00000312:    2020                MOVS     r0,#0x20
        0x00000314:    0200        ..      LSLS     r0,r0,#8
        0x00000316:    3000        .0      ADDS     r0,#0
        0x00000318:    0200        ..      LSLS     r0,r0,#8
        0x0000031a:    3000        .0      ADDS     r0,#0
        0x0000031c:    0200        ..      LSLS     r0,r0,#8
        0x0000031e:    30f8        .0      ADDS     r0,r0,#0xf8
        0x00000320:    7a00        .z      LDRB     r0,[r0,#8]
        0x00000322:    2800        .(      CMP      r0,#0
        0x00000324:    d03c        <.      BEQ      0x3a0 ; ble_generate_packet + 406
        0x00000326:    22c0        ."      MOVS     r2,#0xc0
        0x00000328:    4621        !F      MOV      r1,r4
        0x0000032a:    1c60        `.      ADDS     r0,r4,#1
        0x0000032c:    b2c4        ..      UXTB     r4,r0
        0x0000032e:    a809        ..      ADD      r0,sp,#0x24
        0x00000330:    5442        BT      STRB     r2,[r0,r1]
        0x00000332:    2203        ."      MOVS     r2,#3
        0x00000334:    4620         F      MOV      r0,r4
        0x00000336:    1c61        a.      ADDS     r1,r4,#1
        0x00000338:    b2cc        ..      UXTB     r4,r1
        0x0000033a:    a909        ..      ADD      r1,sp,#0x24
        0x0000033c:    540a        .T      STRB     r2,[r1,r0]
        0x0000033e:    2020                MOVS     r0,#0x20
        0x00000340:    0200        ..      LSLS     r0,r0,#8
        0x00000342:    3000        .0      ADDS     r0,#0
        0x00000344:    0200        ..      LSLS     r0,r0,#8
        0x00000346:    3000        .0      ADDS     r0,#0
        0x00000348:    0200        ..      LSLS     r0,r0,#8
        0x0000034a:    30f8        .0      ADDS     r0,r0,#0xf8
        0x0000034c:    7c40        @|      LDRB     r0,[r0,#0x11]
        0x0000034e:    0280        ..      LSLS     r0,r0,#10
        0x00000350:    2120         !      MOVS     r1,#0x20
        0x00000352:    0209        ..      LSLS     r1,r1,#8
        0x00000354:    3100        .1      ADDS     r1,#0
        0x00000356:    0209        ..      LSLS     r1,r1,#8
        0x00000358:    3101        .1      ADDS     r1,#1
        0x0000035a:    0209        ..      LSLS     r1,r1,#8
        0x0000035c:    3109        .1      ADDS     r1,r1,#9
        0x0000035e:    7849        Ix      LDRB     r1,[r1,#1]
        0x00000360:    0149        I.      LSLS     r1,r1,#5
        0x00000362:    4308        .C      ORRS     r0,r0,r1
        0x00000364:    2120         !      MOVS     r1,#0x20
        0x00000366:    0209        ..      LSLS     r1,r1,#8
        0x00000368:    3100        .1      ADDS     r1,#0
        0x0000036a:    0209        ..      LSLS     r1,r1,#8
        0x0000036c:    3101        .1      ADDS     r1,#1
        0x0000036e:    0209        ..      LSLS     r1,r1,#8
        0x00000370:    3109        .1      ADDS     r1,r1,#9
        0x00000372:    7889        .x      LDRB     r1,[r1,#2]
        0x00000374:    4308        .C      ORRS     r0,r0,r1
        0x00000376:    b280        ..      UXTH     r0,r0
        0x00000378:    9007        ..      STR      r0,[sp,#0x1c]
        0x0000037a:    9907        ..      LDR      r1,[sp,#0x1c]
        0x0000037c:    1208        ..      ASRS     r0,r1,#8
        0x0000037e:    f003f89e    ....    BL       flipChar ; 0x34be
        0x00000382:    4621        !F      MOV      r1,r4
        0x00000384:    1c62        b.      ADDS     r2,r4,#1
        0x00000386:    b2d4        ..      UXTB     r4,r2
        0x00000388:    aa09        ..      ADD      r2,sp,#0x24
        0x0000038a:    5450        PT      STRB     r0,[r2,r1]
        0x0000038c:    9907        ..      LDR      r1,[sp,#0x1c]
        0x0000038e:    b2c8        ..      UXTB     r0,r1
        0x00000390:    f003f895    ....    BL       flipChar ; 0x34be
        0x00000394:    4621        !F      MOV      r1,r4
        0x00000396:    1c62        b.      ADDS     r2,r4,#1
        0x00000398:    b2d4        ..      UXTB     r4,r2
        0x0000039a:    aa09        ..      ADD      r2,sp,#0x24
        0x0000039c:    5450        PT      STRB     r0,[r2,r1]
        0x0000039e:    bf00        ..      NOP      
        0x000003a0:    2020                MOVS     r0,#0x20
        0x000003a2:    0200        ..      LSLS     r0,r0,#8
        0x000003a4:    3000        .0      ADDS     r0,#0
        0x000003a6:    0200        ..      LSLS     r0,r0,#8
        0x000003a8:    3000        .0      ADDS     r0,#0
        0x000003aa:    0200        ..      LSLS     r0,r0,#8
        0x000003ac:    30f8        .0      ADDS     r0,r0,#0xf8
        0x000003ae:    7a40        @z      LDRB     r0,[r0,#9]
        0x000003b0:    2800        .(      CMP      r0,#0
        0x000003b2:    d07e        ~.      BEQ      0x4b2 ; ble_generate_packet + 680
        0x000003b4:    2290        ."      MOVS     r2,#0x90
        0x000003b6:    4620         F      MOV      r0,r4
        0x000003b8:    1c61        a.      ADDS     r1,r4,#1
        0x000003ba:    b2cc        ..      UXTB     r4,r1
        0x000003bc:    a909        ..      ADD      r1,sp,#0x24
        0x000003be:    540a        .T      STRB     r2,[r1,r0]
        0x000003c0:    2243        C"      MOVS     r2,#0x43
        0x000003c2:    4620         F      MOV      r0,r4
        0x000003c4:    1c61        a.      ADDS     r1,r4,#1
        0x000003c6:    b2cc        ..      UXTB     r4,r1
        0x000003c8:    a909        ..      ADD      r1,sp,#0x24
        0x000003ca:    540a        .T      STRB     r2,[r1,r0]
        0x000003cc:    2120         !      MOVS     r1,#0x20
        0x000003ce:    0209        ..      LSLS     r1,r1,#8
        0x000003d0:    3100        .1      ADDS     r1,#0
        0x000003d2:    0209        ..      LSLS     r1,r1,#8
        0x000003d4:    3100        .1      ADDS     r1,#0
        0x000003d6:    0209        ..      LSLS     r1,r1,#8
        0x000003d8:    31b8        .1      ADDS     r1,r1,#0xb8
        0x000003da:    6d49        Im      LDR      r1,[r1,#0x54]
        0x000003dc:    0e08        ..      LSRS     r0,r1,#24
        0x000003de:    f003f86e    ..n.    BL       flipChar ; 0x34be
        0x000003e2:    4621        !F      MOV      r1,r4
        0x000003e4:    1c62        b.      ADDS     r2,r4,#1
        0x000003e6:    b2d4        ..      UXTB     r4,r2
        0x000003e8:    aa09        ..      ADD      r2,sp,#0x24
        0x000003ea:    5450        PT      STRB     r0,[r2,r1]
        0x000003ec:    2120         !      MOVS     r1,#0x20
        0x000003ee:    0209        ..      LSLS     r1,r1,#8
        0x000003f0:    3100        .1      ADDS     r1,#0
        0x000003f2:    0209        ..      LSLS     r1,r1,#8
        0x000003f4:    3100        .1      ADDS     r1,#0
        0x000003f6:    0209        ..      LSLS     r1,r1,#8
        0x000003f8:    31b8        .1      ADDS     r1,r1,#0xb8
        0x000003fa:    6d49        Im      LDR      r1,[r1,#0x54]
        0x000003fc:    0209        ..      LSLS     r1,r1,#8
        0x000003fe:    0e08        ..      LSRS     r0,r1,#24
        0x00000400:    f003f85d    ..].    BL       flipChar ; 0x34be
        0x00000404:    4621        !F      MOV      r1,r4
        0x00000406:    1c62        b.      ADDS     r2,r4,#1
        0x00000408:    b2d4        ..      UXTB     r4,r2
        0x0000040a:    aa09        ..      ADD      r2,sp,#0x24
        0x0000040c:    5450        PT      STRB     r0,[r2,r1]
        0x0000040e:    2120         !      MOVS     r1,#0x20
        0x00000410:    0209        ..      LSLS     r1,r1,#8
        0x00000412:    3100        .1      ADDS     r1,#0
        0x00000414:    0209        ..      LSLS     r1,r1,#8
        0x00000416:    3100        .1      ADDS     r1,#0
        0x00000418:    0209        ..      LSLS     r1,r1,#8
        0x0000041a:    31b8        .1      ADDS     r1,r1,#0xb8
        0x0000041c:    6d49        Im      LDR      r1,[r1,#0x54]
        0x0000041e:    0409        ..      LSLS     r1,r1,#16
        0x00000420:    0e08        ..      LSRS     r0,r1,#24
        0x00000422:    f003f84c    ..L.    BL       flipChar ; 0x34be
        0x00000426:    4621        !F      MOV      r1,r4
        0x00000428:    1c62        b.      ADDS     r2,r4,#1
        0x0000042a:    b2d4        ..      UXTB     r4,r2
        0x0000042c:    aa09        ..      ADD      r2,sp,#0x24
        0x0000042e:    5450        PT      STRB     r0,[r2,r1]
        0x00000430:    2120         !      MOVS     r1,#0x20
        0x00000432:    0209        ..      LSLS     r1,r1,#8
        0x00000434:    3100        .1      ADDS     r1,#0
        0x00000436:    0209        ..      LSLS     r1,r1,#8
        0x00000438:    3100        .1      ADDS     r1,#0
        0x0000043a:    0209        ..      LSLS     r1,r1,#8
        0x0000043c:    31b8        .1      ADDS     r1,r1,#0xb8
        0x0000043e:    6d49        Im      LDR      r1,[r1,#0x54]
        0x00000440:    b2c8        ..      UXTB     r0,r1
        0x00000442:    f003f83c    ..<.    BL       flipChar ; 0x34be
        0x00000446:    4621        !F      MOV      r1,r4
        0x00000448:    1c62        b.      ADDS     r2,r4,#1
        0x0000044a:    b2d4        ..      UXTB     r4,r2
        0x0000044c:    aa09        ..      ADD      r2,sp,#0x24
        0x0000044e:    5450        PT      STRB     r0,[r2,r1]
        0x00000450:    2120         !      MOVS     r1,#0x20
        0x00000452:    0209        ..      LSLS     r1,r1,#8
        0x00000454:    3100        .1      ADDS     r1,#0
        0x00000456:    0209        ..      LSLS     r1,r1,#8
        0x00000458:    3100        .1      ADDS     r1,#0
        0x0000045a:    0209        ..      LSLS     r1,r1,#8
        0x0000045c:    31b8        .1      ADDS     r1,r1,#0xb8
        0x0000045e:    6d89        .m      LDR      r1,[r1,#0x58]
        0x00000460:    0e08        ..      LSRS     r0,r1,#24
        0x00000462:    f003f82c    ..,.    BL       flipChar ; 0x34be
        0x00000466:    4621        !F      MOV      r1,r4
        0x00000468:    1c62        b.      ADDS     r2,r4,#1
        0x0000046a:    b2d4        ..      UXTB     r4,r2
        0x0000046c:    aa09        ..      ADD      r2,sp,#0x24
        0x0000046e:    5450        PT      STRB     r0,[r2,r1]
        0x00000470:    2120         !      MOVS     r1,#0x20
        0x00000472:    0209        ..      LSLS     r1,r1,#8
        0x00000474:    3100        .1      ADDS     r1,#0
        0x00000476:    0209        ..      LSLS     r1,r1,#8
        0x00000478:    3100        .1      ADDS     r1,#0
        0x0000047a:    0209        ..      LSLS     r1,r1,#8
        0x0000047c:    31b8        .1      ADDS     r1,r1,#0xb8
        0x0000047e:    6d89        .m      LDR      r1,[r1,#0x58]
        0x00000480:    0209        ..      LSLS     r1,r1,#8
        0x00000482:    0e08        ..      LSRS     r0,r1,#24
        0x00000484:    f003f81b    ....    BL       flipChar ; 0x34be
        0x00000488:    4621        !F      MOV      r1,r4
        0x0000048a:    1c62        b.      ADDS     r2,r4,#1
        0x0000048c:    b2d4        ..      UXTB     r4,r2
        0x0000048e:    aa09        ..      ADD      r2,sp,#0x24
        0x00000490:    5450        PT      STRB     r0,[r2,r1]
        0x00000492:    2120         !      MOVS     r1,#0x20
        0x00000494:    0209        ..      LSLS     r1,r1,#8
        0x00000496:    3100        .1      ADDS     r1,#0
        0x00000498:    0209        ..      LSLS     r1,r1,#8
        0x0000049a:    3100        .1      ADDS     r1,#0
        0x0000049c:    0209        ..      LSLS     r1,r1,#8
        0x0000049e:    31b8        .1      ADDS     r1,r1,#0xb8
        0x000004a0:    6d89        .m      LDR      r1,[r1,#0x58]
        0x000004a2:    0409        ..      LSLS     r1,r1,#16
        0x000004a4:    0e08        ..      LSRS     r0,r1,#24
        0x000004a6:    f003f80a    ....    BL       flipChar ; 0x34be
        0x000004aa:    4621        !F      MOV      r1,r4
        0x000004ac:    1c62        b.      ADDS     r2,r4,#1
        0x000004ae:    b2d4        ..      UXTB     r4,r2
        0x000004b0:    e000        ..      B        0x4b4 ; ble_generate_packet + 682
        0x000004b2:    e011        ..      B        0x4d8 ; ble_generate_packet + 718
        0x000004b4:    aa09        ..      ADD      r2,sp,#0x24
        0x000004b6:    5450        PT      STRB     r0,[r2,r1]
        0x000004b8:    2120         !      MOVS     r1,#0x20
        0x000004ba:    0209        ..      LSLS     r1,r1,#8
        0x000004bc:    3100        .1      ADDS     r1,#0
        0x000004be:    0209        ..      LSLS     r1,r1,#8
        0x000004c0:    3100        .1      ADDS     r1,#0
        0x000004c2:    0209        ..      LSLS     r1,r1,#8
        0x000004c4:    31b8        .1      ADDS     r1,r1,#0xb8
        0x000004c6:    6d89        .m      LDR      r1,[r1,#0x58]
        0x000004c8:    b2c8        ..      UXTB     r0,r1
        0x000004ca:    f002fff8    ....    BL       flipChar ; 0x34be
        0x000004ce:    4621        !F      MOV      r1,r4
        0x000004d0:    1c62        b.      ADDS     r2,r4,#1
        0x000004d2:    b2d4        ..      UXTB     r4,r2
        0x000004d4:    aa09        ..      ADD      r2,sp,#0x24
        0x000004d6:    5450        PT      STRB     r0,[r2,r1]
        0x000004d8:    2020                MOVS     r0,#0x20
        0x000004da:    0200        ..      LSLS     r0,r0,#8
        0x000004dc:    3000        .0      ADDS     r0,#0
        0x000004de:    0200        ..      LSLS     r0,r0,#8
        0x000004e0:    3000        .0      ADDS     r0,#0
        0x000004e2:    0200        ..      LSLS     r0,r0,#8
        0x000004e4:    30f8        .0      ADDS     r0,r0,#0xf8
        0x000004e6:    7a80        .z      LDRB     r0,[r0,#0xa]
        0x000004e8:    2800        .(      CMP      r0,#0
        0x000004ea:    d053        S.      BEQ      0x594 ; ble_generate_packet + 906
        0x000004ec:    2020                MOVS     r0,#0x20
        0x000004ee:    0200        ..      LSLS     r0,r0,#8
        0x000004f0:    3000        .0      ADDS     r0,#0
        0x000004f2:    0200        ..      LSLS     r0,r0,#8
        0x000004f4:    3000        .0      ADDS     r0,#0
        0x000004f6:    0200        ..      LSLS     r0,r0,#8
        0x000004f8:    30b8        .0      ADDS     r0,r0,#0xb8
        0x000004fa:    6e41        An      LDR      r1,[r0,#0x64]
        0x000004fc:    6e00        .n      LDR      r0,[r0,#0x60]
        0x000004fe:    2266        f"      MOVS     r2,#0x66
        0x00000500:    0212        ..      LSLS     r2,r2,#8
        0x00000502:    3266        f2      ADDS     r2,r2,#0x66
        0x00000504:    0212        ..      LSLS     r2,r2,#8
        0x00000506:    3266        f2      ADDS     r2,r2,#0x66
        0x00000508:    0212        ..      LSLS     r2,r2,#8
        0x0000050a:    3266        f2      ADDS     r2,r2,#0x66
        0x0000050c:    2340        @#      MOVS     r3,#0x40
        0x0000050e:    021b        ..      LSLS     r3,r3,#8
        0x00000510:    3371        q3      ADDS     r3,r3,#0x71
        0x00000512:    021b        ..      LSLS     r3,r3,#8
        0x00000514:    3312        .3      ADDS     r3,r3,#0x12
        0x00000516:    021b        ..      LSLS     r3,r3,#8
        0x00000518:    3366        f3      ADDS     r3,r3,#0x66
        0x0000051a:    9103        ..      STR      r1,[sp,#0xc]
        0x0000051c:    9002        ..      STR      r0,[sp,#8]
        0x0000051e:    f004ff45    ..E.    BL       __aeabi_dadd ; 0x53ac
        0x00000522:    9107        ..      STR      r1,[sp,#0x1c]
        0x00000524:    9006        ..      STR      r0,[sp,#0x18]
        0x00000526:    2000        .       MOVS     r0,#0
        0x00000528:    2140        @!      MOVS     r1,#0x40
        0x0000052a:    0209        ..      LSLS     r1,r1,#8
        0x0000052c:    3159        Y1      ADDS     r1,r1,#0x59
        0x0000052e:    0409        ..      LSLS     r1,r1,#16
        0x00000530:    9b07        ..      LDR      r3,[sp,#0x1c]
        0x00000532:    9a06        ..      LDR      r2,[sp,#0x18]
        0x00000534:    f004ffa0    ....    BL       __aeabi_dmul ; 0x5478
        0x00000538:    2200        ."      MOVS     r2,#0
        0x0000053a:    233f        ?#      MOVS     r3,#0x3f
        0x0000053c:    021b        ..      LSLS     r3,r3,#8
        0x0000053e:    33f0        .3      ADDS     r3,r3,#0xf0
        0x00000540:    041b        ..      LSLS     r3,r3,#16
        0x00000542:    9101        ..      STR      r1,[sp,#4]
        0x00000544:    9000        ..      STR      r0,[sp,#0]
        0x00000546:    f004ff31    ..1.    BL       __aeabi_dadd ; 0x53ac
        0x0000054a:    9103        ..      STR      r1,[sp,#0xc]
        0x0000054c:    9002        ..      STR      r0,[sp,#8]
        0x0000054e:    f004ff5d    ..].    BL       __aeabi_d2iz ; 0x540c
        0x00000552:    9005        ..      STR      r0,[sp,#0x14]
        0x00000554:    22c0        ."      MOVS     r2,#0xc0
        0x00000556:    4620         F      MOV      r0,r4
        0x00000558:    1c61        a.      ADDS     r1,r4,#1
        0x0000055a:    b2cc        ..      UXTB     r4,r1
        0x0000055c:    a909        ..      ADD      r1,sp,#0x24
        0x0000055e:    540a        .T      STRB     r2,[r1,r0]
        0x00000560:    2283        ."      MOVS     r2,#0x83
        0x00000562:    4620         F      MOV      r0,r4
        0x00000564:    1c61        a.      ADDS     r1,r4,#1
        0x00000566:    b2cc        ..      UXTB     r4,r1
        0x00000568:    a909        ..      ADD      r1,sp,#0x24
        0x0000056a:    540a        .T      STRB     r2,[r1,r0]
        0x0000056c:    9905        ..      LDR      r1,[sp,#0x14]
        0x0000056e:    0409        ..      LSLS     r1,r1,#16
        0x00000570:    0e08        ..      LSRS     r0,r1,#24
        0x00000572:    f002ffa4    ....    BL       flipChar ; 0x34be
        0x00000576:    4621        !F      MOV      r1,r4
        0x00000578:    1c62        b.      ADDS     r2,r4,#1
        0x0000057a:    b2d4        ..      UXTB     r4,r2
        0x0000057c:    aa09        ..      ADD      r2,sp,#0x24
        0x0000057e:    5450        PT      STRB     r0,[r2,r1]
        0x00000580:    9905        ..      LDR      r1,[sp,#0x14]
        0x00000582:    b2c8        ..      UXTB     r0,r1
        0x00000584:    f002ff9b    ....    BL       flipChar ; 0x34be
        0x00000588:    4621        !F      MOV      r1,r4
        0x0000058a:    1c62        b.      ADDS     r2,r4,#1
        0x0000058c:    b2d4        ..      UXTB     r4,r2
        0x0000058e:    aa09        ..      ADD      r2,sp,#0x24
        0x00000590:    5450        PT      STRB     r0,[r2,r1]
        0x00000592:    bf00        ..      NOP      
        0x00000594:    2020                MOVS     r0,#0x20
        0x00000596:    0200        ..      LSLS     r0,r0,#8
        0x00000598:    3000        .0      ADDS     r0,#0
        0x0000059a:    0200        ..      LSLS     r0,r0,#8
        0x0000059c:    3000        .0      ADDS     r0,#0
        0x0000059e:    0200        ..      LSLS     r0,r0,#8
        0x000005a0:    30f8        .0      ADDS     r0,r0,#0xf8
        0x000005a2:    7ac0        .z      LDRB     r0,[r0,#0xb]
        0x000005a4:    2800        .(      CMP      r0,#0
        0x000005a6:    d01f        ..      BEQ      0x5e8 ; ble_generate_packet + 990
        0x000005a8:    22a0        ."      MOVS     r2,#0xa0
        0x000005aa:    4620         F      MOV      r0,r4
        0x000005ac:    1c61        a.      ADDS     r1,r4,#1
        0x000005ae:    b2cc        ..      UXTB     r4,r1
        0x000005b0:    a909        ..      ADD      r1,sp,#0x24
        0x000005b2:    540a        .T      STRB     r2,[r1,r0]
        0x000005b4:    22c3        ."      MOVS     r2,#0xc3
        0x000005b6:    4620         F      MOV      r0,r4
        0x000005b8:    1c61        a.      ADDS     r1,r4,#1
        0x000005ba:    b2cc        ..      UXTB     r4,r1
        0x000005bc:    a909        ..      ADD      r1,sp,#0x24
        0x000005be:    540a        .T      STRB     r2,[r1,r0]
        0x000005c0:    2500        .%      MOVS     r5,#0
        0x000005c2:    e00f        ..      B        0x5e4 ; ble_generate_packet + 986
        0x000005c4:    2120         !      MOVS     r1,#0x20
        0x000005c6:    0209        ..      LSLS     r1,r1,#8
        0x000005c8:    3100        .1      ADDS     r1,#0
        0x000005ca:    0209        ..      LSLS     r1,r1,#8
        0x000005cc:    3101        .1      ADDS     r1,#1
        0x000005ce:    0209        ..      LSLS     r1,r1,#8
        0x000005d0:    3120         1      ADDS     r1,r1,#0x20
        0x000005d2:    5d48        H]      LDRB     r0,[r1,r5]
        0x000005d4:    f002ff73    ..s.    BL       flipChar ; 0x34be
        0x000005d8:    4621        !F      MOV      r1,r4
        0x000005da:    1c62        b.      ADDS     r2,r4,#1
        0x000005dc:    b2d4        ..      UXTB     r4,r2
        0x000005de:    aa09        ..      ADD      r2,sp,#0x24
        0x000005e0:    5450        PT      STRB     r0,[r2,r1]
        0x000005e2:    1c6d        m.      ADDS     r5,r5,#1
        0x000005e4:    2d04        .-      CMP      r5,#4
        0x000005e6:    dbed        ..      BLT      0x5c4 ; ble_generate_packet + 954
        0x000005e8:    2400        .$      MOVS     r4,#0
        0x000005ea:    e031        1.      B        0x650 ; ble_generate_packet + 1094
        0x000005ec:    2507        .%      MOVS     r5,#7
        0x000005ee:    e02b        +.      B        0x648 ; ble_generate_packet + 1086
        0x000005f0:    a809        ..      ADD      r0,sp,#0x24
        0x000005f2:    5d00        .]      LDRB     r0,[r0,r4]
        0x000005f4:    2101        .!      MOVS     r1,#1
        0x000005f6:    40a9        .@      LSLS     r1,r1,r5
        0x000005f8:    4008        .@      ANDS     r0,r0,r1
        0x000005fa:    4128        (A      ASRS     r0,r0,r5
        0x000005fc:    9914        ..      LDR      r1,[sp,#0x50]
        0x000005fe:    07c9        ..      LSLS     r1,r1,#31
        0x00000600:    0fc9        ..      LSRS     r1,r1,#31
        0x00000602:    4606        .F      MOV      r6,r0
        0x00000604:    404e        N@      EORS     r6,r6,r1
        0x00000606:    9814        ..      LDR      r0,[sp,#0x50]
        0x00000608:    1040        @.      ASRS     r0,r0,#1
        0x0000060a:    9915        ..      LDR      r1,[sp,#0x54]
        0x0000060c:    07c9        ..      LSLS     r1,r1,#31
        0x0000060e:    0e09        ..      LSRS     r1,r1,#24
        0x00000610:    4308        .C      ORRS     r0,r0,r1
        0x00000612:    9014        ..      STR      r0,[sp,#0x50]
        0x00000614:    9815        ..      LDR      r0,[sp,#0x54]
        0x00000616:    1040        @.      ASRS     r0,r0,#1
        0x00000618:    9916        ..      LDR      r1,[sp,#0x58]
        0x0000061a:    01c9        ..      LSLS     r1,r1,#7
        0x0000061c:    4308        .C      ORRS     r0,r0,r1
        0x0000061e:    01b1        ..      LSLS     r1,r6,#6
        0x00000620:    4048        H@      EORS     r0,r0,r1
        0x00000622:    0171        q.      LSLS     r1,r6,#5
        0x00000624:    4048        H@      EORS     r0,r0,r1
        0x00000626:    b2c0        ..      UXTB     r0,r0
        0x00000628:    9015        ..      STR      r0,[sp,#0x54]
        0x0000062a:    9816        ..      LDR      r0,[sp,#0x58]
        0x0000062c:    1040        @.      ASRS     r0,r0,#1
        0x0000062e:    01f1        ..      LSLS     r1,r6,#7
        0x00000630:    4308        .C      ORRS     r0,r0,r1
        0x00000632:    01b1        ..      LSLS     r1,r6,#6
        0x00000634:    4048        H@      EORS     r0,r0,r1
        0x00000636:    0131        1.      LSLS     r1,r6,#4
        0x00000638:    4048        H@      EORS     r0,r0,r1
        0x0000063a:    00f1        ..      LSLS     r1,r6,#3
        0x0000063c:    4048        H@      EORS     r0,r0,r1
        0x0000063e:    0071        q.      LSLS     r1,r6,#1
        0x00000640:    4048        H@      EORS     r0,r0,r1
        0x00000642:    b2c0        ..      UXTB     r0,r0
        0x00000644:    9016        ..      STR      r0,[sp,#0x58]
        0x00000646:    1e6d        m.      SUBS     r5,r5,#1
        0x00000648:    2d00        .-      CMP      r5,#0
        0x0000064a:    dad1        ..      BGE      0x5f0 ; ble_generate_packet + 998
        0x0000064c:    1c60        `.      ADDS     r0,r4,#1
        0x0000064e:    b2c4        ..      UXTB     r4,r0
        0x00000650:    2c27        ',      CMP      r4,#0x27
        0x00000652:    dbcb        ..      BLT      0x5ec ; ble_generate_packet + 994
        0x00000654:    9814        ..      LDR      r0,[sp,#0x50]
        0x00000656:    f002ff32    ..2.    BL       flipChar ; 0x34be
        0x0000065a:    9014        ..      STR      r0,[sp,#0x50]
        0x0000065c:    9815        ..      LDR      r0,[sp,#0x54]
        0x0000065e:    f002ff2e    ....    BL       flipChar ; 0x34be
        0x00000662:    9015        ..      STR      r0,[sp,#0x54]
        0x00000664:    9816        ..      LDR      r0,[sp,#0x58]
        0x00000666:    f002ff2a    ..*.    BL       flipChar ; 0x34be
        0x0000066a:    9016        ..      STR      r0,[sp,#0x58]
        0x0000066c:    4621        !F      MOV      r1,r4
        0x0000066e:    1c62        b.      ADDS     r2,r4,#1
        0x00000670:    b2d4        ..      UXTB     r4,r2
        0x00000672:    aa09        ..      ADD      r2,sp,#0x24
        0x00000674:    9814        ..      LDR      r0,[sp,#0x50]
        0x00000676:    5450        PT      STRB     r0,[r2,r1]
        0x00000678:    4621        !F      MOV      r1,r4
        0x0000067a:    1c62        b.      ADDS     r2,r4,#1
        0x0000067c:    b2d4        ..      UXTB     r4,r2
        0x0000067e:    aa09        ..      ADD      r2,sp,#0x24
        0x00000680:    9815        ..      LDR      r0,[sp,#0x54]
        0x00000682:    5450        PT      STRB     r0,[r2,r1]
        0x00000684:    4621        !F      MOV      r1,r4
        0x00000686:    1c62        b.      ADDS     r2,r4,#1
        0x00000688:    b2d4        ..      UXTB     r4,r2
        0x0000068a:    aa09        ..      ADD      r2,sp,#0x24
        0x0000068c:    9816        ..      LDR      r0,[sp,#0x58]
        0x0000068e:    5450        PT      STRB     r0,[r2,r1]
        0x00000690:    2400        .$      MOVS     r4,#0
        0x00000692:    e023        #.      B        0x6dc ; ble_generate_packet + 1234
        0x00000694:    2507        .%      MOVS     r5,#7
        0x00000696:    e01d        ..      B        0x6d4 ; ble_generate_packet + 1226
        0x00000698:    a809        ..      ADD      r0,sp,#0x24
        0x0000069a:    5d00        .]      LDRB     r0,[r0,r4]
        0x0000069c:    2101        .!      MOVS     r1,#1
        0x0000069e:    40a9        .@      LSLS     r1,r1,r5
        0x000006a0:    4388        .C      BICS     r0,r0,r1
        0x000006a2:    a909        ..      ADD      r1,sp,#0x24
        0x000006a4:    5d09        .]      LDRB     r1,[r1,r4]
        0x000006a6:    2201        ."      MOVS     r2,#1
        0x000006a8:    40aa        .@      LSLS     r2,r2,r5
        0x000006aa:    4011        .@      ANDS     r1,r1,r2
        0x000006ac:    9a08        ..      LDR      r2,[sp,#0x20]
        0x000006ae:    07d2        ..      LSLS     r2,r2,#31
        0x000006b0:    0fd2        ..      LSRS     r2,r2,#31
        0x000006b2:    40aa        .@      LSLS     r2,r2,r5
        0x000006b4:    4051        Q@      EORS     r1,r1,r2
        0x000006b6:    4308        .C      ORRS     r0,r0,r1
        0x000006b8:    a909        ..      ADD      r1,sp,#0x24
        0x000006ba:    5508        .U      STRB     r0,[r1,r4]
        0x000006bc:    9808        ..      LDR      r0,[sp,#0x20]
        0x000006be:    1040        @.      ASRS     r0,r0,#1
        0x000006c0:    9908        ..      LDR      r1,[sp,#0x20]
        0x000006c2:    07c9        ..      LSLS     r1,r1,#31
        0x000006c4:    0e49        I.      LSRS     r1,r1,#25
        0x000006c6:    4308        .C      ORRS     r0,r0,r1
        0x000006c8:    9908        ..      LDR      r1,[sp,#0x20]
        0x000006ca:    07c9        ..      LSLS     r1,r1,#31
        0x000006cc:    0f49        I.      LSRS     r1,r1,#29
        0x000006ce:    4048        H@      EORS     r0,r0,r1
        0x000006d0:    9008        ..      STR      r0,[sp,#0x20]
        0x000006d2:    1e6d        m.      SUBS     r5,r5,#1
        0x000006d4:    2d00        .-      CMP      r5,#0
        0x000006d6:    dadf        ..      BGE      0x698 ; ble_generate_packet + 1166
        0x000006d8:    1c60        `.      ADDS     r0,r4,#1
        0x000006da:    b2c4        ..      UXTB     r4,r0
        0x000006dc:    2c2a        *,      CMP      r4,#0x2a
        0x000006de:    dbd9        ..      BLT      0x694 ; ble_generate_packet + 1162
        0x000006e0:    2120         !      MOVS     r1,#0x20
        0x000006e2:    0209        ..      LSLS     r1,r1,#8
        0x000006e4:    3100        .1      ADDS     r1,#0
        0x000006e6:    0209        ..      LSLS     r1,r1,#8
        0x000006e8:    3100        .1      ADDS     r1,#0
        0x000006ea:    0209        ..      LSLS     r1,r1,#8
        0x000006ec:    31b8        .1      ADDS     r1,r1,#0xb8
        0x000006ee:    19c8        ..      ADDS     r0,r1,r7
        0x000006f0:    222a        *"      MOVS     r2,#0x2a
        0x000006f2:    a909        ..      ADD      r1,sp,#0x24
        0x000006f4:    f004fbcc    ....    BL       __aeabi_memcpy ; 0x4e90
        0x000006f8:    b017        ..      ADD      sp,sp,#0x5c
        0x000006fa:    bdf0        ..      POP      {r4-r7,pc}
    ble_gen_test_packet
        0x000006fc:    b510        ..      PUSH     {r4,lr}
        0x000006fe:    2400        .$      MOVS     r4,#0
        0x00000700:    2140        @!      MOVS     r1,#0x40
        0x00000702:    2020                MOVS     r0,#0x20
        0x00000704:    0200        ..      LSLS     r0,r0,#8
        0x00000706:    3000        .0      ADDS     r0,#0
        0x00000708:    0200        ..      LSLS     r0,r0,#8
        0x0000070a:    3000        .0      ADDS     r0,#0
        0x0000070c:    0200        ..      LSLS     r0,r0,#8
        0x0000070e:    30b8        .0      ADDS     r0,r0,#0xb8
        0x00000710:    f004fc1d    ....    BL       __aeabi_memclr4 ; 0x4f4e
        0x00000714:    221d        ."      MOVS     r2,#0x1d
        0x00000716:    4621        !F      MOV      r1,r4
        0x00000718:    1c64        d.      ADDS     r4,r4,#1
        0x0000071a:    2020                MOVS     r0,#0x20
        0x0000071c:    0200        ..      LSLS     r0,r0,#8
        0x0000071e:    3000        .0      ADDS     r0,#0
        0x00000720:    0200        ..      LSLS     r0,r0,#8
        0x00000722:    3000        .0      ADDS     r0,#0
        0x00000724:    0200        ..      LSLS     r0,r0,#8
        0x00000726:    30b8        .0      ADDS     r0,r0,#0xb8
        0x00000728:    5442        BT      STRB     r2,[r0,r1]
        0x0000072a:    2255        U"      MOVS     r2,#0x55
        0x0000072c:    4621        !F      MOV      r1,r4
        0x0000072e:    1c64        d.      ADDS     r4,r4,#1
        0x00000730:    5442        BT      STRB     r2,[r0,r1]
        0x00000732:    22ad        ."      MOVS     r2,#0xad
        0x00000734:    4621        !F      MOV      r1,r4
        0x00000736:    1c64        d.      ADDS     r4,r4,#1
        0x00000738:    5442        BT      STRB     r2,[r0,r1]
        0x0000073a:    22f6        ."      MOVS     r2,#0xf6
        0x0000073c:    4621        !F      MOV      r1,r4
        0x0000073e:    1c64        d.      ADDS     r4,r4,#1
        0x00000740:    5442        BT      STRB     r2,[r0,r1]
        0x00000742:    2245        E"      MOVS     r2,#0x45
        0x00000744:    4621        !F      MOV      r1,r4
        0x00000746:    1c64        d.      ADDS     r4,r4,#1
        0x00000748:    5442        BT      STRB     r2,[r0,r1]
        0x0000074a:    22c7        ."      MOVS     r2,#0xc7
        0x0000074c:    4621        !F      MOV      r1,r4
        0x0000074e:    1c64        d.      ADDS     r4,r4,#1
        0x00000750:    5442        BT      STRB     r2,[r0,r1]
        0x00000752:    22c5        ."      MOVS     r2,#0xc5
        0x00000754:    4621        !F      MOV      r1,r4
        0x00000756:    1c64        d.      ADDS     r4,r4,#1
        0x00000758:    5442        BT      STRB     r2,[r0,r1]
        0x0000075a:    220e        ."      MOVS     r2,#0xe
        0x0000075c:    4620         F      MOV      r0,r4
        0x0000075e:    1c61        a.      ADDS     r1,r4,#1
        0x00000760:    b2cc        ..      UXTB     r4,r1
        0x00000762:    2120         !      MOVS     r1,#0x20
        0x00000764:    0209        ..      LSLS     r1,r1,#8
        0x00000766:    3100        .1      ADDS     r1,#0
        0x00000768:    0209        ..      LSLS     r1,r1,#8
        0x0000076a:    3100        .1      ADDS     r1,#0
        0x0000076c:    0209        ..      LSLS     r1,r1,#8
        0x0000076e:    31b8        .1      ADDS     r1,r1,#0xb8
        0x00000770:    540a        .T      STRB     r2,[r1,r0]
        0x00000772:    2226        &"      MOVS     r2,#0x26
        0x00000774:    4620         F      MOV      r0,r4
        0x00000776:    1c61        a.      ADDS     r1,r4,#1
        0x00000778:    b2cc        ..      UXTB     r4,r1
        0x0000077a:    2120         !      MOVS     r1,#0x20
        0x0000077c:    0209        ..      LSLS     r1,r1,#8
        0x0000077e:    3100        .1      ADDS     r1,#0
        0x00000780:    0209        ..      LSLS     r1,r1,#8
        0x00000782:    3100        .1      ADDS     r1,#0
        0x00000784:    0209        ..      LSLS     r1,r1,#8
        0x00000786:    31b8        .1      ADDS     r1,r1,#0xb8
        0x00000788:    540a        .T      STRB     r2,[r1,r0]
        0x0000078a:    2213        ."      MOVS     r2,#0x13
        0x0000078c:    4620         F      MOV      r0,r4
        0x0000078e:    1c61        a.      ADDS     r1,r4,#1
        0x00000790:    b2cc        ..      UXTB     r4,r1
        0x00000792:    2120         !      MOVS     r1,#0x20
        0x00000794:    0209        ..      LSLS     r1,r1,#8
        0x00000796:    3100        .1      ADDS     r1,#0
        0x00000798:    0209        ..      LSLS     r1,r1,#8
        0x0000079a:    3100        .1      ADDS     r1,#0
        0x0000079c:    0209        ..      LSLS     r1,r1,#8
        0x0000079e:    31b8        .1      ADDS     r1,r1,#0xb8
        0x000007a0:    540a        .T      STRB     r2,[r1,r0]
        0x000007a2:    22c2        ."      MOVS     r2,#0xc2
        0x000007a4:    4620         F      MOV      r0,r4
        0x000007a6:    1c61        a.      ADDS     r1,r4,#1
        0x000007a8:    b2cc        ..      UXTB     r4,r1
        0x000007aa:    2120         !      MOVS     r1,#0x20
        0x000007ac:    0209        ..      LSLS     r1,r1,#8
        0x000007ae:    3100        .1      ADDS     r1,#0
        0x000007b0:    0209        ..      LSLS     r1,r1,#8
        0x000007b2:    3100        .1      ADDS     r1,#0
        0x000007b4:    0209        ..      LSLS     r1,r1,#8
        0x000007b6:    31b8        .1      ADDS     r1,r1,#0xb8
        0x000007b8:    540a        .T      STRB     r2,[r1,r0]
        0x000007ba:    22ac        ."      MOVS     r2,#0xac
        0x000007bc:    4620         F      MOV      r0,r4
        0x000007be:    1c61        a.      ADDS     r1,r4,#1
        0x000007c0:    b2cc        ..      UXTB     r4,r1
        0x000007c2:    2120         !      MOVS     r1,#0x20
        0x000007c4:    0209        ..      LSLS     r1,r1,#8
        0x000007c6:    3100        .1      ADDS     r1,#0
        0x000007c8:    0209        ..      LSLS     r1,r1,#8
        0x000007ca:    3100        .1      ADDS     r1,#0
        0x000007cc:    0209        ..      LSLS     r1,r1,#8
        0x000007ce:    31b8        .1      ADDS     r1,r1,#0xb8
        0x000007d0:    540a        .T      STRB     r2,[r1,r0]
        0x000007d2:    2298        ."      MOVS     r2,#0x98
        0x000007d4:    4620         F      MOV      r0,r4
        0x000007d6:    1c61        a.      ADDS     r1,r4,#1
        0x000007d8:    b2cc        ..      UXTB     r4,r1
        0x000007da:    2120         !      MOVS     r1,#0x20
        0x000007dc:    0209        ..      LSLS     r1,r1,#8
        0x000007de:    3100        .1      ADDS     r1,#0
        0x000007e0:    0209        ..      LSLS     r1,r1,#8
        0x000007e2:    3100        .1      ADDS     r1,#0
        0x000007e4:    0209        ..      LSLS     r1,r1,#8
        0x000007e6:    31b8        .1      ADDS     r1,r1,#0xb8
        0x000007e8:    540a        .T      STRB     r2,[r1,r0]
        0x000007ea:    2237        7"      MOVS     r2,#0x37
        0x000007ec:    4620         F      MOV      r0,r4
        0x000007ee:    1c61        a.      ADDS     r1,r4,#1
        0x000007f0:    b2cc        ..      UXTB     r4,r1
        0x000007f2:    2120         !      MOVS     r1,#0x20
        0x000007f4:    0209        ..      LSLS     r1,r1,#8
        0x000007f6:    3100        .1      ADDS     r1,#0
        0x000007f8:    0209        ..      LSLS     r1,r1,#8
        0x000007fa:    3100        .1      ADDS     r1,#0
        0x000007fc:    0209        ..      LSLS     r1,r1,#8
        0x000007fe:    31b8        .1      ADDS     r1,r1,#0xb8
        0x00000800:    540a        .T      STRB     r2,[r1,r0]
        0x00000802:    22b8        ."      MOVS     r2,#0xb8
        0x00000804:    4620         F      MOV      r0,r4
        0x00000806:    1c61        a.      ADDS     r1,r4,#1
        0x00000808:    b2cc        ..      UXTB     r4,r1
        0x0000080a:    2120         !      MOVS     r1,#0x20
        0x0000080c:    0209        ..      LSLS     r1,r1,#8
        0x0000080e:    3100        .1      ADDS     r1,#0
        0x00000810:    0209        ..      LSLS     r1,r1,#8
        0x00000812:    3100        .1      ADDS     r1,#0
        0x00000814:    0209        ..      LSLS     r1,r1,#8
        0x00000816:    31b8        .1      ADDS     r1,r1,#0xb8
        0x00000818:    540a        .T      STRB     r2,[r1,r0]
        0x0000081a:    2230        0"      MOVS     r2,#0x30
        0x0000081c:    4620         F      MOV      r0,r4
        0x0000081e:    1c61        a.      ADDS     r1,r4,#1
        0x00000820:    b2cc        ..      UXTB     r4,r1
        0x00000822:    2120         !      MOVS     r1,#0x20
        0x00000824:    0209        ..      LSLS     r1,r1,#8
        0x00000826:    3100        .1      ADDS     r1,#0
        0x00000828:    0209        ..      LSLS     r1,r1,#8
        0x0000082a:    3100        .1      ADDS     r1,#0
        0x0000082c:    0209        ..      LSLS     r1,r1,#8
        0x0000082e:    31b8        .1      ADDS     r1,r1,#0xb8
        0x00000830:    540a        .T      STRB     r2,[r1,r0]
        0x00000832:    22a1        ."      MOVS     r2,#0xa1
        0x00000834:    4620         F      MOV      r0,r4
        0x00000836:    1c61        a.      ADDS     r1,r4,#1
        0x00000838:    b2cc        ..      UXTB     r4,r1
        0x0000083a:    2120         !      MOVS     r1,#0x20
        0x0000083c:    0209        ..      LSLS     r1,r1,#8
        0x0000083e:    3100        .1      ADDS     r1,#0
        0x00000840:    0209        ..      LSLS     r1,r1,#8
        0x00000842:    3100        .1      ADDS     r1,#0
        0x00000844:    0209        ..      LSLS     r1,r1,#8
        0x00000846:    31b8        .1      ADDS     r1,r1,#0xb8
        0x00000848:    540a        .T      STRB     r2,[r1,r0]
        0x0000084a:    22c9        ."      MOVS     r2,#0xc9
        0x0000084c:    4620         F      MOV      r0,r4
        0x0000084e:    1c61        a.      ADDS     r1,r4,#1
        0x00000850:    b2cc        ..      UXTB     r4,r1
        0x00000852:    2120         !      MOVS     r1,#0x20
        0x00000854:    0209        ..      LSLS     r1,r1,#8
        0x00000856:    3100        .1      ADDS     r1,#0
        0x00000858:    0209        ..      LSLS     r1,r1,#8
        0x0000085a:    3100        .1      ADDS     r1,#0
        0x0000085c:    0209        ..      LSLS     r1,r1,#8
        0x0000085e:    31b8        .1      ADDS     r1,r1,#0xb8
        0x00000860:    540a        .T      STRB     r2,[r1,r0]
        0x00000862:    22e4        ."      MOVS     r2,#0xe4
        0x00000864:    4620         F      MOV      r0,r4
        0x00000866:    1c61        a.      ADDS     r1,r4,#1
        0x00000868:    b2cc        ..      UXTB     r4,r1
        0x0000086a:    2120         !      MOVS     r1,#0x20
        0x0000086c:    0209        ..      LSLS     r1,r1,#8
        0x0000086e:    3100        .1      ADDS     r1,#0
        0x00000870:    0209        ..      LSLS     r1,r1,#8
        0x00000872:    3100        .1      ADDS     r1,#0
        0x00000874:    0209        ..      LSLS     r1,r1,#8
        0x00000876:    31b8        .1      ADDS     r1,r1,#0xb8
        0x00000878:    540a        .T      STRB     r2,[r1,r0]
        0x0000087a:    2293        ."      MOVS     r2,#0x93
        0x0000087c:    4620         F      MOV      r0,r4
        0x0000087e:    1c61        a.      ADDS     r1,r4,#1
        0x00000880:    b2cc        ..      UXTB     r4,r1
        0x00000882:    2120         !      MOVS     r1,#0x20
        0x00000884:    0209        ..      LSLS     r1,r1,#8
        0x00000886:    3100        .1      ADDS     r1,#0
        0x00000888:    0209        ..      LSLS     r1,r1,#8
        0x0000088a:    3100        .1      ADDS     r1,#0
        0x0000088c:    0209        ..      LSLS     r1,r1,#8
        0x0000088e:    31b8        .1      ADDS     r1,r1,#0xb8
        0x00000890:    540a        .T      STRB     r2,[r1,r0]
        0x00000892:    2275        u"      MOVS     r2,#0x75
        0x00000894:    4620         F      MOV      r0,r4
        0x00000896:    1c61        a.      ADDS     r1,r4,#1
        0x00000898:    b2cc        ..      UXTB     r4,r1
        0x0000089a:    2120         !      MOVS     r1,#0x20
        0x0000089c:    0209        ..      LSLS     r1,r1,#8
        0x0000089e:    3100        .1      ADDS     r1,#0
        0x000008a0:    0209        ..      LSLS     r1,r1,#8
        0x000008a2:    3100        .1      ADDS     r1,#0
        0x000008a4:    0209        ..      LSLS     r1,r1,#8
        0x000008a6:    31b8        .1      ADDS     r1,r1,#0xb8
        0x000008a8:    540a        .T      STRB     r2,[r1,r0]
        0x000008aa:    22b7        ."      MOVS     r2,#0xb7
        0x000008ac:    4620         F      MOV      r0,r4
        0x000008ae:    1c61        a.      ADDS     r1,r4,#1
        0x000008b0:    b2cc        ..      UXTB     r4,r1
        0x000008b2:    2120         !      MOVS     r1,#0x20
        0x000008b4:    0209        ..      LSLS     r1,r1,#8
        0x000008b6:    3100        .1      ADDS     r1,#0
        0x000008b8:    0209        ..      LSLS     r1,r1,#8
        0x000008ba:    3100        .1      ADDS     r1,#0
        0x000008bc:    0209        ..      LSLS     r1,r1,#8
        0x000008be:    31b8        .1      ADDS     r1,r1,#0xb8
        0x000008c0:    540a        .T      STRB     r2,[r1,r0]
        0x000008c2:    2241        A"      MOVS     r2,#0x41
        0x000008c4:    4620         F      MOV      r0,r4
        0x000008c6:    1c61        a.      ADDS     r1,r4,#1
        0x000008c8:    b2cc        ..      UXTB     r4,r1
        0x000008ca:    2120         !      MOVS     r1,#0x20
        0x000008cc:    0209        ..      LSLS     r1,r1,#8
        0x000008ce:    3100        .1      ADDS     r1,#0
        0x000008d0:    0209        ..      LSLS     r1,r1,#8
        0x000008d2:    3100        .1      ADDS     r1,#0
        0x000008d4:    0209        ..      LSLS     r1,r1,#8
        0x000008d6:    31b8        .1      ADDS     r1,r1,#0xb8
        0x000008d8:    540a        .T      STRB     r2,[r1,r0]
        0x000008da:    226c        l"      MOVS     r2,#0x6c
        0x000008dc:    4620         F      MOV      r0,r4
        0x000008de:    1c61        a.      ADDS     r1,r4,#1
        0x000008e0:    b2cc        ..      UXTB     r4,r1
        0x000008e2:    2120         !      MOVS     r1,#0x20
        0x000008e4:    0209        ..      LSLS     r1,r1,#8
        0x000008e6:    3100        .1      ADDS     r1,#0
        0x000008e8:    0209        ..      LSLS     r1,r1,#8
        0x000008ea:    3100        .1      ADDS     r1,#0
        0x000008ec:    0209        ..      LSLS     r1,r1,#8
        0x000008ee:    31b8        .1      ADDS     r1,r1,#0xb8
        0x000008f0:    540a        .T      STRB     r2,[r1,r0]
        0x000008f2:    22d1        ."      MOVS     r2,#0xd1
        0x000008f4:    4620         F      MOV      r0,r4
        0x000008f6:    1c61        a.      ADDS     r1,r4,#1
        0x000008f8:    b2cc        ..      UXTB     r4,r1
        0x000008fa:    2120         !      MOVS     r1,#0x20
        0x000008fc:    0209        ..      LSLS     r1,r1,#8
        0x000008fe:    3100        .1      ADDS     r1,#0
        0x00000900:    0209        ..      LSLS     r1,r1,#8
        0x00000902:    3100        .1      ADDS     r1,#0
        0x00000904:    0209        ..      LSLS     r1,r1,#8
        0x00000906:    31b8        .1      ADDS     r1,r1,#0xb8
        0x00000908:    540a        .T      STRB     r2,[r1,r0]
        0x0000090a:    222d        -"      MOVS     r2,#0x2d
        0x0000090c:    4620         F      MOV      r0,r4
        0x0000090e:    1c61        a.      ADDS     r1,r4,#1
        0x00000910:    b2cc        ..      UXTB     r4,r1
        0x00000912:    2120         !      MOVS     r1,#0x20
        0x00000914:    0209        ..      LSLS     r1,r1,#8
        0x00000916:    3100        .1      ADDS     r1,#0
        0x00000918:    0209        ..      LSLS     r1,r1,#8
        0x0000091a:    3100        .1      ADDS     r1,#0
        0x0000091c:    0209        ..      LSLS     r1,r1,#8
        0x0000091e:    31b8        .1      ADDS     r1,r1,#0xb8
        0x00000920:    540a        .T      STRB     r2,[r1,r0]
        0x00000922:    22b8        ."      MOVS     r2,#0xb8
        0x00000924:    4620         F      MOV      r0,r4
        0x00000926:    1c61        a.      ADDS     r1,r4,#1
        0x00000928:    b2cc        ..      UXTB     r4,r1
        0x0000092a:    2120         !      MOVS     r1,#0x20
        0x0000092c:    0209        ..      LSLS     r1,r1,#8
        0x0000092e:    3100        .1      ADDS     r1,#0
        0x00000930:    0209        ..      LSLS     r1,r1,#8
        0x00000932:    3100        .1      ADDS     r1,#0
        0x00000934:    0209        ..      LSLS     r1,r1,#8
        0x00000936:    31b8        .1      ADDS     r1,r1,#0xb8
        0x00000938:    540a        .T      STRB     r2,[r1,r0]
        0x0000093a:    bd10        ..      POP      {r4,pc}
    ble_set_advertiser_address
        0x0000093c:    b510        ..      PUSH     {r4,lr}
        0x0000093e:    4604        .F      MOV      r4,r0
        0x00000940:    2206        ."      MOVS     r2,#6
        0x00000942:    4621        !F      MOV      r1,r4
        0x00000944:    2020                MOVS     r0,#0x20
        0x00000946:    0200        ..      LSLS     r0,r0,#8
        0x00000948:    3000        .0      ADDS     r0,#0
        0x0000094a:    0200        ..      LSLS     r0,r0,#8
        0x0000094c:    3000        .0      ADDS     r0,#0
        0x0000094e:    0200        ..      LSLS     r0,r0,#8
        0x00000950:    30f8        .0      ADDS     r0,r0,#0xf8
        0x00000952:    f004fa9d    ....    BL       __aeabi_memcpy ; 0x4e90
        0x00000956:    bd10        ..      POP      {r4,pc}
    ble_set_channel
        0x00000958:    2120         !      MOVS     r1,#0x20
        0x0000095a:    0209        ..      LSLS     r1,r1,#8
        0x0000095c:    3100        .1      ADDS     r1,#0
        0x0000095e:    0209        ..      LSLS     r1,r1,#8
        0x00000960:    3100        .1      ADDS     r1,#0
        0x00000962:    0209        ..      LSLS     r1,r1,#8
        0x00000964:    31f8        .1      ADDS     r1,r1,#0xf8
        0x00000966:    7188        .q      STRB     r0,[r1,#6]
        0x00000968:    4770        pG      BX       lr
    ble_set_name_tx_en
        0x0000096a:    2120         !      MOVS     r1,#0x20
        0x0000096c:    0209        ..      LSLS     r1,r1,#8
        0x0000096e:    3100        .1      ADDS     r1,#0
        0x00000970:    0209        ..      LSLS     r1,r1,#8
        0x00000972:    3100        .1      ADDS     r1,#0
        0x00000974:    0209        ..      LSLS     r1,r1,#8
        0x00000976:    31f8        .1      ADDS     r1,r1,#0xf8
        0x00000978:    71c8        .q      STRB     r0,[r1,#7]
        0x0000097a:    4770        pG      BX       lr
    ble_set_name
        0x0000097c:    b510        ..      PUSH     {r4,lr}
        0x0000097e:    4604        .F      MOV      r4,r0
        0x00000980:    2205        ."      MOVS     r2,#5
        0x00000982:    4621        !F      MOV      r1,r4
        0x00000984:    2020                MOVS     r0,#0x20
        0x00000986:    0200        ..      LSLS     r0,r0,#8
        0x00000988:    3000        .0      ADDS     r0,#0
        0x0000098a:    0200        ..      LSLS     r0,r0,#8
        0x0000098c:    3001        .0      ADDS     r0,#1
        0x0000098e:    0200        ..      LSLS     r0,r0,#8
        0x00000990:    3004        .0      ADDS     r0,#4
        0x00000992:    f004fa7d    ..}.    BL       __aeabi_memcpy ; 0x4e90
        0x00000996:    bd10        ..      POP      {r4,pc}
    ble_set_tuning_code_tx_en
        0x00000998:    2120         !      MOVS     r1,#0x20
        0x0000099a:    0209        ..      LSLS     r1,r1,#8
        0x0000099c:    3100        .1      ADDS     r1,#0
        0x0000099e:    0209        ..      LSLS     r1,r1,#8
        0x000009a0:    3100        .1      ADDS     r1,#0
        0x000009a2:    0209        ..      LSLS     r1,r1,#8
        0x000009a4:    31f8        .1      ADDS     r1,r1,#0xf8
        0x000009a6:    7208        .r      STRB     r0,[r1,#8]
        0x000009a8:    4770        pG      BX       lr
    ble_set_tuning_code
        0x000009aa:    b510        ..      PUSH     {r4,lr}
        0x000009ac:    4604        .F      MOV      r4,r0
        0x000009ae:    2203        ."      MOVS     r2,#3
        0x000009b0:    4621        !F      MOV      r1,r4
        0x000009b2:    2020                MOVS     r0,#0x20
        0x000009b4:    0200        ..      LSLS     r0,r0,#8
        0x000009b6:    3000        .0      ADDS     r0,#0
        0x000009b8:    0200        ..      LSLS     r0,r0,#8
        0x000009ba:    3001        .0      ADDS     r0,#1
        0x000009bc:    0200        ..      LSLS     r0,r0,#8
        0x000009be:    3009        .0      ADDS     r0,r0,#9
        0x000009c0:    f004fa66    ..f.    BL       __aeabi_memcpy ; 0x4e90
        0x000009c4:    bd10        ..      POP      {r4,pc}
    ble_set_counters_tx_en
        0x000009c6:    2120         !      MOVS     r1,#0x20
        0x000009c8:    0209        ..      LSLS     r1,r1,#8
        0x000009ca:    3100        .1      ADDS     r1,#0
        0x000009cc:    0209        ..      LSLS     r1,r1,#8
        0x000009ce:    3100        .1      ADDS     r1,#0
        0x000009d0:    0209        ..      LSLS     r1,r1,#8
        0x000009d2:    31f8        .1      ADDS     r1,r1,#0xf8
        0x000009d4:    7248        Hr      STRB     r0,[r1,#9]
        0x000009d6:    4770        pG      BX       lr
    ble_set_count_2M
        0x000009d8:    2120         !      MOVS     r1,#0x20
        0x000009da:    0209        ..      LSLS     r1,r1,#8
        0x000009dc:    3100        .1      ADDS     r1,#0
        0x000009de:    0209        ..      LSLS     r1,r1,#8
        0x000009e0:    3100        .1      ADDS     r1,#0
        0x000009e2:    0209        ..      LSLS     r1,r1,#8
        0x000009e4:    31b8        .1      ADDS     r1,r1,#0xb8
        0x000009e6:    6548        He      STR      r0,[r1,#0x54]
        0x000009e8:    4770        pG      BX       lr
    ble_set_count_32k
        0x000009ea:    2120         !      MOVS     r1,#0x20
        0x000009ec:    0209        ..      LSLS     r1,r1,#8
        0x000009ee:    3100        .1      ADDS     r1,#0
        0x000009f0:    0209        ..      LSLS     r1,r1,#8
        0x000009f2:    3100        .1      ADDS     r1,#0
        0x000009f4:    0209        ..      LSLS     r1,r1,#8
        0x000009f6:    31b8        .1      ADDS     r1,r1,#0xb8
        0x000009f8:    6588        .e      STR      r0,[r1,#0x58]
        0x000009fa:    4770        pG      BX       lr
    ble_set_temperature_tx_en
        0x000009fc:    2120         !      MOVS     r1,#0x20
        0x000009fe:    0209        ..      LSLS     r1,r1,#8
        0x00000a00:    3100        .1      ADDS     r1,#0
        0x00000a02:    0209        ..      LSLS     r1,r1,#8
        0x00000a04:    3100        .1      ADDS     r1,#0
        0x00000a06:    0209        ..      LSLS     r1,r1,#8
        0x00000a08:    31f8        .1      ADDS     r1,r1,#0xf8
        0x00000a0a:    7288        .r      STRB     r0,[r1,#0xa]
        0x00000a0c:    4770        pG      BX       lr
    ble_set_temperature
        0x00000a0e:    2220         "      MOVS     r2,#0x20
        0x00000a10:    0212        ..      LSLS     r2,r2,#8
        0x00000a12:    3200        .2      ADDS     r2,#0
        0x00000a14:    0212        ..      LSLS     r2,r2,#8
        0x00000a16:    3200        .2      ADDS     r2,#0
        0x00000a18:    0212        ..      LSLS     r2,r2,#8
        0x00000a1a:    32b8        .2      ADDS     r2,r2,#0xb8
        0x00000a1c:    6651        Qf      STR      r1,[r2,#0x64]
        0x00000a1e:    6610        .f      STR      r0,[r2,#0x60]
        0x00000a20:    4770        pG      BX       lr
    ble_set_data_tx_en
        0x00000a22:    2120         !      MOVS     r1,#0x20
        0x00000a24:    0209        ..      LSLS     r1,r1,#8
        0x00000a26:    3100        .1      ADDS     r1,#0
        0x00000a28:    0209        ..      LSLS     r1,r1,#8
        0x00000a2a:    3100        .1      ADDS     r1,#0
        0x00000a2c:    0209        ..      LSLS     r1,r1,#8
        0x00000a2e:    31f8        .1      ADDS     r1,r1,#0xf8
        0x00000a30:    72c8        .r      STRB     r0,[r1,#0xb]
        0x00000a32:    4770        pG      BX       lr
    ble_set_data
        0x00000a34:    b510        ..      PUSH     {r4,lr}
        0x00000a36:    4604        .F      MOV      r4,r0
        0x00000a38:    2204        ."      MOVS     r2,#4
        0x00000a3a:    4621        !F      MOV      r1,r4
        0x00000a3c:    2020                MOVS     r0,#0x20
        0x00000a3e:    0200        ..      LSLS     r0,r0,#8
        0x00000a40:    3000        .0      ADDS     r0,#0
        0x00000a42:    0200        ..      LSLS     r0,r0,#8
        0x00000a44:    3001        .0      ADDS     r0,#1
        0x00000a46:    0200        ..      LSLS     r0,r0,#8
        0x00000a48:    3020         0      ADDS     r0,r0,#0x20
        0x00000a4a:    f004fa21    ..!.    BL       __aeabi_memcpy ; 0x4e90
        0x00000a4e:    bd10        ..      POP      {r4,pc}
    ble_init_tx
        0x00000a50:    b510        ..      PUSH     {r4,lr}
        0x00000a52:    20f9        .       MOVS     r0,#0xf9
        0x00000a54:    0080        ..      LSLS     r0,r0,#2
        0x00000a56:    f002fd66    ..f.    BL       set_asc_bit ; 0x3526
        0x00000a5a:    2003        .       MOVS     r0,#3
        0x00000a5c:    0200        ..      LSLS     r0,r0,#8
        0x00000a5e:    30e5        .0      ADDS     r0,r0,#0xe5
        0x00000a60:    f002fd45    ..E.    BL       clear_asc_bit ; 0x34ee
        0x00000a64:    2003        .       MOVS     r0,#3
        0x00000a66:    0200        ..      LSLS     r0,r0,#8
        0x00000a68:    30e6        .0      ADDS     r0,r0,#0xe6
        0x00000a6a:    f002fd40    ..@.    BL       clear_asc_bit ; 0x34ee
        0x00000a6e:    2003        .       MOVS     r0,#3
        0x00000a70:    0200        ..      LSLS     r0,r0,#8
        0x00000a72:    30e7        .0      ADDS     r0,r0,#0xe7
        0x00000a74:    f002fd3b    ..;.    BL       clear_asc_bit ; 0x34ee
        0x00000a78:    207d        }       MOVS     r0,#0x7d
        0x00000a7a:    00c0        ..      LSLS     r0,r0,#3
        0x00000a7c:    f002fd37    ..7.    BL       clear_asc_bit ; 0x34ee
        0x00000a80:    2003        .       MOVS     r0,#3
        0x00000a82:    0200        ..      LSLS     r0,r0,#8
        0x00000a84:    30e9        .0      ADDS     r0,r0,#0xe9
        0x00000a86:    f002fd32    ..2.    BL       clear_asc_bit ; 0x34ee
        0x00000a8a:    2003        .       MOVS     r0,#3
        0x00000a8c:    0200        ..      LSLS     r0,r0,#8
        0x00000a8e:    30ea        .0      ADDS     r0,r0,#0xea
        0x00000a90:    f002fd2d    ..-.    BL       clear_asc_bit ; 0x34ee
        0x00000a94:    2003        .       MOVS     r0,#3
        0x00000a96:    0200        ..      LSLS     r0,r0,#8
        0x00000a98:    30eb        .0      ADDS     r0,r0,#0xeb
        0x00000a9a:    f002fd28    ..(.    BL       clear_asc_bit ; 0x34ee
        0x00000a9e:    2003        .       MOVS     r0,#3
        0x00000aa0:    0200        ..      LSLS     r0,r0,#8
        0x00000aa2:    30f5        .0      ADDS     r0,r0,#0xf5
        0x00000aa4:    f002fd3f    ..?.    BL       set_asc_bit ; 0x3526
        0x00000aa8:    2004        .       MOVS     r0,#4
        0x00000aaa:    0200        ..      LSLS     r0,r0,#8
        0x00000aac:    3011        .0      ADDS     r0,r0,#0x11
        0x00000aae:    f002fd3a    ..:.    BL       set_asc_bit ; 0x3526
        0x00000ab2:    2004        .       MOVS     r0,#4
        0x00000ab4:    0200        ..      LSLS     r0,r0,#8
        0x00000ab6:    3012        .0      ADDS     r0,r0,#0x12
        0x00000ab8:    f002fd35    ..5.    BL       set_asc_bit ; 0x3526
        0x00000abc:    20f1        .       MOVS     r0,#0xf1
        0x00000abe:    0080        ..      LSLS     r0,r0,#2
        0x00000ac0:    f002fd15    ....    BL       clear_asc_bit ; 0x34ee
        0x00000ac4:    2004        .       MOVS     r0,#4
        0x00000ac6:    0200        ..      LSLS     r0,r0,#8
        0x00000ac8:    3039        90      ADDS     r0,r0,#0x39
        0x00000aca:    f002fd10    ....    BL       clear_asc_bit ; 0x34ee
        0x00000ace:    2000        .       MOVS     r0,#0
        0x00000ad0:    2152        R!      MOVS     r1,#0x52
        0x00000ad2:    0209        ..      LSLS     r1,r1,#8
        0x00000ad4:    312c        ,1      ADDS     r1,r1,#0x2c
        0x00000ad6:    0409        ..      LSLS     r1,r1,#16
        0x00000ad8:    6008        .`      STR      r0,[r1,#0]
        0x00000ada:    207f        .       MOVS     r0,#0x7f
        0x00000adc:    f003faf8    ....    BL       set_LC_current ; 0x40d0
        0x00000ae0:    207f        .       MOVS     r0,#0x7f
        0x00000ae2:    f003fada    ....    BL       set_PA_supply ; 0x409a
        0x00000ae6:    2100        .!      MOVS     r1,#0
        0x00000ae8:    203f        ?       MOVS     r0,#0x3f
        0x00000aea:    f003fab8    ....    BL       set_LO_supply ; 0x405e
        0x00000aee:    bd10        ..      POP      {r4,pc}
    ble_init_rx
        0x00000af0:    b510        ..      PUSH     {r4,lr}
        0x00000af2:    f003fa16    ....    BL       radio_init_rx_ZCC ; 0x3f22
        0x00000af6:    20ff        .       MOVS     r0,#0xff
        0x00000af8:    30a9        .0      ADDS     r0,r0,#0xa9
        0x00000afa:    f002fcf8    ....    BL       clear_asc_bit ; 0x34ee
        0x00000afe:    20ff        .       MOVS     r0,#0xff
        0x00000b00:    30aa        .0      ADDS     r0,r0,#0xaa
        0x00000b02:    f002fd10    ....    BL       set_asc_bit ; 0x3526
        0x00000b06:    20ff        .       MOVS     r0,#0xff
        0x00000b08:    30a7        .0      ADDS     r0,r0,#0xa7
        0x00000b0a:    f002fd0c    ....    BL       set_asc_bit ; 0x3526
        0x00000b0e:    213f        ?!      MOVS     r1,#0x3f
        0x00000b10:    4608        .F      MOV      r0,r1
        0x00000b12:    f003f8f1    ....    BL       set_IF_gain_ASC ; 0x3cf8
        0x00000b16:    2107        .!      MOVS     r1,#7
        0x00000b18:    4608        .F      MOV      r0,r1
        0x00000b1a:    f003f866    ..f.    BL       set_IF_stg3gm_ASC ; 0x3bea
        0x00000b1e:    204c        L       MOVS     r0,#0x4c
        0x00000b20:    f003f835    ..5.    BL       set_IF_ZCC_clkdiv ; 0x3b8e
        0x00000b24:    207b        {       MOVS     r0,#0x7b
        0x00000b26:    f002fce2    ....    BL       clear_asc_bit ; 0x34ee
        0x00000b2a:    205d        ]       MOVS     r0,#0x5d
        0x00000b2c:    00c0        ..      LSLS     r0,r0,#3
        0x00000b2e:    f002fcfa    ....    BL       set_asc_bit ; 0x3526
        0x00000b32:    2002        .       MOVS     r0,#2
        0x00000b34:    0200        ..      LSLS     r0,r0,#8
        0x00000b36:    30e9        .0      ADDS     r0,r0,#0xe9
        0x00000b38:    f002fcf5    ....    BL       set_asc_bit ; 0x3526
        0x00000b3c:    2002        .       MOVS     r0,#2
        0x00000b3e:    0200        ..      LSLS     r0,r0,#8
        0x00000b40:    30ea        .0      ADDS     r0,r0,#0xea
        0x00000b42:    f002fcf0    ....    BL       set_asc_bit ; 0x3526
        0x00000b46:    2001        .       MOVS     r0,#1
        0x00000b48:    2152        R!      MOVS     r1,#0x52
        0x00000b4a:    0209        ..      LSLS     r1,r1,#8
        0x00000b4c:    3140        @1      ADDS     r1,r1,#0x40
        0x00000b4e:    0409        ..      LSLS     r1,r1,#16
        0x00000b50:    6008        .`      STR      r0,[r1,#0]
        0x00000b52:    bd10        ..      POP      {r4,pc}
    ble_transmit
        0x00000b54:    b510        ..      PUSH     {r4,lr}
        0x00000b56:    f000f81f    ....    BL       ble_load_tx_arb_fifo ; 0xb98
        0x00000b5a:    f000fd41    ..A.    BL       radio_txEnable ; 0x15e0
        0x00000b5e:    2000        .       MOVS     r0,#0
        0x00000b60:    e000        ..      B        0xb64 ; ble_transmit + 16
        0x00000b62:    1c40        @.      ADDS     r0,r0,#1
        0x00000b64:    2832        2(      CMP      r0,#0x32
        0x00000b66:    d3fc        ..      BCC      0xb62 ; ble_transmit + 14
        0x00000b68:    bf00        ..      NOP      
        0x00000b6a:    2000        .       MOVS     r0,#0
        0x00000b6c:    2110        .!      MOVS     r1,#0x10
        0x00000b6e:    4308        .C      ORRS     r0,r0,r1
        0x00000b70:    0840        @.      LSRS     r0,r0,#1
        0x00000b72:    0040        @.      LSLS     r0,r0,#1
        0x00000b74:    2104        .!      MOVS     r1,#4
        0x00000b76:    4308        .C      ORRS     r0,r0,r1
        0x00000b78:    2120         !      MOVS     r1,#0x20
        0x00000b7a:    4308        .C      ORRS     r0,r0,r1
        0x00000b7c:    2152        R!      MOVS     r1,#0x52
        0x00000b7e:    0209        ..      LSLS     r1,r1,#8
        0x00000b80:    312c        ,1      ADDS     r1,r1,#0x2c
        0x00000b82:    0409        ..      LSLS     r1,r1,#16
        0x00000b84:    6008        .`      STR      r0,[r1,#0]
        0x00000b86:    bf00        ..      NOP      
        0x00000b88:    2000        .       MOVS     r0,#0
        0x00000b8a:    e000        ..      B        0xb8e ; ble_transmit + 58
        0x00000b8c:    1c40        @.      ADDS     r0,r0,#1
        0x00000b8e:    217d        }!      MOVS     r1,#0x7d
        0x00000b90:    00c9        ..      LSLS     r1,r1,#3
        0x00000b92:    4288        .B      CMP      r0,r1
        0x00000b94:    d3fa        ..      BCC      0xb8c ; ble_transmit + 56
        0x00000b96:    bd10        ..      POP      {r4,pc}
    ble_load_tx_arb_fifo
        0x00000b98:    b570        p.      PUSH     {r4-r6,lr}
        0x00000b9a:    2000        .       MOVS     r0,#0
        0x00000b9c:    2501        .%      MOVS     r5,#1
        0x00000b9e:    4328        (C      ORRS     r0,r0,r5
        0x00000ba0:    2604        .&      MOVS     r6,#4
        0x00000ba2:    4605        .F      MOV      r5,r0
        0x00000ba4:    43b5        .C      BICS     r5,r5,r6
        0x00000ba6:    4628        (F      MOV      r0,r5
        0x00000ba8:    2620         &      MOVS     r6,#0x20
        0x00000baa:    4605        .F      MOV      r5,r0
        0x00000bac:    43b5        .C      BICS     r5,r5,r6
        0x00000bae:    4628        (F      MOV      r0,r5
        0x00000bb0:    2552        R%      MOVS     r5,#0x52
        0x00000bb2:    022d        -.      LSLS     r5,r5,#8
        0x00000bb4:    352c        ,5      ADDS     r5,r5,#0x2c
        0x00000bb6:    042d        -.      LSLS     r5,r5,#16
        0x00000bb8:    6028        (`      STR      r0,[r5,#0]
        0x00000bba:    2100        .!      MOVS     r1,#0
        0x00000bbc:    e035        5.      B        0xc2a ; ble_load_tx_arb_fifo + 146
        0x00000bbe:    2520         %      MOVS     r5,#0x20
        0x00000bc0:    022d        -.      LSLS     r5,r5,#8
        0x00000bc2:    3500        .5      ADDS     r5,#0
        0x00000bc4:    022d        -.      LSLS     r5,r5,#8
        0x00000bc6:    3500        .5      ADDS     r5,#0
        0x00000bc8:    022d        -.      LSLS     r5,r5,#8
        0x00000bca:    35b8        .5      ADDS     r5,r5,#0xb8
        0x00000bcc:    5c6c        l\      LDRB     r4,[r5,r1]
        0x00000bce:    2207        ."      MOVS     r2,#7
        0x00000bd0:    e028        (.      B        0xc24 ; ble_load_tx_arb_fifo + 140
        0x00000bd2:    4625        %F      MOV      r5,r4
        0x00000bd4:    4115        .A      ASRS     r5,r5,r2
        0x00000bd6:    07eb        ..      LSLS     r3,r5,#31
        0x00000bd8:    0fdb        ..      LSRS     r3,r3,#31
        0x00000bda:    2b00        .+      CMP      r3,#0
        0x00000bdc:    d108        ..      BNE      0xbf0 ; ble_load_tx_arb_fifo + 88
        0x00000bde:    2602        .&      MOVS     r6,#2
        0x00000be0:    4605        .F      MOV      r5,r0
        0x00000be2:    43b5        .C      BICS     r5,r5,r6
        0x00000be4:    4628        (F      MOV      r0,r5
        0x00000be6:    2552        R%      MOVS     r5,#0x52
        0x00000be8:    022d        -.      LSLS     r5,r5,#8
        0x00000bea:    352c        ,5      ADDS     r5,r5,#0x2c
        0x00000bec:    042d        -.      LSLS     r5,r5,#16
        0x00000bee:    6028        (`      STR      r0,[r5,#0]
        0x00000bf0:    2b01        .+      CMP      r3,#1
        0x00000bf2:    d106        ..      BNE      0xc02 ; ble_load_tx_arb_fifo + 106
        0x00000bf4:    2502        .%      MOVS     r5,#2
        0x00000bf6:    4328        (C      ORRS     r0,r0,r5
        0x00000bf8:    2552        R%      MOVS     r5,#0x52
        0x00000bfa:    022d        -.      LSLS     r5,r5,#8
        0x00000bfc:    352c        ,5      ADDS     r5,r5,#0x2c
        0x00000bfe:    042d        -.      LSLS     r5,r5,#16
        0x00000c00:    6028        (`      STR      r0,[r5,#0]
        0x00000c02:    2508        .%      MOVS     r5,#8
        0x00000c04:    4328        (C      ORRS     r0,r0,r5
        0x00000c06:    2552        R%      MOVS     r5,#0x52
        0x00000c08:    022d        -.      LSLS     r5,r5,#8
        0x00000c0a:    352c        ,5      ADDS     r5,r5,#0x2c
        0x00000c0c:    042d        -.      LSLS     r5,r5,#16
        0x00000c0e:    6028        (`      STR      r0,[r5,#0]
        0x00000c10:    2608        .&      MOVS     r6,#8
        0x00000c12:    4605        .F      MOV      r5,r0
        0x00000c14:    43b5        .C      BICS     r5,r5,r6
        0x00000c16:    4628        (F      MOV      r0,r5
        0x00000c18:    2552        R%      MOVS     r5,#0x52
        0x00000c1a:    022d        -.      LSLS     r5,r5,#8
        0x00000c1c:    352c        ,5      ADDS     r5,r5,#0x2c
        0x00000c1e:    042d        -.      LSLS     r5,r5,#16
        0x00000c20:    6028        (`      STR      r0,[r5,#0]
        0x00000c22:    1e52        R.      SUBS     r2,r2,#1
        0x00000c24:    2a00        .*      CMP      r2,#0
        0x00000c26:    dad4        ..      BGE      0xbd2 ; ble_load_tx_arb_fifo + 58
        0x00000c28:    1c49        I.      ADDS     r1,r1,#1
        0x00000c2a:    2940        @)      CMP      r1,#0x40
        0x00000c2c:    dbc7        ..      BLT      0xbbe ; ble_load_tx_arb_fifo + 38
        0x00000c2e:    bd70        p.      POP      {r4-r6,pc}
    .text
    debounce_gpio
        0x00000c30:    b510        ..      PUSH     {r4,lr}
        0x00000c32:    2320         #      MOVS     r3,#0x20
        0x00000c34:    021b        ..      LSLS     r3,r3,#8
        0x00000c36:    3300        .3      ADDS     r3,#0
        0x00000c38:    021b        ..      LSLS     r3,r3,#8
        0x00000c3a:    3300        .3      ADDS     r3,#0
        0x00000c3c:    021b        ..      LSLS     r3,r3,#8
        0x00000c3e:    3312        .3      ADDS     r3,r3,#0x12
        0x00000c40:    781b        .x      LDRB     r3,[r3,#0]
        0x00000c42:    2b00        .+      CMP      r3,#0
        0x00000c44:    d002        ..      BEQ      0xc4c ; debounce_gpio + 28
        0x00000c46:    2b01        .+      CMP      r3,#1
        0x00000c48:    d137        7.      BNE      0xcba ; debounce_gpio + 138
        0x00000c4a:    e037        7.      B        0xcbc ; debounce_gpio + 140
        0x00000c4c:    2320         #      MOVS     r3,#0x20
        0x00000c4e:    021b        ..      LSLS     r3,r3,#8
        0x00000c50:    3300        .3      ADDS     r3,#0
        0x00000c52:    021b        ..      LSLS     r3,r3,#8
        0x00000c54:    3300        .3      ADDS     r3,#0
        0x00000c56:    021b        ..      LSLS     r3,r3,#8
        0x00000c58:    3304        .3      ADDS     r3,#4
        0x00000c5a:    881b        ..      LDRH     r3,[r3,#0]
        0x00000c5c:    4283        .B      CMP      r3,r0
        0x00000c5e:    d02c        ,.      BEQ      0xcba ; debounce_gpio + 138
        0x00000c60:    2321        !#      MOVS     r3,#0x21
        0x00000c62:    065b        [.      LSLS     r3,r3,#25
        0x00000c64:    685b        [h      LDR      r3,[r3,#4]
        0x00000c66:    2420         $      MOVS     r4,#0x20
        0x00000c68:    0224        $.      LSLS     r4,r4,#8
        0x00000c6a:    3400        .4      ADDS     r4,#0
        0x00000c6c:    0224        $.      LSLS     r4,r4,#8
        0x00000c6e:    3400        .4      ADDS     r4,#0
        0x00000c70:    0224        $.      LSLS     r4,r4,#8
        0x00000c72:    340c        .4      ADDS     r4,r4,#0xc
        0x00000c74:    6023        #`      STR      r3,[r4,#0]
        0x00000c76:    2301        .#      MOVS     r3,#1
        0x00000c78:    2420         $      MOVS     r4,#0x20
        0x00000c7a:    0224        $.      LSLS     r4,r4,#8
        0x00000c7c:    3400        .4      ADDS     r4,#0
        0x00000c7e:    0224        $.      LSLS     r4,r4,#8
        0x00000c80:    3400        .4      ADDS     r4,#0
        0x00000c82:    0224        $.      LSLS     r4,r4,#8
        0x00000c84:    3412        .4      ADDS     r4,r4,#0x12
        0x00000c86:    7023        #p      STRB     r3,[r4,#0]
        0x00000c88:    2320         #      MOVS     r3,#0x20
        0x00000c8a:    021b        ..      LSLS     r3,r3,#8
        0x00000c8c:    3300        .3      ADDS     r3,#0
        0x00000c8e:    021b        ..      LSLS     r3,r3,#8
        0x00000c90:    3300        .3      ADDS     r3,#0
        0x00000c92:    021b        ..      LSLS     r3,r3,#8
        0x00000c94:    3310        .3      ADDS     r3,r3,#0x10
        0x00000c96:    8018        ..      STRH     r0,[r3,#0]
        0x00000c98:    2320         #      MOVS     r3,#0x20
        0x00000c9a:    021b        ..      LSLS     r3,r3,#8
        0x00000c9c:    3300        .3      ADDS     r3,#0
        0x00000c9e:    021b        ..      LSLS     r3,r3,#8
        0x00000ca0:    3300        .3      ADDS     r3,#0
        0x00000ca2:    021b        ..      LSLS     r3,r3,#8
        0x00000ca4:    3300        .3      ADDS     r3,#0
        0x00000ca6:    681b        .h      LDR      r3,[r3,#0]
        0x00000ca8:    1c5b        [.      ADDS     r3,r3,#1
        0x00000caa:    2420         $      MOVS     r4,#0x20
        0x00000cac:    0224        $.      LSLS     r4,r4,#8
        0x00000cae:    3400        .4      ADDS     r4,#0
        0x00000cb0:    0224        $.      LSLS     r4,r4,#8
        0x00000cb2:    3400        .4      ADDS     r4,#0
        0x00000cb4:    0224        $.      LSLS     r4,r4,#8
        0x00000cb6:    3400        .4      ADDS     r4,#0
        0x00000cb8:    6023        #`      STR      r3,[r4,#0]
        0x00000cba:    e07c        |.      B        0xdb6 ; debounce_gpio + 390
        0x00000cbc:    2320         #      MOVS     r3,#0x20
        0x00000cbe:    021b        ..      LSLS     r3,r3,#8
        0x00000cc0:    3300        .3      ADDS     r3,#0
        0x00000cc2:    021b        ..      LSLS     r3,r3,#8
        0x00000cc4:    3300        .3      ADDS     r3,#0
        0x00000cc6:    021b        ..      LSLS     r3,r3,#8
        0x00000cc8:    3310        .3      ADDS     r3,r3,#0x10
        0x00000cca:    881b        ..      LDRH     r3,[r3,#0]
        0x00000ccc:    4298        .B      CMP      r0,r3
        0x00000cce:    d111        ..      BNE      0xcf4 ; debounce_gpio + 196
        0x00000cd0:    2320         #      MOVS     r3,#0x20
        0x00000cd2:    021b        ..      LSLS     r3,r3,#8
        0x00000cd4:    3300        .3      ADDS     r3,#0
        0x00000cd6:    021b        ..      LSLS     r3,r3,#8
        0x00000cd8:    3300        .3      ADDS     r3,#0
        0x00000cda:    021b        ..      LSLS     r3,r3,#8
        0x00000cdc:    3300        .3      ADDS     r3,#0
        0x00000cde:    681b        .h      LDR      r3,[r3,#0]
        0x00000ce0:    1c5b        [.      ADDS     r3,r3,#1
        0x00000ce2:    2420         $      MOVS     r4,#0x20
        0x00000ce4:    0224        $.      LSLS     r4,r4,#8
        0x00000ce6:    3400        .4      ADDS     r4,#0
        0x00000ce8:    0224        $.      LSLS     r4,r4,#8
        0x00000cea:    3400        .4      ADDS     r4,#0
        0x00000cec:    0224        $.      LSLS     r4,r4,#8
        0x00000cee:    3400        .4      ADDS     r4,#0
        0x00000cf0:    6023        #`      STR      r3,[r4,#0]
        0x00000cf2:    e010        ..      B        0xd16 ; debounce_gpio + 230
        0x00000cf4:    2320         #      MOVS     r3,#0x20
        0x00000cf6:    021b        ..      LSLS     r3,r3,#8
        0x00000cf8:    3300        .3      ADDS     r3,#0
        0x00000cfa:    021b        ..      LSLS     r3,r3,#8
        0x00000cfc:    3300        .3      ADDS     r3,#0
        0x00000cfe:    021b        ..      LSLS     r3,r3,#8
        0x00000d00:    3300        .3      ADDS     r3,#0
        0x00000d02:    681b        .h      LDR      r3,[r3,#0]
        0x00000d04:    1e5b        [.      SUBS     r3,r3,#1
        0x00000d06:    2420         $      MOVS     r4,#0x20
        0x00000d08:    0224        $.      LSLS     r4,r4,#8
        0x00000d0a:    3400        .4      ADDS     r4,#0
        0x00000d0c:    0224        $.      LSLS     r4,r4,#8
        0x00000d0e:    3400        .4      ADDS     r4,#0
        0x00000d10:    0224        $.      LSLS     r4,r4,#8
        0x00000d12:    3400        .4      ADDS     r4,#0
        0x00000d14:    6023        #`      STR      r3,[r4,#0]
        0x00000d16:    2320         #      MOVS     r3,#0x20
        0x00000d18:    021b        ..      LSLS     r3,r3,#8
        0x00000d1a:    3300        .3      ADDS     r3,#0
        0x00000d1c:    021b        ..      LSLS     r3,r3,#8
        0x00000d1e:    3300        .3      ADDS     r3,#0
        0x00000d20:    021b        ..      LSLS     r3,r3,#8
        0x00000d22:    3300        .3      ADDS     r3,#0
        0x00000d24:    681b        .h      LDR      r3,[r3,#0]
        0x00000d26:    2b01        .+      CMP      r3,#1
        0x00000d28:    db2a        *.      BLT      0xd80 ; debounce_gpio + 336
        0x00000d2a:    2320         #      MOVS     r3,#0x20
        0x00000d2c:    021b        ..      LSLS     r3,r3,#8
        0x00000d2e:    3300        .3      ADDS     r3,#0
        0x00000d30:    021b        ..      LSLS     r3,r3,#8
        0x00000d32:    3300        .3      ADDS     r3,#0
        0x00000d34:    021b        ..      LSLS     r3,r3,#8
        0x00000d36:    330c        .3      ADDS     r3,r3,#0xc
        0x00000d38:    681b        .h      LDR      r3,[r3,#0]
        0x00000d3a:    2420         $      MOVS     r4,#0x20
        0x00000d3c:    0224        $.      LSLS     r4,r4,#8
        0x00000d3e:    3400        .4      ADDS     r4,#0
        0x00000d40:    0224        $.      LSLS     r4,r4,#8
        0x00000d42:    3400        .4      ADDS     r4,#0
        0x00000d44:    0224        $.      LSLS     r4,r4,#8
        0x00000d46:    3404        .4      ADDS     r4,#4
        0x00000d48:    6063        c`      STR      r3,[r4,#4]
        0x00000d4a:    2320         #      MOVS     r3,#0x20
        0x00000d4c:    021b        ..      LSLS     r3,r3,#8
        0x00000d4e:    3300        .3      ADDS     r3,#0
        0x00000d50:    021b        ..      LSLS     r3,r3,#8
        0x00000d52:    3300        .3      ADDS     r3,#0
        0x00000d54:    021b        ..      LSLS     r3,r3,#8
        0x00000d56:    3310        .3      ADDS     r3,r3,#0x10
        0x00000d58:    881b        ..      LDRH     r3,[r3,#0]
        0x00000d5a:    8023        #.      STRH     r3,[r4,#0]
        0x00000d5c:    2300        .#      MOVS     r3,#0
        0x00000d5e:    2420         $      MOVS     r4,#0x20
        0x00000d60:    0224        $.      LSLS     r4,r4,#8
        0x00000d62:    3400        .4      ADDS     r4,#0
        0x00000d64:    0224        $.      LSLS     r4,r4,#8
        0x00000d66:    3400        .4      ADDS     r4,#0
        0x00000d68:    0224        $.      LSLS     r4,r4,#8
        0x00000d6a:    3412        .4      ADDS     r4,r4,#0x12
        0x00000d6c:    7023        #p      STRB     r3,[r4,#0]
        0x00000d6e:    2420         $      MOVS     r4,#0x20
        0x00000d70:    0224        $.      LSLS     r4,r4,#8
        0x00000d72:    3400        .4      ADDS     r4,#0
        0x00000d74:    0224        $.      LSLS     r4,r4,#8
        0x00000d76:    3400        .4      ADDS     r4,#0
        0x00000d78:    0224        $.      LSLS     r4,r4,#8
        0x00000d7a:    3400        .4      ADDS     r4,#0
        0x00000d7c:    6023        #`      STR      r3,[r4,#0]
        0x00000d7e:    e019        ..      B        0xdb4 ; debounce_gpio + 388
        0x00000d80:    2320         #      MOVS     r3,#0x20
        0x00000d82:    021b        ..      LSLS     r3,r3,#8
        0x00000d84:    3300        .3      ADDS     r3,#0
        0x00000d86:    021b        ..      LSLS     r3,r3,#8
        0x00000d88:    3300        .3      ADDS     r3,#0
        0x00000d8a:    021b        ..      LSLS     r3,r3,#8
        0x00000d8c:    3300        .3      ADDS     r3,#0
        0x00000d8e:    681b        .h      LDR      r3,[r3,#0]
        0x00000d90:    2b00        .+      CMP      r3,#0
        0x00000d92:    d10f        ..      BNE      0xdb4 ; debounce_gpio + 388
        0x00000d94:    2420         $      MOVS     r4,#0x20
        0x00000d96:    0224        $.      LSLS     r4,r4,#8
        0x00000d98:    3400        .4      ADDS     r4,#0
        0x00000d9a:    0224        $.      LSLS     r4,r4,#8
        0x00000d9c:    3400        .4      ADDS     r4,#0
        0x00000d9e:    0224        $.      LSLS     r4,r4,#8
        0x00000da0:    3400        .4      ADDS     r4,#0
        0x00000da2:    6023        #`      STR      r3,[r4,#0]
        0x00000da4:    2420         $      MOVS     r4,#0x20
        0x00000da6:    0224        $.      LSLS     r4,r4,#8
        0x00000da8:    3400        .4      ADDS     r4,#0
        0x00000daa:    0224        $.      LSLS     r4,r4,#8
        0x00000dac:    3400        .4      ADDS     r4,#0
        0x00000dae:    0224        $.      LSLS     r4,r4,#8
        0x00000db0:    3412        .4      ADDS     r4,r4,#0x12
        0x00000db2:    7023        #p      STRB     r3,[r4,#0]
        0x00000db4:    bf00        ..      NOP      
        0x00000db6:    bf00        ..      NOP      
        0x00000db8:    2320         #      MOVS     r3,#0x20
        0x00000dba:    021b        ..      LSLS     r3,r3,#8
        0x00000dbc:    3300        .3      ADDS     r3,#0
        0x00000dbe:    021b        ..      LSLS     r3,r3,#8
        0x00000dc0:    3300        .3      ADDS     r3,#0
        0x00000dc2:    021b        ..      LSLS     r3,r3,#8
        0x00000dc4:    3304        .3      ADDS     r3,#4
        0x00000dc6:    881b        ..      LDRH     r3,[r3,#0]
        0x00000dc8:    800b        ..      STRH     r3,[r1,#0]
        0x00000dca:    2320         #      MOVS     r3,#0x20
        0x00000dcc:    021b        ..      LSLS     r3,r3,#8
        0x00000dce:    3300        .3      ADDS     r3,#0
        0x00000dd0:    021b        ..      LSLS     r3,r3,#8
        0x00000dd2:    3300        .3      ADDS     r3,#0
        0x00000dd4:    021b        ..      LSLS     r3,r3,#8
        0x00000dd6:    3304        .3      ADDS     r3,#4
        0x00000dd8:    685b        [h      LDR      r3,[r3,#4]
        0x00000dda:    6013        .`      STR      r3,[r2,#0]
        0x00000ddc:    bd10        ..      POP      {r4,pc}
    ble_load_fifo_fast
        0x00000dde:    b5f8        ..      PUSH     {r3-r7,lr}
        0x00000de0:    4603        .F      MOV      r3,r0
        0x00000de2:    2001        .       MOVS     r0,#1
        0x00000de4:    2204        ."      MOVS     r2,#4
        0x00000de6:    4601        .F      MOV      r1,r0
        0x00000de8:    4391        .C      BICS     r1,r1,r2
        0x00000dea:    4608        .F      MOV      r0,r1
        0x00000dec:    2220         "      MOVS     r2,#0x20
        0x00000dee:    4601        .F      MOV      r1,r0
        0x00000df0:    4391        .C      BICS     r1,r1,r2
        0x00000df2:    4608        .F      MOV      r0,r1
        0x00000df4:    2152        R!      MOVS     r1,#0x52
        0x00000df6:    0209        ..      LSLS     r1,r1,#8
        0x00000df8:    312c        ,1      ADDS     r1,r1,#0x2c
        0x00000dfa:    0409        ..      LSLS     r1,r1,#16
        0x00000dfc:    6008        .`      STR      r0,[r1,#0]
        0x00000dfe:    2b00        .+      CMP      r3,#0
        0x00000e00:    d007        ..      BEQ      0xe12 ; ble_load_fifo_fast + 52
        0x00000e02:    2120         !      MOVS     r1,#0x20
        0x00000e04:    0209        ..      LSLS     r1,r1,#8
        0x00000e06:    3100        .1      ADDS     r1,#0
        0x00000e08:    0209        ..      LSLS     r1,r1,#8
        0x00000e0a:    3101        .1      ADDS     r1,#1
        0x00000e0c:    0209        ..      LSLS     r1,r1,#8
        0x00000e0e:    3128        (1      ADDS     r1,r1,#0x28
        0x00000e10:    e006        ..      B        0xe20 ; ble_load_fifo_fast + 66
        0x00000e12:    2120         !      MOVS     r1,#0x20
        0x00000e14:    0209        ..      LSLS     r1,r1,#8
        0x00000e16:    3100        .1      ADDS     r1,#0
        0x00000e18:    0209        ..      LSLS     r1,r1,#8
        0x00000e1a:    3101        .1      ADDS     r1,#1
        0x00000e1c:    0209        ..      LSLS     r1,r1,#8
        0x00000e1e:    316c        l1      ADDS     r1,r1,#0x6c
        0x00000e20:    9100        ..      STR      r1,[sp,#0]
        0x00000e22:    2100        .!      MOVS     r1,#0
        0x00000e24:    e025        %.      B        0xe72 ; ble_load_fifo_fast + 148
        0x00000e26:    9a00        ..      LDR      r2,[sp,#0]
        0x00000e28:    5c54        T\      LDRB     r4,[r2,r1]
        0x00000e2a:    2207        ."      MOVS     r2,#7
        0x00000e2c:    e01e        ..      B        0xe6c ; ble_load_fifo_fast + 142
        0x00000e2e:    4626        &F      MOV      r6,r4
        0x00000e30:    4116        .A      ASRS     r6,r6,r2
        0x00000e32:    07f5        ..      LSLS     r5,r6,#31
        0x00000e34:    0fed        ..      LSRS     r5,r5,#31
        0x00000e36:    2702        .'      MOVS     r7,#2
        0x00000e38:    4606        .F      MOV      r6,r0
        0x00000e3a:    43be        .C      BICS     r6,r6,r7
        0x00000e3c:    006f        o.      LSLS     r7,r5,#1
        0x00000e3e:    433e        >C      ORRS     r6,r6,r7
        0x00000e40:    4630        0F      MOV      r0,r6
        0x00000e42:    2652        R&      MOVS     r6,#0x52
        0x00000e44:    0236        6.      LSLS     r6,r6,#8
        0x00000e46:    362c        ,6      ADDS     r6,r6,#0x2c
        0x00000e48:    0436        6.      LSLS     r6,r6,#16
        0x00000e4a:    6030        0`      STR      r0,[r6,#0]
        0x00000e4c:    2608        .&      MOVS     r6,#8
        0x00000e4e:    4306        .C      ORRS     r6,r6,r0
        0x00000e50:    2752        R'      MOVS     r7,#0x52
        0x00000e52:    023f        ?.      LSLS     r7,r7,#8
        0x00000e54:    372c        ,7      ADDS     r7,r7,#0x2c
        0x00000e56:    043f        ?.      LSLS     r7,r7,#16
        0x00000e58:    603e        >`      STR      r6,[r7,#0]
        0x00000e5a:    2608        .&      MOVS     r6,#8
        0x00000e5c:    4607        .F      MOV      r7,r0
        0x00000e5e:    43b7        .C      BICS     r7,r7,r6
        0x00000e60:    2652        R&      MOVS     r6,#0x52
        0x00000e62:    0236        6.      LSLS     r6,r6,#8
        0x00000e64:    362c        ,6      ADDS     r6,r6,#0x2c
        0x00000e66:    0436        6.      LSLS     r6,r6,#16
        0x00000e68:    6037        7`      STR      r7,[r6,#0]
        0x00000e6a:    1e52        R.      SUBS     r2,r2,#1
        0x00000e6c:    2a00        .*      CMP      r2,#0
        0x00000e6e:    dade        ..      BGE      0xe2e ; ble_load_fifo_fast + 80
        0x00000e70:    1c49        I.      ADDS     r1,r1,#1
        0x00000e72:    2940        @)      CMP      r1,#0x40
        0x00000e74:    dbd7        ..      BLT      0xe26 ; ble_load_fifo_fast + 72
        0x00000e76:    bdf8        ..      POP      {r3-r7,pc}
    ble_tx_fifo
        0x00000e78:    b510        ..      PUSH     {r4,lr}
        0x00000e7a:    2034        4       MOVS     r0,#0x34
        0x00000e7c:    2152        R!      MOVS     r1,#0x52
        0x00000e7e:    0209        ..      LSLS     r1,r1,#8
        0x00000e80:    312c        ,1      ADDS     r1,r1,#0x2c
        0x00000e82:    0409        ..      LSLS     r1,r1,#16
        0x00000e84:    4604        .F      MOV      r4,r0
        0x00000e86:    6008        .`      STR      r0,[r1,#0]
        0x00000e88:    0864        d.      LSRS     r4,r4,#1
        0x00000e8a:    0064        d.      LSLS     r4,r4,#1
        0x00000e8c:    4608        .F      MOV      r0,r1
        0x00000e8e:    6004        .`      STR      r4,[r0,#0]
        0x00000e90:    2064        d       MOVS     r0,#0x64
        0x00000e92:    f000f899    ....    BL       delay_cycles ; 0xfc8
        0x00000e96:    2401        .$      MOVS     r4,#1
        0x00000e98:    2104        .!      MOVS     r1,#4
        0x00000e9a:    4620         F      MOV      r0,r4
        0x00000e9c:    4388        .C      BICS     r0,r0,r1
        0x00000e9e:    4604        .F      MOV      r4,r0
        0x00000ea0:    2120         !      MOVS     r1,#0x20
        0x00000ea2:    4620         F      MOV      r0,r4
        0x00000ea4:    4388        .C      BICS     r0,r0,r1
        0x00000ea6:    4604        .F      MOV      r4,r0
        0x00000ea8:    2052        R       MOVS     r0,#0x52
        0x00000eaa:    0200        ..      LSLS     r0,r0,#8
        0x00000eac:    302c        ,0      ADDS     r0,r0,#0x2c
        0x00000eae:    0400        ..      LSLS     r0,r0,#16
        0x00000eb0:    6004        .`      STR      r4,[r0,#0]
        0x00000eb2:    bd10        ..      POP      {r4,pc}
    ble_connect_init
        0x00000eb4:    b510        ..      PUSH     {r4,lr}
        0x00000eb6:    2300        .#      MOVS     r3,#0
        0x00000eb8:    461a        .F      MOV      r2,r3
        0x00000eba:    4619        .F      MOV      r1,r3
        0x00000ebc:    4618        .F      MOV      r0,r3
        0x00000ebe:    f002fba3    ....    BL       GPI_control ; 0x3608
        0x00000ec2:    2306        .#      MOVS     r3,#6
        0x00000ec4:    2203        ."      MOVS     r2,#3
        0x00000ec6:    4611        .F      MOV      r1,r2
        0x00000ec8:    4610        .F      MOV      r0,r2
        0x00000eca:    f002fb48    ..H.    BL       GPO_control ; 0x355e
        0x00000ece:    2001        .       MOVS     r0,#1
        0x00000ed0:    03c0        ..      LSLS     r0,r0,#15
        0x00000ed2:    f002fc1a    ....    BL       GPI_enables ; 0x370a
        0x00000ed6:    200f        .       MOVS     r0,#0xf
        0x00000ed8:    0200        ..      LSLS     r0,r0,#8
        0x00000eda:    30ff        .0      ADDS     r0,r0,#0xff
        0x00000edc:    f002fbef    ....    BL       GPO_enables ; 0x36be
        0x00000ee0:    f003fc23    ..#.    BL       analog_scan_chain_write ; 0x472a
        0x00000ee4:    f003fc18    ....    BL       analog_scan_chain_load ; 0x4718
        0x00000ee8:    bd10        ..      POP      {r4,pc}
    ble_fake_connnect
        0x00000eea:    b510        ..      PUSH     {r4,lr}
        0x00000eec:    f000f875    ..u.    BL       ble_adv_packet ; 0xfda
        0x00000ef0:    f000f886    ....    BL       ble_scan_rsp_packet ; 0x1000
        0x00000ef4:    2208        ."      MOVS     r2,#8
        0x00000ef6:    2102        .!      MOVS     r1,#2
        0x00000ef8:    2014        .       MOVS     r0,#0x14
        0x00000efa:    f003fc5a    ..Z.    BL       LC_FREQCHANGE ; 0x47b2
        0x00000efe:    f000fb6f    ..o.    BL       radio_txEnable ; 0x15e0
        0x00000f02:    2001        .       MOVS     r0,#1
        0x00000f04:    f7ffff6b    ..k.    BL       ble_load_fifo_fast ; 0xdde
        0x00000f08:    f7ffffb6    ....    BL       ble_tx_fifo ; 0xe78
        0x00000f0c:    2000        .       MOVS     r0,#0
        0x00000f0e:    f7ffff66    ..f.    BL       ble_load_fifo_fast ; 0xdde
        0x00000f12:    f7ffffb1    ....    BL       ble_tx_fifo ; 0xe78
        0x00000f16:    207d        }       MOVS     r0,#0x7d
        0x00000f18:    00c0        ..      LSLS     r0,r0,#3
        0x00000f1a:    f000f855    ..U.    BL       delay_cycles ; 0xfc8
        0x00000f1e:    bd10        ..      POP      {r4,pc}
    ble_fast_connect
        0x00000f20:    b57c        |.      PUSH     {r2-r6,lr}
        0x00000f22:    4604        .F      MOV      r4,r0
        0x00000f24:    f000f859    ..Y.    BL       ble_adv_packet ; 0xfda
        0x00000f28:    f000f86a    ..j.    BL       ble_scan_rsp_packet ; 0x1000
        0x00000f2c:    e049        I.      B        0xfc2 ; ble_fast_connect + 162
        0x00000f2e:    4621        !F      MOV      r1,r4
        0x00000f30:    2000        .       MOVS     r0,#0
        0x00000f32:    0200        ..      LSLS     r0,r0,#8
        0x00000f34:    3000        .0      ADDS     r0,#0
        0x00000f36:    0200        ..      LSLS     r0,r0,#8
        0x00000f38:    3059        Y0      ADDS     r0,r0,#0x59
        0x00000f3a:    0200        ..      LSLS     r0,r0,#8
        0x00000f3c:    3068        h0      ADDS     r0,r0,#0x68
        0x00000f3e:    f003ff01    ....    BL       __2printf ; 0x4d44
        0x00000f42:    f000fb4d    ..M.    BL       radio_txEnable ; 0x15e0
        0x00000f46:    2205        ."      MOVS     r2,#5
        0x00000f48:    2102        .!      MOVS     r1,#2
        0x00000f4a:    2014        .       MOVS     r0,#0x14
        0x00000f4c:    f003fc31    ..1.    BL       LC_FREQCHANGE ; 0x47b2
        0x00000f50:    2001        .       MOVS     r0,#1
        0x00000f52:    f7ffff44    ..D.    BL       ble_load_fifo_fast ; 0xdde
        0x00000f56:    f7ffff8f    ....    BL       ble_tx_fifo ; 0xe78
        0x00000f5a:    220f        ."      MOVS     r2,#0xf
        0x00000f5c:    2101        .!      MOVS     r1,#1
        0x00000f5e:    2014        .       MOVS     r0,#0x14
        0x00000f60:    f003fc27    ..'.    BL       LC_FREQCHANGE ; 0x47b2
        0x00000f64:    f000fbe9    ....    BL       radio_rxEnable ; 0x173a
        0x00000f68:    f000fbd9    ....    BL       radio_rxNow ; 0x171e
        0x00000f6c:    2000        .       MOVS     r0,#0
        0x00000f6e:    9001        ..      STR      r0,[sp,#4]
        0x00000f70:    9000        ..      STR      r0,[sp,#0]
        0x00000f72:    e00b        ..      B        0xf8c ; ble_fast_connect + 108
        0x00000f74:    2053        S       MOVS     r0,#0x53
        0x00000f76:    0600        ..      LSLS     r0,r0,#24
        0x00000f78:    6800        .h      LDR      r0,[r0,#0]
        0x00000f7a:    2101        .!      MOVS     r1,#1
        0x00000f7c:    03c9        ..      LSLS     r1,r1,#15
        0x00000f7e:    4008        .@      ANDS     r0,r0,r1
        0x00000f80:    0b85        ..      LSRS     r5,r0,#14
        0x00000f82:    466a        jF      MOV      r2,sp
        0x00000f84:    a901        ..      ADD      r1,sp,#4
        0x00000f86:    4628        (F      MOV      r0,r5
        0x00000f88:    f7fffe52    ..R.    BL       debounce_gpio ; 0xc30
        0x00000f8c:    4668        hF      MOV      r0,sp
        0x00000f8e:    8880        ..      LDRH     r0,[r0,#4]
        0x00000f90:    2800        .(      CMP      r0,#0
        0x00000f92:    d0ef        ..      BEQ      0xf74 ; ble_fast_connect + 84
        0x00000f94:    2205        ."      MOVS     r2,#5
        0x00000f96:    2102        .!      MOVS     r1,#2
        0x00000f98:    2014        .       MOVS     r0,#0x14
        0x00000f9a:    f003fc0a    ....    BL       LC_FREQCHANGE ; 0x47b2
        0x00000f9e:    f000fb1f    ....    BL       radio_txEnable ; 0x15e0
        0x00000fa2:    2001        .       MOVS     r0,#1
        0x00000fa4:    f7ffff1b    ....    BL       ble_load_fifo_fast ; 0xdde
        0x00000fa8:    f7ffff66    ..f.    BL       ble_tx_fifo ; 0xe78
        0x00000fac:    bf00        ..      NOP      
        0x00000fae:    2000        .       MOVS     r0,#0
        0x00000fb0:    f7ffff15    ....    BL       ble_load_fifo_fast ; 0xdde
        0x00000fb4:    f7ffff60    ..`.    BL       ble_tx_fifo ; 0xe78
        0x00000fb8:    207d        }       MOVS     r0,#0x7d
        0x00000fba:    00c0        ..      LSLS     r0,r0,#3
        0x00000fbc:    f000f804    ....    BL       delay_cycles ; 0xfc8
        0x00000fc0:    1e64        d.      SUBS     r4,r4,#1
        0x00000fc2:    2c00        .,      CMP      r4,#0
        0x00000fc4:    dcb3        ..      BGT      0xf2e ; ble_fast_connect + 14
        0x00000fc6:    bd7c        |.      POP      {r2-r6,pc}
    delay_cycles
        0x00000fc8:    b501        ..      PUSH     {r0,lr}
        0x00000fca:    e000        ..      B        0xfce ; delay_cycles + 6
        0x00000fcc:    bf00        ..      NOP      
        0x00000fce:    9800        ..      LDR      r0,[sp,#0]
        0x00000fd0:    1e41        A.      SUBS     r1,r0,#1
        0x00000fd2:    9100        ..      STR      r1,[sp,#0]
        0x00000fd4:    2800        .(      CMP      r0,#0
        0x00000fd6:    d1f9        ..      BNE      0xfcc ; delay_cycles + 4
        0x00000fd8:    bd08        ..      POP      {r3,pc}
    ble_adv_packet
        0x00000fda:    b510        ..      PUSH     {r4,lr}
        0x00000fdc:    221a        ."      MOVS     r2,#0x1a
        0x00000fde:    2100        .!      MOVS     r1,#0
        0x00000fe0:    0209        ..      LSLS     r1,r1,#8
        0x00000fe2:    3100        .1      ADDS     r1,#0
        0x00000fe4:    0209        ..      LSLS     r1,r1,#8
        0x00000fe6:    3158        X1      ADDS     r1,r1,#0x58
        0x00000fe8:    0209        ..      LSLS     r1,r1,#8
        0x00000fea:    314c        L1      ADDS     r1,r1,#0x4c
        0x00000fec:    2020                MOVS     r0,#0x20
        0x00000fee:    0200        ..      LSLS     r0,r0,#8
        0x00000ff0:    3000        .0      ADDS     r0,#0
        0x00000ff2:    0200        ..      LSLS     r0,r0,#8
        0x00000ff4:    3001        .0      ADDS     r0,#1
        0x00000ff6:    0200        ..      LSLS     r0,r0,#8
        0x00000ff8:    3028        (0      ADDS     r0,r0,#0x28
        0x00000ffa:    f003ff49    ..I.    BL       __aeabi_memcpy ; 0x4e90
        0x00000ffe:    bd10        ..      POP      {r4,pc}
    ble_scan_rsp_packet
        0x00001000:    b510        ..      PUSH     {r4,lr}
        0x00001002:    222c        ,"      MOVS     r2,#0x2c
        0x00001004:    2100        .!      MOVS     r1,#0
        0x00001006:    0209        ..      LSLS     r1,r1,#8
        0x00001008:    3100        .1      ADDS     r1,#0
        0x0000100a:    0209        ..      LSLS     r1,r1,#8
        0x0000100c:    3158        X1      ADDS     r1,r1,#0x58
        0x0000100e:    0209        ..      LSLS     r1,r1,#8
        0x00001010:    3166        f1      ADDS     r1,r1,#0x66
        0x00001012:    2020                MOVS     r0,#0x20
        0x00001014:    0200        ..      LSLS     r0,r0,#8
        0x00001016:    3000        .0      ADDS     r0,#0
        0x00001018:    0200        ..      LSLS     r0,r0,#8
        0x0000101a:    3001        .0      ADDS     r0,#1
        0x0000101c:    0200        ..      LSLS     r0,r0,#8
        0x0000101e:    306c        l0      ADDS     r0,r0,#0x6c
        0x00001020:    f003ff36    ..6.    BL       __aeabi_memcpy ; 0x4e90
        0x00001024:    bd10        ..      POP      {r4,pc}
        0x00001026:    0000        ..      MOVS     r0,r0
    .text
    Reset_Handler
        0x00001028:    4941        AI      LDR      r1,[pc,#260] ; [0x1130] = 0xe000e100
        0x0000102a:    4842        BH      LDR      r0,[pc,#264] ; [0x1134] = 0
        0x0000102c:    6008        .`      STR      r0,[r1,#0]
        0x0000102e:    4842        BH      LDR      r0,[pc,#264] ; [0x1138] = 0x81
        0x00001030:    4700        .G      BX       r0
    UART_Handler
        0x00001032:    b501        ..      PUSH     {r0,lr}
        0x00001034:    2001        .       MOVS     r0,#1
        0x00001036:    f3808810    ....    MSR      PRIMASK,r0
        0x0000103a:    f001ff93    ....    BL       uart_rx_isr ; 0x2f64
        0x0000103e:    2000        .       MOVS     r0,#0
        0x00001040:    f3808810    ....    MSR      PRIMASK,r0
        0x00001044:    bd01        ..      POP      {r0,pc}
    ADC_Handler
        0x00001046:    b501        ..      PUSH     {r0,lr}
        0x00001048:    2001        .       MOVS     r0,#1
        0x0000104a:    f3808810    ....    MSR      PRIMASK,r0
        0x0000104e:    f001fcb2    ....    BL       adc_isr ; 0x29b6
        0x00001052:    2000        .       MOVS     r0,#0
        0x00001054:    f3808810    ....    MSR      PRIMASK,r0
        0x00001058:    bd01        ..      POP      {r0,pc}
    RF_Handler
        0x0000105a:    b501        ..      PUSH     {r0,lr}
        0x0000105c:    2001        .       MOVS     r0,#1
        0x0000105e:    f3808810    ....    MSR      PRIMASK,r0
        0x00001062:    f001f964    ..d.    BL       radio_isr ; 0x232e
        0x00001066:    2000        .       MOVS     r0,#0
        0x00001068:    f3808810    ....    MSR      PRIMASK,r0
        0x0000106c:    bd01        ..      POP      {r0,pc}
    RFTIMER_Handler
        0x0000106e:    b501        ..      PUSH     {r0,lr}
        0x00001070:    2001        .       MOVS     r0,#1
        0x00001072:    f3808810    ....    MSR      PRIMASK,r0
        0x00001076:    f002f88c    ....    BL       rftimer_isr ; 0x3192
        0x0000107a:    2000        .       MOVS     r0,#0
        0x0000107c:    f3808810    ....    MSR      PRIMASK,r0
        0x00001080:    bd01        ..      POP      {r0,pc}
    EXT_GPIO3_ACTIVEHIGH_DEBOUNCED_Handler
        0x00001082:    b501        ..      PUSH     {r0,lr}
        0x00001084:    2001        .       MOVS     r0,#1
        0x00001086:    f3808810    ....    MSR      PRIMASK,r0
        0x0000108a:    f001ff46    ..F.    BL       ext_gpio3_activehigh_debounced_isr ; 0x2f1a
        0x0000108e:    2000        .       MOVS     r0,#0
        0x00001090:    f3808810    ....    MSR      PRIMASK,r0
        0x00001094:    bd01        ..      POP      {r0,pc}
    EXT_GPIO8_ACTIVEHIGH_Handler
        0x00001096:    b501        ..      PUSH     {r0,lr}
        0x00001098:    2001        .       MOVS     r0,#1
        0x0000109a:    f3808810    ....    MSR      PRIMASK,r0
        0x0000109e:    f001ff47    ..G.    BL       ext_gpio8_activehigh_isr ; 0x2f30
        0x000010a2:    2000        .       MOVS     r0,#0
        0x000010a4:    f3808810    ....    MSR      PRIMASK,r0
        0x000010a8:    bd01        ..      POP      {r0,pc}
    EXT_GPIO9_ACTIVELOW_Handler
        0x000010aa:    b501        ..      PUSH     {r0,lr}
        0x000010ac:    2001        .       MOVS     r0,#1
        0x000010ae:    f3808810    ....    MSR      PRIMASK,r0
        0x000010b2:    f001ff41    ..A.    BL       ext_gpio9_activelow_isr ; 0x2f38
        0x000010b6:    2000        .       MOVS     r0,#0
        0x000010b8:    f3808810    ....    MSR      PRIMASK,r0
        0x000010bc:    bd01        ..      POP      {r0,pc}
    EXT_GPIO10_ACTIVELOW
        0x000010be:    b501        ..      PUSH     {r0,lr}
        0x000010c0:    2001        .       MOVS     r0,#1
        0x000010c2:    f3808810    ....    MSR      PRIMASK,r0
        0x000010c6:    f001ff42    ..B.    BL       ext_gpio10_activelow_isr ; 0x2f4e
        0x000010ca:    2000        .       MOVS     r0,#0
        0x000010cc:    f3808810    ....    MSR      PRIMASK,r0
        0x000010d0:    bd01        ..      POP      {r0,pc}
    RAWCHIPS_STARTVAL_Handler
        0x000010d2:    b501        ..      PUSH     {r0,lr}
        0x000010d4:    2001        .       MOVS     r0,#1
        0x000010d6:    f3808810    ....    MSR      PRIMASK,r0
        0x000010da:    f001fa8d    ....    BL       rawchips_startval_isr ; 0x25f8
        0x000010de:    2000        .       MOVS     r0,#0
        0x000010e0:    f3808810    ....    MSR      PRIMASK,r0
        0x000010e4:    bd01        ..      POP      {r0,pc}
    RAWCHIPS_32_Handler
        0x000010e6:    b501        ..      PUSH     {r0,lr}
        0x000010e8:    2001        .       MOVS     r0,#1
        0x000010ea:    f3808810    ....    MSR      PRIMASK,r0
        0x000010ee:    f001f9d7    ....    BL       rawchips_32_isr ; 0x24a0
        0x000010f2:    2000        .       MOVS     r0,#0
        0x000010f4:    f3808810    ....    MSR      PRIMASK,r0
        0x000010f8:    bd01        ..      POP      {r0,pc}
    EXT_OPTICAL_IRQ_IN_Handler
        0x000010fa:    b501        ..      PUSH     {r0,lr}
        0x000010fc:    2001        .       MOVS     r0,#1
        0x000010fe:    f3808810    ....    MSR      PRIMASK,r0
        0x00001102:    f000f899    ....    BL       optical_32_isr ; 0x1238
        0x00001106:    2000        .       MOVS     r0,#0
        0x00001108:    f3808810    ....    MSR      PRIMASK,r0
        0x0000110c:    bd01        ..      POP      {r0,pc}
    OPTICAL_SFD_Handler
        0x0000110e:    b501        ..      PUSH     {r0,lr}
        0x00001110:    2001        .       MOVS     r0,#1
        0x00001112:    f3808810    ....    MSR      PRIMASK,r0
        0x00001116:    f000f890    ....    BL       optical_sfd_isr ; 0x123a
        0x0000111a:    2000        .       MOVS     r0,#0
        0x0000111c:    f3808810    ....    MSR      PRIMASK,r0
        0x00001120:    bd01        ..      POP      {r0,pc}
    $d
        0x00001122:    0000        ..      DCW    0
    $t
    __user_initial_stackheap
        0x00001124:    4805        .H      LDR      r0,[pc,#20] ; [0x113c] = 0x200007b0
        0x00001126:    4906        .I      LDR      r1,[pc,#24] ; [0x1140] = 0x200013b0
        0x00001128:    4a06        .J      LDR      r2,[pc,#24] ; [0x1144] = 0x20000bb0
        0x0000112a:    4b07        .K      LDR      r3,[pc,#28] ; [0x1148] = 0x20000bb0
        0x0000112c:    4770        pG      BX       lr
    $d
        0x0000112e:    0000        ..      DCW    0
        0x00001130:    e000e100    ....    DCD    3758153984
        0x00001134:    00000000    ....    DCD    0
        0x00001138:    00000081    ....    DCD    129
        0x0000113c:    200007b0    ...     DCD    536872880
        0x00001140:    200013b0    ...     DCD    536875952
        0x00001144:    20000bb0    ...     DCD    536873904
        0x00001148:    20000bb0    ...     DCD    536873904
    $t
    .text
    ferror
        0x0000114c:    4601        .F      MOV      r1,r0
        0x0000114e:    2000        .       MOVS     r0,#0
        0x00001150:    4770        pG      BX       lr
    uart_out
        0x00001152:    2151        Q!      MOVS     r1,#0x51
        0x00001154:    0609        ..      LSLS     r1,r1,#24
        0x00001156:    7008        .p      STRB     r0,[r1,#0]
        0x00001158:    4770        pG      BX       lr
    uart_in
        0x0000115a:    b510        ..      PUSH     {r4,lr}
        0x0000115c:    2451        Q$      MOVS     r4,#0x51
        0x0000115e:    0624        $.      LSLS     r4,r4,#24
        0x00001160:    7823        #x      LDRB     r3,[r4,#0]
        0x00001162:    4618        .F      MOV      r0,r3
        0x00001164:    f7fffff5    ....    BL       uart_out ; 0x1152
        0x00001168:    4618        .F      MOV      r0,r3
        0x0000116a:    bd10        ..      POP      {r4,pc}
    fputc
        0x0000116c:    b510        ..      PUSH     {r4,lr}
        0x0000116e:    4603        .F      MOV      r3,r0
        0x00001170:    460c        .F      MOV      r4,r1
        0x00001172:    4618        .F      MOV      r0,r3
        0x00001174:    f7ffffed    ....    BL       uart_out ; 0x1152
        0x00001178:    bd10        ..      POP      {r4,pc}
    fgetc
        0x0000117a:    b510        ..      PUSH     {r4,lr}
        0x0000117c:    4604        .F      MOV      r4,r0
        0x0000117e:    f7ffffec    ....    BL       uart_in ; 0x115a
        0x00001182:    bd10        ..      POP      {r4,pc}
    _ttywrch
        0x00001184:    b510        ..      PUSH     {r4,lr}
        0x00001186:    4604        .F      MOV      r4,r0
        0x00001188:    2120         !      MOVS     r1,#0x20
        0x0000118a:    0209        ..      LSLS     r1,r1,#8
        0x0000118c:    3100        .1      ADDS     r1,#0
        0x0000118e:    0209        ..      LSLS     r1,r1,#8
        0x00001190:    3100        .1      ADDS     r1,#0
        0x00001192:    0209        ..      LSLS     r1,r1,#8
        0x00001194:    3114        .1      ADDS     r1,r1,#0x14
        0x00001196:    4620         F      MOV      r0,r4
        0x00001198:    f7ffffe8    ....    BL       fputc ; 0x116c
        0x0000119c:    bd10        ..      POP      {r4,pc}
    _sys_exit
        0x0000119e:    2000        .       MOVS     r0,#0
        0x000011a0:    0200        ..      LSLS     r0,r0,#8
        0x000011a2:    3000        .0      ADDS     r0,#0
        0x000011a4:    0200        ..      LSLS     r0,r0,#8
        0x000011a6:    3059        Y0      ADDS     r0,r0,#0x59
        0x000011a8:    0200        ..      LSLS     r0,r0,#8
        0x000011aa:    3074        t0      ADDS     r0,r0,#0x74
        0x000011ac:    f003fdca    ....    BL       __2printf ; 0x4d44
        0x000011b0:    bf00        ..      NOP      
        0x000011b2:    e7fe        ..      B        0x11b2 ; _sys_exit + 20
    .text
    optical_init
        0x000011b4:    b510        ..      PUSH     {r4,lr}
        0x000011b6:    2120         !      MOVS     r1,#0x20
        0x000011b8:    2020                MOVS     r0,#0x20
        0x000011ba:    0200        ..      LSLS     r0,r0,#8
        0x000011bc:    3000        .0      ADDS     r0,#0
        0x000011be:    0200        ..      LSLS     r0,r0,#8
        0x000011c0:    3001        .0      ADDS     r0,#1
        0x000011c2:    0200        ..      LSLS     r0,r0,#8
        0x000011c4:    30b0        .0      ADDS     r0,r0,#0xb0
        0x000011c6:    f003fec2    ....    BL       __aeabi_memclr4 ; 0x4f4e
        0x000011ca:    2003        .       MOVS     r0,#3
        0x000011cc:    0200        ..      LSLS     r0,r0,#8
        0x000011ce:    30cf        .0      ADDS     r0,r0,#0xcf
        0x000011d0:    0200        ..      LSLS     r0,r0,#8
        0x000011d2:    30d2        .0      ADDS     r0,r0,#0xd2
        0x000011d4:    2120         !      MOVS     r1,#0x20
        0x000011d6:    0209        ..      LSLS     r1,r1,#8
        0x000011d8:    3100        .1      ADDS     r1,#0
        0x000011da:    0209        ..      LSLS     r1,r1,#8
        0x000011dc:    3101        .1      ADDS     r1,#1
        0x000011de:    0209        ..      LSLS     r1,r1,#8
        0x000011e0:    31b0        .1      ADDS     r1,r1,#0xb0
        0x000011e2:    6188        .a      STR      r0,[r1,#0x18]
        0x000011e4:    2096        .       MOVS     r0,#0x96
        0x000011e6:    61c8        .a      STR      r0,[r1,#0x1c]
        0x000011e8:    bd10        ..      POP      {r4,pc}
    optical_getCalibrationFinshed
        0x000011ea:    2020                MOVS     r0,#0x20
        0x000011ec:    0200        ..      LSLS     r0,r0,#8
        0x000011ee:    3000        .0      ADDS     r0,#0
        0x000011f0:    0200        ..      LSLS     r0,r0,#8
        0x000011f2:    3001        .0      ADDS     r0,#1
        0x000011f4:    0200        ..      LSLS     r0,r0,#8
        0x000011f6:    30b0        .0      ADDS     r0,r0,#0xb0
        0x000011f8:    7840        @x      LDRB     r0,[r0,#1]
        0x000011fa:    4770        pG      BX       lr
    optical_enable
        0x000011fc:    2003        .       MOVS     r0,#3
        0x000011fe:    02c0        ..      LSLS     r0,r0,#11
        0x00001200:    21e0        .!      MOVS     r1,#0xe0
        0x00001202:    0409        ..      LSLS     r1,r1,#16
        0x00001204:    31e1        .1      ADDS     r1,r1,#0xe1
        0x00001206:    0209        ..      LSLS     r1,r1,#8
        0x00001208:    6008        .`      STR      r0,[r1,#0]
        0x0000120a:    4770        pG      BX       lr
    perform_calibration
        0x0000120c:    b510        ..      PUSH     {r4,lr}
        0x0000120e:    f000fa94    ....    BL       radio_rxEnable ; 0x173a
        0x00001212:    f7fffff3    ....    BL       optical_enable ; 0x11fc
        0x00001216:    bf00        ..      NOP      
        0x00001218:    f7ffffe7    ....    BL       optical_getCalibrationFinshed ; 0x11ea
        0x0000121c:    2800        .(      CMP      r0,#0
        0x0000121e:    d0fb        ..      BEQ      0x1218 ; perform_calibration + 12
        0x00001220:    f000fa0c    ....    BL       radio_rfOff ; 0x163c
        0x00001224:    2000        .       MOVS     r0,#0
        0x00001226:    0200        ..      LSLS     r0,r0,#8
        0x00001228:    3000        .0      ADDS     r0,#0
        0x0000122a:    0200        ..      LSLS     r0,r0,#8
        0x0000122c:    3059        Y0      ADDS     r0,r0,#0x59
        0x0000122e:    0200        ..      LSLS     r0,r0,#8
        0x00001230:    3084        .0      ADDS     r0,r0,#0x84
        0x00001232:    f003fd87    ....    BL       __2printf ; 0x4d44
        0x00001236:    bd10        ..      POP      {r4,pc}
    optical_32_isr
        0x00001238:    4770        pG      BX       lr
    optical_sfd_isr
        0x0000123a:    b5f0        ..      PUSH     {r4-r7,lr}
        0x0000123c:    b08d        ..      SUB      sp,sp,#0x34
        0x0000123e:    2000        .       MOVS     r0,#0
        0x00001240:    900c        ..      STR      r0,[sp,#0x30]
        0x00001242:    f001fff4    ....    BL       scm3c_hw_interface_get_HF_CLOCK_fine ; 0x322e
        0x00001246:    4605        .F      MOV      r5,r0
        0x00001248:    f001fffa    ....    BL       scm3c_hw_interface_get_HF_CLOCK_coarse ; 0x3240
        0x0000124c:    9007        ..      STR      r0,[sp,#0x1c]
        0x0000124e:    f002f800    ....    BL       scm3c_hw_interface_get_RC2M_coarse ; 0x3252
        0x00001252:    9006        ..      STR      r0,[sp,#0x18]
        0x00001254:    f002f806    ....    BL       scm3c_hw_interface_get_RC2M_fine ; 0x3264
        0x00001258:    9005        ..      STR      r0,[sp,#0x14]
        0x0000125a:    f002f80c    ....    BL       scm3c_hw_interface_get_RC2M_superfine ; 0x3276
        0x0000125e:    9004        ..      STR      r0,[sp,#0x10]
        0x00001260:    f002f812    ....    BL       scm3c_hw_interface_get_IF_clk_target ; 0x3288
        0x00001264:    9003        ..      STR      r0,[sp,#0xc]
        0x00001266:    f002f818    ....    BL       scm3c_hw_interface_get_IF_coarse ; 0x329a
        0x0000126a:    9002        ..      STR      r0,[sp,#8]
        0x0000126c:    f002f81e    ....    BL       scm3c_hw_interface_get_IF_fine ; 0x32ac
        0x00001270:    9001        ..      STR      r0,[sp,#4]
        0x00001272:    207f        .       MOVS     r0,#0x7f
        0x00001274:    2129        )!      MOVS     r1,#0x29
        0x00001276:    0649        I.      LSLS     r1,r1,#25
        0x00001278:    6008        .`      STR      r0,[r1,#0]
        0x0000127a:    2020                MOVS     r0,#0x20
        0x0000127c:    0200        ..      LSLS     r0,r0,#8
        0x0000127e:    3000        .0      ADDS     r0,#0
        0x00001280:    0200        ..      LSLS     r0,r0,#8
        0x00001282:    3001        .0      ADDS     r0,#1
        0x00001284:    0200        ..      LSLS     r0,r0,#8
        0x00001286:    30b0        .0      ADDS     r0,r0,#0xb0
        0x00001288:    7800        .x      LDRB     r0,[r0,#0]
        0x0000128a:    1c40        @.      ADDS     r0,r0,#1
        0x0000128c:    2120         !      MOVS     r1,#0x20
        0x0000128e:    0209        ..      LSLS     r1,r1,#8
        0x00001290:    3100        .1      ADDS     r1,#0
        0x00001292:    0209        ..      LSLS     r1,r1,#8
        0x00001294:    3101        .1      ADDS     r1,#1
        0x00001296:    0209        ..      LSLS     r1,r1,#8
        0x00001298:    31b0        .1      ADDS     r1,r1,#0xb0
        0x0000129a:    7008        .p      STRB     r0,[r1,#0]
        0x0000129c:    2029        )       MOVS     r0,#0x29
        0x0000129e:    0640        @.      LSLS     r0,r0,#25
        0x000012a0:    6806        .h      LDR      r6,[r0,#0]
        0x000012a2:    2052        R       MOVS     r0,#0x52
        0x000012a4:    0200        ..      LSLS     r0,r0,#8
        0x000012a6:    3004        .0      ADDS     r0,#4
        0x000012a8:    0400        ..      LSLS     r0,r0,#16
        0x000012aa:    6807        .h      LDR      r7,[r0,#0]
        0x000012ac:    0438        8.      LSLS     r0,r7,#16
        0x000012ae:    1980        ..      ADDS     r0,r0,r6
        0x000012b0:    900a        ..      STR      r0,[sp,#0x28]
        0x000012b2:    2052        R       MOVS     r0,#0x52
        0x000012b4:    0200        ..      LSLS     r0,r0,#8
        0x000012b6:    3010        .0      ADDS     r0,r0,#0x10
        0x000012b8:    0400        ..      LSLS     r0,r0,#16
        0x000012ba:    6806        .h      LDR      r6,[r0,#0]
        0x000012bc:    2052        R       MOVS     r0,#0x52
        0x000012be:    0200        ..      LSLS     r0,r0,#8
        0x000012c0:    3014        .0      ADDS     r0,r0,#0x14
        0x000012c2:    0400        ..      LSLS     r0,r0,#16
        0x000012c4:    6807        .h      LDR      r7,[r0,#0]
        0x000012c6:    0438        8.      LSLS     r0,r7,#16
        0x000012c8:    1980        ..      ADDS     r0,r0,r6
        0x000012ca:    9009        ..      STR      r0,[sp,#0x24]
        0x000012cc:    2052        R       MOVS     r0,#0x52
        0x000012ce:    0200        ..      LSLS     r0,r0,#8
        0x000012d0:    3018        .0      ADDS     r0,r0,#0x18
        0x000012d2:    0400        ..      LSLS     r0,r0,#16
        0x000012d4:    6806        .h      LDR      r6,[r0,#0]
        0x000012d6:    2052        R       MOVS     r0,#0x52
        0x000012d8:    0200        ..      LSLS     r0,r0,#8
        0x000012da:    301c        .0      ADDS     r0,r0,#0x1c
        0x000012dc:    0400        ..      LSLS     r0,r0,#16
        0x000012de:    6807        .h      LDR      r7,[r0,#0]
        0x000012e0:    0438        8.      LSLS     r0,r7,#16
        0x000012e2:    1984        ..      ADDS     r4,r0,r6
        0x000012e4:    2052        R       MOVS     r0,#0x52
        0x000012e6:    0200        ..      LSLS     r0,r0,#8
        0x000012e8:    3028        (0      ADDS     r0,r0,#0x28
        0x000012ea:    0400        ..      LSLS     r0,r0,#16
        0x000012ec:    6806        .h      LDR      r6,[r0,#0]
        0x000012ee:    2052        R       MOVS     r0,#0x52
        0x000012f0:    0200        ..      LSLS     r0,r0,#8
        0x000012f2:    302c        ,0      ADDS     r0,r0,#0x2c
        0x000012f4:    0400        ..      LSLS     r0,r0,#16
        0x000012f6:    6807        .h      LDR      r7,[r0,#0]
        0x000012f8:    0438        8.      LSLS     r0,r7,#16
        0x000012fa:    1980        ..      ADDS     r0,r0,r6
        0x000012fc:    900b        ..      STR      r0,[sp,#0x2c]
        0x000012fe:    2052        R       MOVS     r0,#0x52
        0x00001300:    0200        ..      LSLS     r0,r0,#8
        0x00001302:    3030        00      ADDS     r0,r0,#0x30
        0x00001304:    0400        ..      LSLS     r0,r0,#16
        0x00001306:    6806        .h      LDR      r6,[r0,#0]
        0x00001308:    2052        R       MOVS     r0,#0x52
        0x0000130a:    0200        ..      LSLS     r0,r0,#8
        0x0000130c:    3034        40      ADDS     r0,r0,#0x34
        0x0000130e:    0400        ..      LSLS     r0,r0,#16
        0x00001310:    6807        .h      LDR      r7,[r0,#0]
        0x00001312:    0438        8.      LSLS     r0,r7,#16
        0x00001314:    1980        ..      ADDS     r0,r0,r6
        0x00001316:    9008        ..      STR      r0,[sp,#0x20]
        0x00001318:    2000        .       MOVS     r0,#0
        0x0000131a:    2129        )!      MOVS     r1,#0x29
        0x0000131c:    0649        I.      LSLS     r1,r1,#25
        0x0000131e:    6008        .`      STR      r0,[r1,#0]
        0x00001320:    203f        ?       MOVS     r0,#0x3f
        0x00001322:    0200        ..      LSLS     r0,r0,#8
        0x00001324:    30ff        .0      ADDS     r0,r0,#0xff
        0x00001326:    6008        .`      STR      r0,[r1,#0]
        0x00001328:    2020                MOVS     r0,#0x20
        0x0000132a:    0200        ..      LSLS     r0,r0,#8
        0x0000132c:    3000        .0      ADDS     r0,#0
        0x0000132e:    0200        ..      LSLS     r0,r0,#8
        0x00001330:    3001        .0      ADDS     r0,#1
        0x00001332:    0200        ..      LSLS     r0,r0,#8
        0x00001334:    30b0        .0      ADDS     r0,r0,#0xb0
        0x00001336:    7800        .x      LDRB     r0,[r0,#0]
        0x00001338:    2802        .(      CMP      r0,#2
        0x0000133a:    dd7d        }.      BLE      0x1438 ; optical_sfd_isr + 510
        0x0000133c:    211e        .!      MOVS     r1,#0x1e
        0x0000133e:    0209        ..      LSLS     r1,r1,#8
        0x00001340:    3178        x1      ADDS     r1,r1,#0x78
        0x00001342:    0209        ..      LSLS     r1,r1,#8
        0x00001344:    31c8        .1      ADDS     r1,r1,#0xc8
        0x00001346:    9809        ..      LDR      r0,[sp,#0x24]
        0x00001348:    4288        .B      CMP      r0,r1
        0x0000134a:    d210        ..      BCS      0x136e ; optical_sfd_isr + 308
        0x0000134c:    2d00        .-      CMP      r5,#0
        0x0000134e:    d10d        ..      BNE      0x136c ; optical_sfd_isr + 306
        0x00001350:    9807        ..      LDR      r0,[sp,#0x1c]
        0x00001352:    1e40        @.      SUBS     r0,r0,#1
        0x00001354:    9007        ..      STR      r0,[sp,#0x1c]
        0x00001356:    250a        .%      MOVS     r5,#0xa
        0x00001358:    2003        .       MOVS     r0,#3
        0x0000135a:    2120         !      MOVS     r1,#0x20
        0x0000135c:    0209        ..      LSLS     r1,r1,#8
        0x0000135e:    3100        .1      ADDS     r1,#0
        0x00001360:    0209        ..      LSLS     r1,r1,#8
        0x00001362:    3101        .1      ADDS     r1,#1
        0x00001364:    0209        ..      LSLS     r1,r1,#8
        0x00001366:    31b0        .1      ADDS     r1,r1,#0xb0
        0x00001368:    7008        .p      STRB     r0,[r1,#0]
        0x0000136a:    e000        ..      B        0x136e ; optical_sfd_isr + 308
        0x0000136c:    1e6d        m.      SUBS     r5,r5,#1
        0x0000136e:    211e        .!      MOVS     r1,#0x1e
        0x00001370:    0209        ..      LSLS     r1,r1,#8
        0x00001372:    3190        .1      ADDS     r1,r1,#0x90
        0x00001374:    0209        ..      LSLS     r1,r1,#8
        0x00001376:    3138        81      ADDS     r1,r1,#0x38
        0x00001378:    9809        ..      LDR      r0,[sp,#0x24]
        0x0000137a:    4288        .B      CMP      r0,r1
        0x0000137c:    d910        ..      BLS      0x13a0 ; optical_sfd_isr + 358
        0x0000137e:    2d1f        .-      CMP      r5,#0x1f
        0x00001380:    d10d        ..      BNE      0x139e ; optical_sfd_isr + 356
        0x00001382:    9807        ..      LDR      r0,[sp,#0x1c]
        0x00001384:    1c40        @.      ADDS     r0,r0,#1
        0x00001386:    9007        ..      STR      r0,[sp,#0x1c]
        0x00001388:    2514        .%      MOVS     r5,#0x14
        0x0000138a:    2003        .       MOVS     r0,#3
        0x0000138c:    2120         !      MOVS     r1,#0x20
        0x0000138e:    0209        ..      LSLS     r1,r1,#8
        0x00001390:    3100        .1      ADDS     r1,#0
        0x00001392:    0209        ..      LSLS     r1,r1,#8
        0x00001394:    3101        .1      ADDS     r1,#1
        0x00001396:    0209        ..      LSLS     r1,r1,#8
        0x00001398:    31b0        .1      ADDS     r1,r1,#0xb0
        0x0000139a:    7008        .p      STRB     r0,[r1,#0]
        0x0000139c:    e000        ..      B        0x13a0 ; optical_sfd_isr + 358
        0x0000139e:    1c6d        m.      ADDS     r5,r5,#1
        0x000013a0:    4629        )F      MOV      r1,r5
        0x000013a2:    9807        ..      LDR      r0,[sp,#0x1c]
        0x000013a4:    f003f95f    .._.    BL       set_sys_clk_secondary_freq ; 0x4666
        0x000013a8:    9807        ..      LDR      r0,[sp,#0x1c]
        0x000013aa:    f001ff91    ....    BL       scm3c_hw_interface_set_HF_CLOCK_coarse ; 0x32d0
        0x000013ae:    4628        (F      MOV      r0,r5
        0x000013b0:    f001ff85    ....    BL       scm3c_hw_interface_set_HF_CLOCK_fine ; 0x32be
        0x000013b4:    2020                MOVS     r0,#0x20
        0x000013b6:    0200        ..      LSLS     r0,r0,#8
        0x000013b8:    3000        .0      ADDS     r0,#0
        0x000013ba:    0200        ..      LSLS     r0,r0,#8
        0x000013bc:    3001        .0      ADDS     r0,#1
        0x000013be:    0200        ..      LSLS     r0,r0,#8
        0x000013c0:    30b0        .0      ADDS     r0,r0,#0xb0
        0x000013c2:    6980        .i      LDR      r0,[r0,#0x18]
        0x000013c4:    990b        ..      LDR      r1,[sp,#0x2c]
        0x000013c6:    4288        .B      CMP      r0,r1
        0x000013c8:    d210        ..      BCS      0x13ec ; optical_sfd_isr + 434
        0x000013ca:    2020                MOVS     r0,#0x20
        0x000013cc:    0200        ..      LSLS     r0,r0,#8
        0x000013ce:    3000        .0      ADDS     r0,#0
        0x000013d0:    0200        ..      LSLS     r0,r0,#8
        0x000013d2:    3001        .0      ADDS     r0,#1
        0x000013d4:    0200        ..      LSLS     r0,r0,#8
        0x000013d6:    30b0        .0      ADDS     r0,r0,#0xb0
        0x000013d8:    69c0        .i      LDR      r0,[r0,#0x1c]
        0x000013da:    1e40        @.      SUBS     r0,r0,#1
        0x000013dc:    2120         !      MOVS     r1,#0x20
        0x000013de:    0209        ..      LSLS     r1,r1,#8
        0x000013e0:    3100        .1      ADDS     r1,#0
        0x000013e2:    0209        ..      LSLS     r1,r1,#8
        0x000013e4:    3101        .1      ADDS     r1,#1
        0x000013e6:    0209        ..      LSLS     r1,r1,#8
        0x000013e8:    31b0        .1      ADDS     r1,r1,#0xb0
        0x000013ea:    61c8        .a      STR      r0,[r1,#0x1c]
        0x000013ec:    2020                MOVS     r0,#0x20
        0x000013ee:    0200        ..      LSLS     r0,r0,#8
        0x000013f0:    3000        .0      ADDS     r0,#0
        0x000013f2:    0200        ..      LSLS     r0,r0,#8
        0x000013f4:    3001        .0      ADDS     r0,#1
        0x000013f6:    0200        ..      LSLS     r0,r0,#8
        0x000013f8:    30b0        .0      ADDS     r0,r0,#0xb0
        0x000013fa:    6980        .i      LDR      r0,[r0,#0x18]
        0x000013fc:    4601        .F      MOV      r1,r0
        0x000013fe:    980b        ..      LDR      r0,[sp,#0x2c]
        0x00001400:    4281        .B      CMP      r1,r0
        0x00001402:    d910        ..      BLS      0x1426 ; optical_sfd_isr + 492
        0x00001404:    2020                MOVS     r0,#0x20
        0x00001406:    0200        ..      LSLS     r0,r0,#8
        0x00001408:    3000        .0      ADDS     r0,#0
        0x0000140a:    0200        ..      LSLS     r0,r0,#8
        0x0000140c:    3001        .0      ADDS     r0,#1
        0x0000140e:    0200        ..      LSLS     r0,r0,#8
        0x00001410:    30b0        .0      ADDS     r0,r0,#0xb0
        0x00001412:    69c0        .i      LDR      r0,[r0,#0x1c]
        0x00001414:    1c40        @.      ADDS     r0,r0,#1
        0x00001416:    2120         !      MOVS     r1,#0x20
        0x00001418:    0209        ..      LSLS     r1,r1,#8
        0x0000141a:    3100        .1      ADDS     r1,#0
        0x0000141c:    0209        ..      LSLS     r1,r1,#8
        0x0000141e:    3101        .1      ADDS     r1,#1
        0x00001420:    0209        ..      LSLS     r1,r1,#8
        0x00001422:    31b0        .1      ADDS     r1,r1,#0xb0
        0x00001424:    61c8        .a      STR      r0,[r1,#0x1c]
        0x00001426:    2120         !      MOVS     r1,#0x20
        0x00001428:    0209        ..      LSLS     r1,r1,#8
        0x0000142a:    3100        .1      ADDS     r1,#0
        0x0000142c:    0209        ..      LSLS     r1,r1,#8
        0x0000142e:    3101        .1      ADDS     r1,#1
        0x00001430:    0209        ..      LSLS     r1,r1,#8
        0x00001432:    31b0        .1      ADDS     r1,r1,#0xb0
        0x00001434:    69c8        .i      LDR      r0,[r1,#0x1c]
        0x00001436:    e000        ..      B        0x143a ; optical_sfd_isr + 512
        0x00001438:    e077        w.      B        0x152a ; optical_sfd_isr + 752
        0x0000143a:    f003f9f9    ....    BL       LC_monotonic ; 0x4830
        0x0000143e:    2003        .       MOVS     r0,#3
        0x00001440:    0200        ..      LSLS     r0,r0,#8
        0x00001442:    300f        .0      ADDS     r0,r0,#0xf
        0x00001444:    0200        ..      LSLS     r0,r0,#8
        0x00001446:    3098        .0      ADDS     r0,r0,#0x98
        0x00001448:    4284        .B      CMP      r4,r0
        0x0000144a:    d903        ..      BLS      0x1454 ; optical_sfd_isr + 538
        0x0000144c:    9806        ..      LDR      r0,[sp,#0x18]
        0x0000144e:    1c40        @.      ADDS     r0,r0,#1
        0x00001450:    9006        ..      STR      r0,[sp,#0x18]
        0x00001452:    e014        ..      B        0x147e ; optical_sfd_isr + 580
        0x00001454:    2003        .       MOVS     r0,#3
        0x00001456:    0200        ..      LSLS     r0,r0,#8
        0x00001458:    300d        .0      ADDS     r0,r0,#0xd
        0x0000145a:    0200        ..      LSLS     r0,r0,#8
        0x0000145c:    3090        .0      ADDS     r0,r0,#0x90
        0x0000145e:    4284        .B      CMP      r4,r0
        0x00001460:    d903        ..      BLS      0x146a ; optical_sfd_isr + 560
        0x00001462:    9805        ..      LDR      r0,[sp,#0x14]
        0x00001464:    1c40        @.      ADDS     r0,r0,#1
        0x00001466:    9005        ..      STR      r0,[sp,#0x14]
        0x00001468:    e009        ..      B        0x147e ; optical_sfd_isr + 580
        0x0000146a:    2003        .       MOVS     r0,#3
        0x0000146c:    0200        ..      LSLS     r0,r0,#8
        0x0000146e:    300d        .0      ADDS     r0,r0,#0xd
        0x00001470:    0200        ..      LSLS     r0,r0,#8
        0x00001472:    304f        O0      ADDS     r0,r0,#0x4f
        0x00001474:    4284        .B      CMP      r4,r0
        0x00001476:    d902        ..      BLS      0x147e ; optical_sfd_isr + 580
        0x00001478:    9804        ..      LDR      r0,[sp,#0x10]
        0x0000147a:    1c40        @.      ADDS     r0,r0,#1
        0x0000147c:    9004        ..      STR      r0,[sp,#0x10]
        0x0000147e:    2003        .       MOVS     r0,#3
        0x00001480:    0200        ..      LSLS     r0,r0,#8
        0x00001482:    300a        .0      ADDS     r0,r0,#0xa
        0x00001484:    0200        ..      LSLS     r0,r0,#8
        0x00001486:    30e8        .0      ADDS     r0,r0,#0xe8
        0x00001488:    4284        .B      CMP      r4,r0
        0x0000148a:    d203        ..      BCS      0x1494 ; optical_sfd_isr + 602
        0x0000148c:    9806        ..      LDR      r0,[sp,#0x18]
        0x0000148e:    1e40        @.      SUBS     r0,r0,#1
        0x00001490:    9006        ..      STR      r0,[sp,#0x18]
        0x00001492:    e014        ..      B        0x14be ; optical_sfd_isr + 644
        0x00001494:    2003        .       MOVS     r0,#3
        0x00001496:    0200        ..      LSLS     r0,r0,#8
        0x00001498:    300c        .0      ADDS     r0,r0,#0xc
        0x0000149a:    0200        ..      LSLS     r0,r0,#8
        0x0000149c:    30f0        .0      ADDS     r0,r0,#0xf0
        0x0000149e:    4284        .B      CMP      r4,r0
        0x000014a0:    d203        ..      BCS      0x14aa ; optical_sfd_isr + 624
        0x000014a2:    9805        ..      LDR      r0,[sp,#0x14]
        0x000014a4:    1e40        @.      SUBS     r0,r0,#1
        0x000014a6:    9005        ..      STR      r0,[sp,#0x14]
        0x000014a8:    e009        ..      B        0x14be ; optical_sfd_isr + 644
        0x000014aa:    2003        .       MOVS     r0,#3
        0x000014ac:    0200        ..      LSLS     r0,r0,#8
        0x000014ae:    300d        .0      ADDS     r0,r0,#0xd
        0x000014b0:    0200        ..      LSLS     r0,r0,#8
        0x000014b2:    3031        10      ADDS     r0,r0,#0x31
        0x000014b4:    4284        .B      CMP      r4,r0
        0x000014b6:    d202        ..      BCS      0x14be ; optical_sfd_isr + 644
        0x000014b8:    9804        ..      LDR      r0,[sp,#0x10]
        0x000014ba:    1e40        @.      SUBS     r0,r0,#1
        0x000014bc:    9004        ..      STR      r0,[sp,#0x10]
        0x000014be:    9804        ..      LDR      r0,[sp,#0x10]
        0x000014c0:    9000        ..      STR      r0,[sp,#0]
        0x000014c2:    211f        .!      MOVS     r1,#0x1f
        0x000014c4:    4608        .F      MOV      r0,r1
        0x000014c6:    9b05        ..      LDR      r3,[sp,#0x14]
        0x000014c8:    9a06        ..      LDR      r2,[sp,#0x18]
        0x000014ca:    f003fa13    ....    BL       set_2M_RC_frequency ; 0x48f4
        0x000014ce:    9806        ..      LDR      r0,[sp,#0x18]
        0x000014d0:    f001ff07    ....    BL       scm3c_hw_interface_set_RC2M_coarse ; 0x32e2
        0x000014d4:    9805        ..      LDR      r0,[sp,#0x14]
        0x000014d6:    f001ff0d    ....    BL       scm3c_hw_interface_set_RC2M_fine ; 0x32f4
        0x000014da:    9804        ..      LDR      r0,[sp,#0x10]
        0x000014dc:    f001ff13    ....    BL       scm3c_hw_interface_set_RC2M_superfine ; 0x3306
        0x000014e0:    2118        .!      MOVS     r1,#0x18
        0x000014e2:    0209        ..      LSLS     r1,r1,#8
        0x000014e4:    316f        o1      ADDS     r1,r1,#0x6f
        0x000014e6:    0209        ..      LSLS     r1,r1,#8
        0x000014e8:    3178        x1      ADDS     r1,r1,#0x78
        0x000014ea:    9808        ..      LDR      r0,[sp,#0x20]
        0x000014ec:    4288        .B      CMP      r0,r1
        0x000014ee:    d902        ..      BLS      0x14f6 ; optical_sfd_isr + 700
        0x000014f0:    9801        ..      LDR      r0,[sp,#4]
        0x000014f2:    1c40        @.      ADDS     r0,r0,#1
        0x000014f4:    9001        ..      STR      r0,[sp,#4]
        0x000014f6:    2118        .!      MOVS     r1,#0x18
        0x000014f8:    0209        ..      LSLS     r1,r1,#8
        0x000014fa:    3164        d1      ADDS     r1,r1,#0x64
        0x000014fc:    0209        ..      LSLS     r1,r1,#8
        0x000014fe:    3188        .1      ADDS     r1,r1,#0x88
        0x00001500:    9808        ..      LDR      r0,[sp,#0x20]
        0x00001502:    4288        .B      CMP      r0,r1
        0x00001504:    d202        ..      BCS      0x150c ; optical_sfd_isr + 722
        0x00001506:    9801        ..      LDR      r0,[sp,#4]
        0x00001508:    1e40        @.      SUBS     r0,r0,#1
        0x0000150a:    9001        ..      STR      r0,[sp,#4]
        0x0000150c:    2200        ."      MOVS     r2,#0
        0x0000150e:    2116        .!      MOVS     r1,#0x16
        0x00001510:    2017        .       MOVS     r0,#0x17
        0x00001512:    f003f86a    ..j.    BL       set_IF_clock_frequency ; 0x45ea
        0x00001516:    2017        .       MOVS     r0,#0x17
        0x00001518:    f001ff07    ....    BL       scm3c_hw_interface_set_IF_coarse ; 0x332a
        0x0000151c:    2016        .       MOVS     r0,#0x16
        0x0000151e:    f001ff0d    ....    BL       scm3c_hw_interface_set_IF_fine ; 0x333c
        0x00001522:    f003f902    ....    BL       analog_scan_chain_write ; 0x472a
        0x00001526:    f003f8f7    ....    BL       analog_scan_chain_load ; 0x4718
        0x0000152a:    9806        ..      LDR      r0,[sp,#0x18]
        0x0000152c:    4623        #F      MOV      r3,r4
        0x0000152e:    462a        *F      MOV      r2,r5
        0x00001530:    9000        ..      STR      r0,[sp,#0]
        0x00001532:    2000        .       MOVS     r0,#0
        0x00001534:    0200        ..      LSLS     r0,r0,#8
        0x00001536:    3000        .0      ADDS     r0,#0
        0x00001538:    0200        ..      LSLS     r0,r0,#8
        0x0000153a:    3059        Y0      ADDS     r0,r0,#0x59
        0x0000153c:    0200        ..      LSLS     r0,r0,#8
        0x0000153e:    309c        .0      ADDS     r0,r0,#0x9c
        0x00001540:    9909        ..      LDR      r1,[sp,#0x24]
        0x00001542:    f003fbff    ....    BL       __2printf ; 0x4d44
        0x00001546:    2020                MOVS     r0,#0x20
        0x00001548:    0200        ..      LSLS     r0,r0,#8
        0x0000154a:    3000        .0      ADDS     r0,#0
        0x0000154c:    0200        ..      LSLS     r0,r0,#8
        0x0000154e:    3001        .0      ADDS     r0,#1
        0x00001550:    0200        ..      LSLS     r0,r0,#8
        0x00001552:    30b0        .0      ADDS     r0,r0,#0xb0
        0x00001554:    69c0        .i      LDR      r0,[r0,#0x1c]
        0x00001556:    9000        ..      STR      r0,[sp,#0]
        0x00001558:    2000        .       MOVS     r0,#0
        0x0000155a:    0200        ..      LSLS     r0,r0,#8
        0x0000155c:    3000        .0      ADDS     r0,#0
        0x0000155e:    0200        ..      LSLS     r0,r0,#8
        0x00001560:    3059        Y0      ADDS     r0,r0,#0x59
        0x00001562:    0200        ..      LSLS     r0,r0,#8
        0x00001564:    30b0        .0      ADDS     r0,r0,#0xb0
        0x00001566:    9b0b        ..      LDR      r3,[sp,#0x2c]
        0x00001568:    9a04        ..      LDR      r2,[sp,#0x10]
        0x0000156a:    9905        ..      LDR      r1,[sp,#0x14]
        0x0000156c:    f003fbea    ....    BL       __2printf ; 0x4d44
        0x00001570:    2000        .       MOVS     r0,#0
        0x00001572:    0200        ..      LSLS     r0,r0,#8
        0x00001574:    3000        .0      ADDS     r0,#0
        0x00001576:    0200        ..      LSLS     r0,r0,#8
        0x00001578:    3059        Y0      ADDS     r0,r0,#0x59
        0x0000157a:    0200        ..      LSLS     r0,r0,#8
        0x0000157c:    30c8        .0      ADDS     r0,r0,#0xc8
        0x0000157e:    9a01        ..      LDR      r2,[sp,#4]
        0x00001580:    9908        ..      LDR      r1,[sp,#0x20]
        0x00001582:    f003fbdf    ....    BL       __2printf ; 0x4d44
        0x00001586:    2020                MOVS     r0,#0x20
        0x00001588:    0200        ..      LSLS     r0,r0,#8
        0x0000158a:    3000        .0      ADDS     r0,#0
        0x0000158c:    0200        ..      LSLS     r0,r0,#8
        0x0000158e:    3001        .0      ADDS     r0,#1
        0x00001590:    0200        ..      LSLS     r0,r0,#8
        0x00001592:    30b0        .0      ADDS     r0,r0,#0xb0
        0x00001594:    7800        .x      LDRB     r0,[r0,#0]
        0x00001596:    2819        .(      CMP      r0,#0x19
        0x00001598:    d120         .      BNE      0x15dc ; optical_sfd_isr + 930
        0x0000159a:    2003        .       MOVS     r0,#3
        0x0000159c:    02c0        ..      LSLS     r0,r0,#11
        0x0000159e:    21e0        .!      MOVS     r1,#0xe0
        0x000015a0:    0409        ..      LSLS     r1,r1,#16
        0x000015a2:    31e1        .1      ADDS     r1,r1,#0xe1
        0x000015a4:    0209        ..      LSLS     r1,r1,#8
        0x000015a6:    3180        .1      ADDS     r1,r1,#0x80
        0x000015a8:    6008        .`      STR      r0,[r1,#0]
        0x000015aa:    2000        .       MOVS     r0,#0
        0x000015ac:    2120         !      MOVS     r1,#0x20
        0x000015ae:    0209        ..      LSLS     r1,r1,#8
        0x000015b0:    3100        .1      ADDS     r1,#0
        0x000015b2:    0209        ..      LSLS     r1,r1,#8
        0x000015b4:    3101        .1      ADDS     r1,#1
        0x000015b6:    0209        ..      LSLS     r1,r1,#8
        0x000015b8:    31b0        .1      ADDS     r1,r1,#0xb0
        0x000015ba:    7008        .p      STRB     r0,[r1,#0]
        0x000015bc:    2001        .       MOVS     r0,#1
        0x000015be:    7048        Hp      STRB     r0,[r1,#1]
        0x000015c0:    980a        ..      LDR      r0,[sp,#0x28]
        0x000015c2:    6048        H`      STR      r0,[r1,#4]
        0x000015c4:    4608        .F      MOV      r0,r1
        0x000015c6:    6084        .`      STR      r4,[r0,#8]
        0x000015c8:    9808        ..      LDR      r0,[sp,#0x20]
        0x000015ca:    60c8        .`      STR      r0,[r1,#0xc]
        0x000015cc:    980b        ..      LDR      r0,[sp,#0x2c]
        0x000015ce:    6108        .a      STR      r0,[r1,#0x10]
        0x000015d0:    9809        ..      LDR      r0,[sp,#0x24]
        0x000015d2:    6148        Ha      STR      r0,[r1,#0x14]
        0x000015d4:    2000        .       MOVS     r0,#0
        0x000015d6:    2129        )!      MOVS     r1,#0x29
        0x000015d8:    0649        I.      LSLS     r1,r1,#25
        0x000015da:    6008        .`      STR      r0,[r1,#0]
        0x000015dc:    b00d        ..      ADD      sp,sp,#0x34
        0x000015de:    bdf0        ..      POP      {r4-r7,pc}
    .text
    radio_txEnable
        0x000015e0:    2068        h       MOVS     r0,#0x68
        0x000015e2:    2152        R!      MOVS     r1,#0x52
        0x000015e4:    0209        ..      LSLS     r1,r1,#8
        0x000015e6:    3128        (1      ADDS     r1,r1,#0x28
        0x000015e8:    0409        ..      LSLS     r1,r1,#16
        0x000015ea:    6008        .`      STR      r0,[r1,#0]
        0x000015ec:    2006        .       MOVS     r0,#6
        0x000015ee:    2152        R!      MOVS     r1,#0x52
        0x000015f0:    0209        ..      LSLS     r1,r1,#8
        0x000015f2:    3140        @1      ADDS     r1,r1,#0x40
        0x000015f4:    0409        ..      LSLS     r1,r1,#16
        0x000015f6:    6008        .`      STR      r0,[r1,#0]
        0x000015f8:    4770        pG      BX       lr
    radio_loadPacket
        0x000015fa:    b570        p.      PUSH     {r4-r6,lr}
        0x000015fc:    4605        .F      MOV      r5,r0
        0x000015fe:    460c        .F      MOV      r4,r1
        0x00001600:    4622        "F      MOV      r2,r4
        0x00001602:    4629        )F      MOV      r1,r5
        0x00001604:    2020                MOVS     r0,#0x20
        0x00001606:    0200        ..      LSLS     r0,r0,#8
        0x00001608:    3000        .0      ADDS     r0,#0
        0x0000160a:    0200        ..      LSLS     r0,r0,#8
        0x0000160c:    3003        .0      ADDS     r0,#3
        0x0000160e:    0200        ..      LSLS     r0,r0,#8
        0x00001610:    308c        .0      ADDS     r0,r0,#0x8c
        0x00001612:    f003fc3d    ..=.    BL       __aeabi_memcpy ; 0x4e90
        0x00001616:    2020                MOVS     r0,#0x20
        0x00001618:    0200        ..      LSLS     r0,r0,#8
        0x0000161a:    3000        .0      ADDS     r0,#0
        0x0000161c:    0200        ..      LSLS     r0,r0,#8
        0x0000161e:    3003        .0      ADDS     r0,#3
        0x00001620:    0200        ..      LSLS     r0,r0,#8
        0x00001622:    308c        .0      ADDS     r0,r0,#0x8c
        0x00001624:    2101        .!      MOVS     r1,#1
        0x00001626:    0789        ..      LSLS     r1,r1,#30
        0x00001628:    6088        .`      STR      r0,[r1,#8]
        0x0000162a:    4608        .F      MOV      r0,r1
        0x0000162c:    60c4        .`      STR      r4,[r0,#0xc]
        0x0000162e:    2001        .       MOVS     r0,#1
        0x00001630:    6008        .`      STR      r0,[r1,#0]
        0x00001632:    bd70        p.      POP      {r4-r6,pc}
    radio_reset
        0x00001634:    2010        .       MOVS     r0,#0x10
        0x00001636:    0681        ..      LSLS     r1,r0,#26
        0x00001638:    6008        .`      STR      r0,[r1,#0]
        0x0000163a:    4770        pG      BX       lr
    radio_rfOff
        0x0000163c:    b500        ..      PUSH     {lr}
        0x0000163e:    f7fffff9    ....    BL       radio_reset ; 0x1634
        0x00001642:    2001        .       MOVS     r0,#1
        0x00001644:    0340        @.      LSLS     r0,r0,#13
        0x00001646:    2152        R!      MOVS     r1,#0x52
        0x00001648:    0209        ..      LSLS     r1,r1,#8
        0x0000164a:    3110        .1      ADDS     r1,r1,#0x10
        0x0000164c:    0409        ..      LSLS     r1,r1,#16
        0x0000164e:    6008        .`      STR      r0,[r1,#0]
        0x00001650:    2000        .       MOVS     r0,#0
        0x00001652:    2152        R!      MOVS     r1,#0x52
        0x00001654:    0209        ..      LSLS     r1,r1,#8
        0x00001656:    3128        (1      ADDS     r1,r1,#0x28
        0x00001658:    0409        ..      LSLS     r1,r1,#16
        0x0000165a:    6008        .`      STR      r0,[r1,#0]
        0x0000165c:    bd00        ..      POP      {pc}
    radio_txNow
        0x0000165e:    2002        .       MOVS     r0,#2
        0x00001660:    0741        A.      LSLS     r1,r0,#29
        0x00001662:    6008        .`      STR      r0,[r1,#0]
        0x00001664:    4770        pG      BX       lr
    cb_timer_radio
        0x00001666:    b500        ..      PUSH     {lr}
        0x00001668:    2020                MOVS     r0,#0x20
        0x0000166a:    0200        ..      LSLS     r0,r0,#8
        0x0000166c:    3000        .0      ADDS     r0,#0
        0x0000166e:    0200        ..      LSLS     r0,r0,#8
        0x00001670:    3003        .0      ADDS     r0,#3
        0x00001672:    0200        ..      LSLS     r0,r0,#8
        0x00001674:    3078        x0      ADDS     r0,r0,#0x78
        0x00001676:    7800        .x      LDRB     r0,[r0,#0]
        0x00001678:    2801        .(      CMP      r0,#1
        0x0000167a:    d102        ..      BNE      0x1682 ; cb_timer_radio + 28
        0x0000167c:    f7ffffef    ....    BL       radio_txNow ; 0x165e
        0x00001680:    e014        ..      B        0x16ac ; cb_timer_radio + 70
        0x00001682:    2020                MOVS     r0,#0x20
        0x00001684:    0200        ..      LSLS     r0,r0,#8
        0x00001686:    3000        .0      ADDS     r0,#0
        0x00001688:    0200        ..      LSLS     r0,r0,#8
        0x0000168a:    3003        .0      ADDS     r0,#3
        0x0000168c:    0200        ..      LSLS     r0,r0,#8
        0x0000168e:    3078        x0      ADDS     r0,r0,#0x78
        0x00001690:    7800        .x      LDRB     r0,[r0,#0]
        0x00001692:    2802        .(      CMP      r0,#2
        0x00001694:    d10a        ..      BNE      0x16ac ; cb_timer_radio + 70
        0x00001696:    2001        .       MOVS     r0,#1
        0x00001698:    2120         !      MOVS     r1,#0x20
        0x0000169a:    0209        ..      LSLS     r1,r1,#8
        0x0000169c:    3100        .1      ADDS     r1,#0
        0x0000169e:    0209        ..      LSLS     r1,r1,#8
        0x000016a0:    3106        .1      ADDS     r1,#6
        0x000016a2:    0209        ..      LSLS     r1,r1,#8
        0x000016a4:    3118        .1      ADDS     r1,r1,#0x18
        0x000016a6:    71c8        .q      STRB     r0,[r1,#7]
        0x000016a8:    f7ffffc8    ....    BL       radio_rfOff ; 0x163c
        0x000016ac:    bd00        ..      POP      {pc}
    send_packet
        0x000016ae:    b570        p.      PUSH     {r4-r6,lr}
        0x000016b0:    4604        .F      MOV      r4,r0
        0x000016b2:    460d        .F      MOV      r5,r1
        0x000016b4:    2001        .       MOVS     r0,#1
        0x000016b6:    2120         !      MOVS     r1,#0x20
        0x000016b8:    0209        ..      LSLS     r1,r1,#8
        0x000016ba:    3100        .1      ADDS     r1,#0
        0x000016bc:    0209        ..      LSLS     r1,r1,#8
        0x000016be:    3103        .1      ADDS     r1,#3
        0x000016c0:    0209        ..      LSLS     r1,r1,#8
        0x000016c2:    3178        x1      ADDS     r1,r1,#0x78
        0x000016c4:    7008        .p      STRB     r0,[r1,#0]
        0x000016c6:    2000        .       MOVS     r0,#0
        0x000016c8:    0200        ..      LSLS     r0,r0,#8
        0x000016ca:    3000        .0      ADDS     r0,#0
        0x000016cc:    0200        ..      LSLS     r0,r0,#8
        0x000016ce:    3016        .0      ADDS     r0,r0,#0x16
        0x000016d0:    0200        ..      LSLS     r0,r0,#8
        0x000016d2:    3067        g0      ADDS     r0,r0,#0x67
        0x000016d4:    f001fc6e    ..n.    BL       rftimer_set_callback ; 0x2fb4
        0x000016d8:    4629        )F      MOV      r1,r5
        0x000016da:    4620         F      MOV      r0,r4
        0x000016dc:    f7ffff8d    ....    BL       radio_loadPacket ; 0x15fa
        0x000016e0:    f7ffff7e    ..~.    BL       radio_txEnable ; 0x15e0
        0x000016e4:    f001fcb4    ....    BL       rftimer_readCounter ; 0x3050
        0x000016e8:    217d        }!      MOVS     r1,#0x7d
        0x000016ea:    0109        ..      LSLS     r1,r1,#4
        0x000016ec:    1846        F.      ADDS     r6,r0,r1
        0x000016ee:    4630        0F      MOV      r0,r6
        0x000016f0:    f001fca7    ....    BL       rftimer_setCompareIn ; 0x3042
        0x000016f4:    2100        .!      MOVS     r1,#0
        0x000016f6:    2020                MOVS     r0,#0x20
        0x000016f8:    0200        ..      LSLS     r0,r0,#8
        0x000016fa:    3000        .0      ADDS     r0,#0
        0x000016fc:    0200        ..      LSLS     r0,r0,#8
        0x000016fe:    3004        .0      ADDS     r0,#4
        0x00001700:    0200        ..      LSLS     r0,r0,#8
        0x00001702:    30f8        .0      ADDS     r0,r0,#0xf8
        0x00001704:    7701        .w      STRB     r1,[r0,#0x1c]
        0x00001706:    bf00        ..      NOP      
        0x00001708:    2020                MOVS     r0,#0x20
        0x0000170a:    0200        ..      LSLS     r0,r0,#8
        0x0000170c:    3000        .0      ADDS     r0,#0
        0x0000170e:    0200        ..      LSLS     r0,r0,#8
        0x00001710:    3004        .0      ADDS     r0,#4
        0x00001712:    0200        ..      LSLS     r0,r0,#8
        0x00001714:    30f8        .0      ADDS     r0,r0,#0xf8
        0x00001716:    7f00        ..      LDRB     r0,[r0,#0x1c]
        0x00001718:    2800        .(      CMP      r0,#0
        0x0000171a:    d0f5        ..      BEQ      0x1708 ; send_packet + 90
        0x0000171c:    bd70        p.      POP      {r4-r6,pc}
    radio_rxNow
        0x0000171e:    2001        .       MOVS     r0,#1
        0x00001720:    0340        @.      LSLS     r0,r0,#13
        0x00001722:    2152        R!      MOVS     r1,#0x52
        0x00001724:    0209        ..      LSLS     r1,r1,#8
        0x00001726:    3110        .1      ADDS     r1,r1,#0x10
        0x00001728:    0409        ..      LSLS     r1,r1,#16
        0x0000172a:    6008        .`      STR      r0,[r1,#0]
        0x0000172c:    2005        .       MOVS     r0,#5
        0x0000172e:    02c0        ..      LSLS     r0,r0,#11
        0x00001730:    6008        .`      STR      r0,[r1,#0]
        0x00001732:    2004        .       MOVS     r0,#4
        0x00001734:    0701        ..      LSLS     r1,r0,#28
        0x00001736:    6008        .`      STR      r0,[r1,#0]
        0x00001738:    4770        pG      BX       lr
    radio_rxEnable
        0x0000173a:    2058        X       MOVS     r0,#0x58
        0x0000173c:    2152        R!      MOVS     r1,#0x52
        0x0000173e:    0209        ..      LSLS     r1,r1,#8
        0x00001740:    3128        (1      ADDS     r1,r1,#0x28
        0x00001742:    0409        ..      LSLS     r1,r1,#16
        0x00001744:    6008        .`      STR      r0,[r1,#0]
        0x00001746:    2001        .       MOVS     r0,#1
        0x00001748:    2152        R!      MOVS     r1,#0x52
        0x0000174a:    0209        ..      LSLS     r1,r1,#8
        0x0000174c:    3140        @1      ADDS     r1,r1,#0x40
        0x0000174e:    0409        ..      LSLS     r1,r1,#16
        0x00001750:    6008        .`      STR      r0,[r1,#0]
        0x00001752:    2020                MOVS     r0,#0x20
        0x00001754:    0200        ..      LSLS     r0,r0,#8
        0x00001756:    3000        .0      ADDS     r0,#0
        0x00001758:    0200        ..      LSLS     r0,r0,#8
        0x0000175a:    3004        .0      ADDS     r0,#4
        0x0000175c:    0200        ..      LSLS     r0,r0,#8
        0x0000175e:    300c        .0      ADDS     r0,r0,#0xc
        0x00001760:    2141        A!      MOVS     r1,#0x41
        0x00001762:    0609        ..      LSLS     r1,r1,#24
        0x00001764:    6148        Ha      STR      r0,[r1,#0x14]
        0x00001766:    2010        .       MOVS     r0,#0x10
        0x00001768:    0681        ..      LSLS     r1,r0,#26
        0x0000176a:    6008        .`      STR      r0,[r1,#0]
        0x0000176c:    4770        pG      BX       lr
    receive_packet_length
        0x0000176e:    b570        p.      PUSH     {r4-r6,lr}
        0x00001770:    4605        .F      MOV      r5,r0
        0x00001772:    460c        .F      MOV      r4,r1
        0x00001774:    2002        .       MOVS     r0,#2
        0x00001776:    2120         !      MOVS     r1,#0x20
        0x00001778:    0209        ..      LSLS     r1,r1,#8
        0x0000177a:    3100        .1      ADDS     r1,#0
        0x0000177c:    0209        ..      LSLS     r1,r1,#8
        0x0000177e:    3103        .1      ADDS     r1,#3
        0x00001780:    0209        ..      LSLS     r1,r1,#8
        0x00001782:    3178        x1      ADDS     r1,r1,#0x78
        0x00001784:    7008        .p      STRB     r0,[r1,#0]
        0x00001786:    2dff        .-      CMP      r5,#0xff
        0x00001788:    dc01        ..      BGT      0x178e ; receive_packet_length + 32
        0x0000178a:    4628        (F      MOV      r0,r5
        0x0000178c:    e000        ..      B        0x1790 ; receive_packet_length + 34
        0x0000178e:    20ff        .       MOVS     r0,#0xff
        0x00001790:    2120         !      MOVS     r1,#0x20
        0x00001792:    0209        ..      LSLS     r1,r1,#8
        0x00001794:    3100        .1      ADDS     r1,#0
        0x00001796:    0209        ..      LSLS     r1,r1,#8
        0x00001798:    3105        .1      ADDS     r1,#5
        0x0000179a:    0209        ..      LSLS     r1,r1,#8
        0x0000179c:    31f8        .1      ADDS     r1,r1,#0xf8
        0x0000179e:    7708        .w      STRB     r0,[r1,#0x1c]
        0x000017a0:    2c00        .,      CMP      r4,#0
        0x000017a2:    d008        ..      BEQ      0x17b6 ; receive_packet_length + 72
        0x000017a4:    2000        .       MOVS     r0,#0
        0x000017a6:    0200        ..      LSLS     r0,r0,#8
        0x000017a8:    3000        .0      ADDS     r0,#0
        0x000017aa:    0200        ..      LSLS     r0,r0,#8
        0x000017ac:    3016        .0      ADDS     r0,r0,#0x16
        0x000017ae:    0200        ..      LSLS     r0,r0,#8
        0x000017b0:    3067        g0      ADDS     r0,r0,#0x67
        0x000017b2:    f001fbff    ....    BL       rftimer_set_callback ; 0x2fb4
        0x000017b6:    2100        .!      MOVS     r1,#0
        0x000017b8:    2020                MOVS     r0,#0x20
        0x000017ba:    0200        ..      LSLS     r0,r0,#8
        0x000017bc:    3000        .0      ADDS     r0,#0
        0x000017be:    0200        ..      LSLS     r0,r0,#8
        0x000017c0:    3006        .0      ADDS     r0,#6
        0x000017c2:    0200        ..      LSLS     r0,r0,#8
        0x000017c4:    3018        .0      ADDS     r0,r0,#0x18
        0x000017c6:    7201        .r      STRB     r1,[r0,#8]
        0x000017c8:    f7ffffb7    ....    BL       radio_rxEnable ; 0x173a
        0x000017cc:    f7ffffa7    ....    BL       radio_rxNow ; 0x171e
        0x000017d0:    2c00        .,      CMP      r4,#0
        0x000017d2:    d007        ..      BEQ      0x17e4 ; receive_packet_length + 118
        0x000017d4:    f001fc3c    ..<.    BL       rftimer_readCounter ; 0x3050
        0x000017d8:    217d        }!      MOVS     r1,#0x7d
        0x000017da:    0109        ..      LSLS     r1,r1,#4
        0x000017dc:    1846        F.      ADDS     r6,r0,r1
        0x000017de:    4630        0F      MOV      r0,r6
        0x000017e0:    f001fc2f    ../.    BL       rftimer_setCompareIn ; 0x3042
        0x000017e4:    2000        .       MOVS     r0,#0
        0x000017e6:    2120         !      MOVS     r1,#0x20
        0x000017e8:    0209        ..      LSLS     r1,r1,#8
        0x000017ea:    3100        .1      ADDS     r1,#0
        0x000017ec:    0209        ..      LSLS     r1,r1,#8
        0x000017ee:    3106        .1      ADDS     r1,#6
        0x000017f0:    0209        ..      LSLS     r1,r1,#8
        0x000017f2:    3118        .1      ADDS     r1,r1,#0x18
        0x000017f4:    71c8        .q      STRB     r0,[r1,#7]
        0x000017f6:    bf00        ..      NOP      
        0x000017f8:    2020                MOVS     r0,#0x20
        0x000017fa:    0200        ..      LSLS     r0,r0,#8
        0x000017fc:    3000        .0      ADDS     r0,#0
        0x000017fe:    0200        ..      LSLS     r0,r0,#8
        0x00001800:    3006        .0      ADDS     r0,#6
        0x00001802:    0200        ..      LSLS     r0,r0,#8
        0x00001804:    3018        .0      ADDS     r0,r0,#0x18
        0x00001806:    79c0        .y      LDRB     r0,[r0,#7]
        0x00001808:    2800        .(      CMP      r0,#0
        0x0000180a:    d0f5        ..      BEQ      0x17f8 ; receive_packet_length + 138
        0x0000180c:    bd70        p.      POP      {r4-r6,pc}
    receive_packet
        0x0000180e:    b510        ..      PUSH     {r4,lr}
        0x00001810:    4604        .F      MOV      r4,r0
        0x00001812:    4621        !F      MOV      r1,r4
        0x00001814:    20ff        .       MOVS     r0,#0xff
        0x00001816:    f7ffffaa    ....    BL       receive_packet_length ; 0x176e
        0x0000181a:    bd10        ..      POP      {r4,pc}
    cb_startFrame_tx_radio
        0x0000181c:    4770        pG      BX       lr
    cb_endFrame_tx_radio
        0x0000181e:    b500        ..      PUSH     {lr}
        0x00001820:    4602        .F      MOV      r2,r0
        0x00001822:    f7ffff0b    ....    BL       radio_rfOff ; 0x163c
        0x00001826:    2101        .!      MOVS     r1,#1
        0x00001828:    2020                MOVS     r0,#0x20
        0x0000182a:    0200        ..      LSLS     r0,r0,#8
        0x0000182c:    3000        .0      ADDS     r0,#0
        0x0000182e:    0200        ..      LSLS     r0,r0,#8
        0x00001830:    3004        .0      ADDS     r0,#4
        0x00001832:    0200        ..      LSLS     r0,r0,#8
        0x00001834:    30f8        .0      ADDS     r0,r0,#0xf8
        0x00001836:    7701        .w      STRB     r1,[r0,#0x1c]
        0x00001838:    bd00        ..      POP      {pc}
    cb_startFrame_rx_radio
        0x0000183a:    2101        .!      MOVS     r1,#1
        0x0000183c:    2220         "      MOVS     r2,#0x20
        0x0000183e:    0212        ..      LSLS     r2,r2,#8
        0x00001840:    3200        .2      ADDS     r2,#0
        0x00001842:    0212        ..      LSLS     r2,r2,#8
        0x00001844:    3206        .2      ADDS     r2,#6
        0x00001846:    0212        ..      LSLS     r2,r2,#8
        0x00001848:    3218        .2      ADDS     r2,r2,#0x18
        0x0000184a:    7211        .r      STRB     r1,[r2,#8]
        0x0000184c:    4770        pG      BX       lr
    radio_getLQIchipErrors
        0x0000184e:    2052        R       MOVS     r0,#0x52
        0x00001850:    0200        ..      LSLS     r0,r0,#8
        0x00001852:    3054        T0      ADDS     r0,r0,#0x54
        0x00001854:    0400        ..      LSLS     r0,r0,#16
        0x00001856:    6800        .h      LDR      r0,[r0,#0]
        0x00001858:    4770        pG      BX       lr
    radio_getIFestimate
        0x0000185a:    b510        ..      PUSH     {r4,lr}
        0x0000185c:    f002fea3    ....    BL       read_IF_estimate ; 0x45a6
        0x00001860:    bd10        ..      POP      {r4,pc}
    radio_getCrcOk
        0x00001862:    2020                MOVS     r0,#0x20
        0x00001864:    0200        ..      LSLS     r0,r0,#8
        0x00001866:    3000        .0      ADDS     r0,#0
        0x00001868:    0200        ..      LSLS     r0,r0,#8
        0x0000186a:    3004        .0      ADDS     r0,#4
        0x0000186c:    0200        ..      LSLS     r0,r0,#8
        0x0000186e:    3078        x0      ADDS     r0,r0,#0x78
        0x00001870:    7d40        @}      LDRB     r0,[r0,#0x15]
        0x00001872:    4770        pG      BX       lr
    radio_getReceivedFrame
        0x00001874:    b5ff        ..      PUSH     {r0-r7,lr}
        0x00001876:    b081        ..      SUB      sp,sp,#4
        0x00001878:    460c        .F      MOV      r4,r1
        0x0000187a:    4615        .F      MOV      r5,r2
        0x0000187c:    461e        .F      MOV      r6,r3
        0x0000187e:    9f0a        ..      LDR      r7,[sp,#0x28]
        0x00001880:    f002feab    ....    BL       read_RSSI ; 0x45da
        0x00001884:    3855        U8      SUBS     r0,r0,#0x55
        0x00001886:    b240        @.      SXTB     r0,r0
        0x00001888:    7030        0p      STRB     r0,[r6,#0]
        0x0000188a:    f002fea0    ....    BL       read_LQI ; 0x45ce
        0x0000188e:    7038        8p      STRB     r0,[r7,#0]
        0x00001890:    2020                MOVS     r0,#0x20
        0x00001892:    0200        ..      LSLS     r0,r0,#8
        0x00001894:    3000        .0      ADDS     r0,#0
        0x00001896:    0200        ..      LSLS     r0,r0,#8
        0x00001898:    3003        .0      ADDS     r0,#3
        0x0000189a:    0200        ..      LSLS     r0,r0,#8
        0x0000189c:    30f8        .0      ADDS     r0,r0,#0xf8
        0x0000189e:    7d00        .}      LDRB     r0,[r0,#0x14]
        0x000018a0:    7020         p      STRB     r0,[r4,#0]
        0x000018a2:    7820         x      LDRB     r0,[r4,#0]
        0x000018a4:    42a8        .B      CMP      r0,r5
        0x000018a6:    dc0a        ..      BGT      0x18be ; radio_getReceivedFrame + 74
        0x000018a8:    7822        "x      LDRB     r2,[r4,#0]
        0x000018aa:    2120         !      MOVS     r1,#0x20
        0x000018ac:    0209        ..      LSLS     r1,r1,#8
        0x000018ae:    3100        .1      ADDS     r1,#0
        0x000018b0:    0209        ..      LSLS     r1,r1,#8
        0x000018b2:    3104        .1      ADDS     r1,#4
        0x000018b4:    0209        ..      LSLS     r1,r1,#8
        0x000018b6:    310d        .1      ADDS     r1,r1,#0xd
        0x000018b8:    9801        ..      LDR      r0,[sp,#4]
        0x000018ba:    f003fae9    ....    BL       __aeabi_memcpy ; 0x4e90
        0x000018be:    b005        ..      ADD      sp,sp,#0x14
        0x000018c0:    bdf0        ..      POP      {r4-r7,pc}
    cb_endFrame_rx_radio
        0x000018c2:    b51c        ..      PUSH     {r2-r4,lr}
        0x000018c4:    4604        .F      MOV      r4,r0
        0x000018c6:    2000        .       MOVS     r0,#0
        0x000018c8:    9001        ..      STR      r0,[sp,#4]
        0x000018ca:    21ff        .!      MOVS     r1,#0xff
        0x000018cc:    2020                MOVS     r0,#0x20
        0x000018ce:    0200        ..      LSLS     r0,r0,#8
        0x000018d0:    3000        .0      ADDS     r0,#0
        0x000018d2:    0200        ..      LSLS     r0,r0,#8
        0x000018d4:    3005        .0      ADDS     r0,#5
        0x000018d6:    0200        ..      LSLS     r0,r0,#8
        0x000018d8:    3015        .0      ADDS     r0,r0,#0x15
        0x000018da:    f003fb36    ..6.    BL       __aeabi_memclr ; 0x4f4a
        0x000018de:    2020                MOVS     r0,#0x20
        0x000018e0:    0200        ..      LSLS     r0,r0,#8
        0x000018e2:    3000        .0      ADDS     r0,#0
        0x000018e4:    0200        ..      LSLS     r0,r0,#8
        0x000018e6:    3006        .0      ADDS     r0,#6
        0x000018e8:    0200        ..      LSLS     r0,r0,#8
        0x000018ea:    301d        .0      ADDS     r0,r0,#0x1d
        0x000018ec:    9000        ..      STR      r0,[sp,#0]
        0x000018ee:    3825        %8      SUBS     r0,r0,#0x25
        0x000018f0:    7f02        ..      LDRB     r2,[r0,#0x1c]
        0x000018f2:    4603        .F      MOV      r3,r0
        0x000018f4:    3324        $3      ADDS     r3,r3,#0x24
        0x000018f6:    a901        ..      ADD      r1,sp,#4
        0x000018f8:    38e3        .8      SUBS     r0,r0,#0xe3
        0x000018fa:    f7ffffbb    ....    BL       radio_getReceivedFrame ; 0x1874
        0x000018fe:    f7ffffb0    ....    BL       radio_getCrcOk ; 0x1862
        0x00001902:    2800        .(      CMP      r0,#0
        0x00001904:    d036        6.      BEQ      0x1974 ; cb_endFrame_rx_radio + 178
        0x00001906:    2020                MOVS     r0,#0x20
        0x00001908:    0200        ..      LSLS     r0,r0,#8
        0x0000190a:    3000        .0      ADDS     r0,#0
        0x0000190c:    0200        ..      LSLS     r0,r0,#8
        0x0000190e:    3005        .0      ADDS     r0,#5
        0x00001910:    0200        ..      LSLS     r0,r0,#8
        0x00001912:    30f8        .0      ADDS     r0,r0,#0xf8
        0x00001914:    7f00        ..      LDRB     r0,[r0,#0x1c]
        0x00001916:    28ff        .(      CMP      r0,#0xff
        0x00001918:    d00b        ..      BEQ      0x1932 ; cb_endFrame_rx_radio + 112
        0x0000191a:    2020                MOVS     r0,#0x20
        0x0000191c:    0200        ..      LSLS     r0,r0,#8
        0x0000191e:    3000        .0      ADDS     r0,#0
        0x00001920:    0200        ..      LSLS     r0,r0,#8
        0x00001922:    3005        .0      ADDS     r0,#5
        0x00001924:    0200        ..      LSLS     r0,r0,#8
        0x00001926:    30f8        .0      ADDS     r0,r0,#0xf8
        0x00001928:    7f00        ..      LDRB     r0,[r0,#0x1c]
        0x0000192a:    4669        iF      MOV      r1,sp
        0x0000192c:    7909        .y      LDRB     r1,[r1,#4]
        0x0000192e:    4288        .B      CMP      r0,r1
        0x00001930:    d120         .      BNE      0x1974 ; cb_endFrame_rx_radio + 178
        0x00001932:    f7ffff92    ....    BL       radio_getIFestimate ; 0x185a
        0x00001936:    2120         !      MOVS     r1,#0x20
        0x00001938:    0209        ..      LSLS     r1,r1,#8
        0x0000193a:    3100        .1      ADDS     r1,#0
        0x0000193c:    0209        ..      LSLS     r1,r1,#8
        0x0000193e:    3105        .1      ADDS     r1,#5
        0x00001940:    0209        ..      LSLS     r1,r1,#8
        0x00001942:    31f8        .1      ADDS     r1,r1,#0xf8
        0x00001944:    62c8        .b      STR      r0,[r1,#0x2c]
        0x00001946:    f7ffff82    ....    BL       radio_getLQIchipErrors ; 0x184e
        0x0000194a:    2120         !      MOVS     r1,#0x20
        0x0000194c:    0209        ..      LSLS     r1,r1,#8
        0x0000194e:    3100        .1      ADDS     r1,#0
        0x00001950:    0209        ..      LSLS     r1,r1,#8
        0x00001952:    3105        .1      ADDS     r1,#5
        0x00001954:    0209        ..      LSLS     r1,r1,#8
        0x00001956:    31f8        .1      ADDS     r1,r1,#0xf8
        0x00001958:    6308        .c      STR      r0,[r1,#0x30]
        0x0000195a:    4608        .F      MOV      r0,r1
        0x0000195c:    6a02        .j      LDR      r2,[r0,#0x20]
        0x0000195e:    4668        hF      MOV      r0,sp
        0x00001960:    7901        .y      LDRB     r1,[r0,#4]
        0x00001962:    2020                MOVS     r0,#0x20
        0x00001964:    0200        ..      LSLS     r0,r0,#8
        0x00001966:    3000        .0      ADDS     r0,#0
        0x00001968:    0200        ..      LSLS     r0,r0,#8
        0x0000196a:    3005        .0      ADDS     r0,#5
        0x0000196c:    0200        ..      LSLS     r0,r0,#8
        0x0000196e:    3015        .0      ADDS     r0,r0,#0x15
        0x00001970:    4790        .G      BLX      r2
        0x00001972:    e003        ..      B        0x197c ; cb_endFrame_rx_radio + 186
        0x00001974:    f7fffee1    ....    BL       radio_rxEnable ; 0x173a
        0x00001978:    f7fffed1    ....    BL       radio_rxNow ; 0x171e
        0x0000197c:    2000        .       MOVS     r0,#0
        0x0000197e:    2120         !      MOVS     r1,#0x20
        0x00001980:    0209        ..      LSLS     r1,r1,#8
        0x00001982:    3100        .1      ADDS     r1,#0
        0x00001984:    0209        ..      LSLS     r1,r1,#8
        0x00001986:    3106        .1      ADDS     r1,#6
        0x00001988:    0209        ..      LSLS     r1,r1,#8
        0x0000198a:    3118        .1      ADDS     r1,r1,#0x18
        0x0000198c:    7208        .r      STRB     r0,[r1,#8]
        0x0000198e:    2001        .       MOVS     r0,#1
        0x00001990:    71c8        .q      STRB     r0,[r1,#7]
        0x00001992:    bd1c        ..      POP      {r2-r4,pc}
    repeat_rx_tx
        0x00001994:    b40f        ..      PUSH     {r0-r3}
        0x00001996:    b5f0        ..      PUSH     {r4-r7,lr}
        0x00001998:    b08b        ..      SUB      sp,sp,#0x2c
        0x0000199a:    9812        ..      LDR      r0,[sp,#0x48]
        0x0000199c:    9004        ..      STR      r0,[sp,#0x10]
        0x0000199e:    a810        ..      ADD      r0,sp,#0x40
        0x000019a0:    7940        @y      LDRB     r0,[r0,#5]
        0x000019a2:    9003        ..      STR      r0,[sp,#0xc]
        0x000019a4:    2000        .       MOVS     r0,#0
        0x000019a6:    9002        ..      STR      r0,[sp,#8]
        0x000019a8:    a810        ..      ADD      r0,sp,#0x40
        0x000019aa:    7800        .x      LDRB     r0,[r0,#0]
        0x000019ac:    2801        .(      CMP      r0,#1
        0x000019ae:    d108        ..      BNE      0x19c2 ; repeat_rx_tx + 46
        0x000019b0:    2000        .       MOVS     r0,#0
        0x000019b2:    0200        ..      LSLS     r0,r0,#8
        0x000019b4:    3000        .0      ADDS     r0,#0
        0x000019b6:    0200        ..      LSLS     r0,r0,#8
        0x000019b8:    3059        Y0      ADDS     r0,r0,#0x59
        0x000019ba:    0200        ..      LSLS     r0,r0,#8
        0x000019bc:    30d4        .0      ADDS     r0,r0,#0xd4
        0x000019be:    9001        ..      STR      r0,[sp,#4]
        0x000019c0:    e007        ..      B        0x19d2 ; repeat_rx_tx + 62
        0x000019c2:    2000        .       MOVS     r0,#0
        0x000019c4:    0200        ..      LSLS     r0,r0,#8
        0x000019c6:    3000        .0      ADDS     r0,#0
        0x000019c8:    0200        ..      LSLS     r0,r0,#8
        0x000019ca:    3059        Y0      ADDS     r0,r0,#0x59
        0x000019cc:    0200        ..      LSLS     r0,r0,#8
        0x000019ce:    30e0        .0      ADDS     r0,r0,#0xe0
        0x000019d0:    9001        ..      STR      r0,[sp,#4]
        0x000019d2:    a810        ..      ADD      r0,sp,#0x40
        0x000019d4:    7900        .y      LDRB     r0,[r0,#4]
        0x000019d6:    2802        .(      CMP      r0,#2
        0x000019d8:    d115        ..      BNE      0x1a06 ; repeat_rx_tx + 114
        0x000019da:    a810        ..      ADD      r0,sp,#0x40
        0x000019dc:    7c07        .|      LDRB     r7,[r0,#0x10]
        0x000019de:    7c40        @|      LDRB     r0,[r0,#0x11]
        0x000019e0:    9009        ..      STR      r0,[sp,#0x24]
        0x000019e2:    a810        ..      ADD      r0,sp,#0x40
        0x000019e4:    7c80        .|      LDRB     r0,[r0,#0x12]
        0x000019e6:    9008        ..      STR      r0,[sp,#0x20]
        0x000019e8:    1c78        x.      ADDS     r0,r7,#1
        0x000019ea:    b2c0        ..      UXTB     r0,r0
        0x000019ec:    9007        ..      STR      r0,[sp,#0x1c]
        0x000019ee:    bf00        ..      NOP      
        0x000019f0:    9809        ..      LDR      r0,[sp,#0x24]
        0x000019f2:    1c40        @.      ADDS     r0,r0,#1
        0x000019f4:    b2c0        ..      UXTB     r0,r0
        0x000019f6:    9006        ..      STR      r0,[sp,#0x18]
        0x000019f8:    bf00        ..      NOP      
        0x000019fa:    9808        ..      LDR      r0,[sp,#0x20]
        0x000019fc:    1c40        @.      ADDS     r0,r0,#1
        0x000019fe:    b2c0        ..      UXTB     r0,r0
        0x00001a00:    9005        ..      STR      r0,[sp,#0x14]
        0x00001a02:    bf00        ..      NOP      
        0x00001a04:    e00f        ..      B        0x1a26 ; repeat_rx_tx + 146
        0x00001a06:    a810        ..      ADD      r0,sp,#0x40
        0x00001a08:    7cc7        .|      LDRB     r7,[r0,#0x13]
        0x00001a0a:    7d80        .}      LDRB     r0,[r0,#0x16]
        0x00001a0c:    9007        ..      STR      r0,[sp,#0x1c]
        0x00001a0e:    a810        ..      ADD      r0,sp,#0x40
        0x00001a10:    7d00        .}      LDRB     r0,[r0,#0x14]
        0x00001a12:    9009        ..      STR      r0,[sp,#0x24]
        0x00001a14:    a810        ..      ADD      r0,sp,#0x40
        0x00001a16:    7dc0        .}      LDRB     r0,[r0,#0x17]
        0x00001a18:    9006        ..      STR      r0,[sp,#0x18]
        0x00001a1a:    a810        ..      ADD      r0,sp,#0x40
        0x00001a1c:    7d40        @}      LDRB     r0,[r0,#0x15]
        0x00001a1e:    9008        ..      STR      r0,[sp,#0x20]
        0x00001a20:    a810        ..      ADD      r0,sp,#0x40
        0x00001a22:    7e00        .~      LDRB     r0,[r0,#0x18]
        0x00001a24:    9005        ..      STR      r0,[sp,#0x14]
        0x00001a26:    bf00        ..      NOP      
        0x00001a28:    e06f        o.      B        0x1b0a ; repeat_rx_tx + 374
        0x00001a2a:    463c        <F      MOV      r4,r7
        0x00001a2c:    e06a        j.      B        0x1b04 ; repeat_rx_tx + 368
        0x00001a2e:    9d09        ..      LDR      r5,[sp,#0x24]
        0x00001a30:    e063        c.      B        0x1afa ; repeat_rx_tx + 358
        0x00001a32:    9e08        ..      LDR      r6,[sp,#0x20]
        0x00001a34:    e05c        \.      B        0x1af0 ; repeat_rx_tx + 348
        0x00001a36:    a808        ..      ADD      r0,sp,#0x20
        0x00001a38:    7204        .r      STRB     r4,[r0,#8]
        0x00001a3a:    7245        Er      STRB     r5,[r0,#9]
        0x00001a3c:    7286        .r      STRB     r6,[r0,#0xa]
        0x00001a3e:    a810        ..      ADD      r0,sp,#0x40
        0x00001a40:    7900        .y      LDRB     r0,[r0,#4]
        0x00001a42:    2801        .(      CMP      r0,#1
        0x00001a44:    d10b        ..      BNE      0x1a5e ; repeat_rx_tx + 202
        0x00001a46:    4633        3F      MOV      r3,r6
        0x00001a48:    462a        *F      MOV      r2,r5
        0x00001a4a:    4621        !F      MOV      r1,r4
        0x00001a4c:    2000        .       MOVS     r0,#0
        0x00001a4e:    0200        ..      LSLS     r0,r0,#8
        0x00001a50:    3000        .0      ADDS     r0,#0
        0x00001a52:    0200        ..      LSLS     r0,r0,#8
        0x00001a54:    3059        Y0      ADDS     r0,r0,#0x59
        0x00001a56:    0200        ..      LSLS     r0,r0,#8
        0x00001a58:    30e8        .0      ADDS     r0,r0,#0xe8
        0x00001a5a:    f003f973    ..s.    BL       __2printf ; 0x4d44
        0x00001a5e:    bf00        ..      NOP      
        0x00001a60:    4632        2F      MOV      r2,r6
        0x00001a62:    4629        )F      MOV      r1,r5
        0x00001a64:    4620         F      MOV      r0,r4
        0x00001a66:    f002fea4    ....    BL       LC_FREQCHANGE ; 0x47b2
        0x00001a6a:    a810        ..      ADD      r0,sp,#0x40
        0x00001a6c:    7800        .x      LDRB     r0,[r0,#0]
        0x00001a6e:    2802        .(      CMP      r0,#2
        0x00001a70:    d105        ..      BNE      0x1a7e ; repeat_rx_tx + 234
        0x00001a72:    a910        ..      ADD      r1,sp,#0x40
        0x00001a74:    7948        Hy      LDRB     r0,[r1,#5]
        0x00001a76:    2101        .!      MOVS     r1,#1
        0x00001a78:    f7fffe79    ..y.    BL       receive_packet_length ; 0x176e
        0x00001a7c:    e01e        ..      B        0x1abc ; repeat_rx_tx + 296
        0x00001a7e:    a810        ..      ADD      r0,sp,#0x40
        0x00001a80:    7800        .x      LDRB     r0,[r0,#0]
        0x00001a82:    2801        .(      CMP      r0,#1
        0x00001a84:    d11a        ..      BNE      0x1abc ; repeat_rx_tx + 296
        0x00001a86:    9000        ..      STR      r0,[sp,#0]
        0x00001a88:    e007        ..      B        0x1a9a ; repeat_rx_tx + 262
        0x00001a8a:    2120         !      MOVS     r1,#0x20
        0x00001a8c:    9a12        ..      LDR      r2,[sp,#0x48]
        0x00001a8e:    9800        ..      LDR      r0,[sp,#0]
        0x00001a90:    5411        .T      STRB     r1,[r2,r0]
        0x00001a92:    9800        ..      LDR      r0,[sp,#0]
        0x00001a94:    1c40        @.      ADDS     r0,r0,#1
        0x00001a96:    b2c0        ..      UXTB     r0,r0
        0x00001a98:    9000        ..      STR      r0,[sp,#0]
        0x00001a9a:    a810        ..      ADD      r0,sp,#0x40
        0x00001a9c:    7941        Ay      LDRB     r1,[r0,#5]
        0x00001a9e:    9800        ..      LDR      r0,[sp,#0]
        0x00001aa0:    4281        .B      CMP      r1,r0
        0x00001aa2:    dcf2        ..      BGT      0x1a8a ; repeat_rx_tx + 246
        0x00001aa4:    9812        ..      LDR      r0,[sp,#0x48]
        0x00001aa6:    9004        ..      STR      r0,[sp,#0x10]
        0x00001aa8:    bf00        ..      NOP      
        0x00001aaa:    9b13        ..      LDR      r3,[sp,#0x4c]
        0x00001aac:    9a0a        ..      LDR      r2,[sp,#0x28]
        0x00001aae:    9903        ..      LDR      r1,[sp,#0xc]
        0x00001ab0:    9804        ..      LDR      r0,[sp,#0x10]
        0x00001ab2:    4798        .G      BLX      r3
        0x00001ab4:    9903        ..      LDR      r1,[sp,#0xc]
        0x00001ab6:    9804        ..      LDR      r0,[sp,#0x10]
        0x00001ab8:    f7fffdf9    ....    BL       send_packet ; 0x16ae
        0x00001abc:    9802        ..      LDR      r0,[sp,#8]
        0x00001abe:    1c40        @.      ADDS     r0,r0,#1
        0x00001ac0:    9002        ..      STR      r0,[sp,#8]
        0x00001ac2:    a810        ..      ADD      r0,sp,#0x40
        0x00001ac4:    2102        .!      MOVS     r1,#2
        0x00001ac6:    5e41        A^      LDRSH    r1,[r0,r1]
        0x00001ac8:    9802        ..      LDR      r0,[sp,#8]
        0x00001aca:    4281        .B      CMP      r1,r0
        0x00001acc:    d10e        ..      BNE      0x1aec ; repeat_rx_tx + 344
        0x00001ace:    2000        .       MOVS     r0,#0
        0x00001ad0:    0200        ..      LSLS     r0,r0,#8
        0x00001ad2:    3000        .0      ADDS     r0,#0
        0x00001ad4:    0200        ..      LSLS     r0,r0,#8
        0x00001ad6:    305a        Z0      ADDS     r0,r0,#0x5a
        0x00001ad8:    0200        ..      LSLS     r0,r0,#8
        0x00001ada:    3008        .0      ADDS     r0,r0,#8
        0x00001adc:    9902        ..      LDR      r1,[sp,#8]
        0x00001ade:    f003f931    ..1.    BL       __2printf ; 0x4d44
        0x00001ae2:    b00b        ..      ADD      sp,sp,#0x2c
        0x00001ae4:    bcf0        ..      POP      {r4-r7}
        0x00001ae6:    bc08        ..      POP      {r3}
        0x00001ae8:    b004        ..      ADD      sp,sp,#0x10
        0x00001aea:    4718        .G      BX       r3
        0x00001aec:    1c70        p.      ADDS     r0,r6,#1
        0x00001aee:    b2c6        ..      UXTB     r6,r0
        0x00001af0:    9805        ..      LDR      r0,[sp,#0x14]
        0x00001af2:    4286        .B      CMP      r6,r0
        0x00001af4:    db9f        ..      BLT      0x1a36 ; repeat_rx_tx + 162
        0x00001af6:    1c68        h.      ADDS     r0,r5,#1
        0x00001af8:    b2c5        ..      UXTB     r5,r0
        0x00001afa:    9806        ..      LDR      r0,[sp,#0x18]
        0x00001afc:    4285        .B      CMP      r5,r0
        0x00001afe:    db98        ..      BLT      0x1a32 ; repeat_rx_tx + 158
        0x00001b00:    1c60        `.      ADDS     r0,r4,#1
        0x00001b02:    b2c4        ..      UXTB     r4,r0
        0x00001b04:    9807        ..      LDR      r0,[sp,#0x1c]
        0x00001b06:    4284        .B      CMP      r4,r0
        0x00001b08:    db91        ..      BLT      0x1a2e ; repeat_rx_tx + 154
        0x00001b0a:    e78e        ..      B        0x1a2a ; repeat_rx_tx + 150
    default_radio_rx_cb
        0x00001b0c:    b570        p.      PUSH     {r4-r6,lr}
        0x00001b0e:    4606        .F      MOV      r6,r0
        0x00001b10:    460d        .F      MOV      r5,r1
        0x00001b12:    2000        .       MOVS     r0,#0
        0x00001b14:    0200        ..      LSLS     r0,r0,#8
        0x00001b16:    3000        .0      ADDS     r0,#0
        0x00001b18:    0200        ..      LSLS     r0,r0,#8
        0x00001b1a:    305a        Z0      ADDS     r0,r0,#0x5a
        0x00001b1c:    0200        ..      LSLS     r0,r0,#8
        0x00001b1e:    3044        D0      ADDS     r0,r0,#0x44
        0x00001b20:    f003f910    ....    BL       __2printf ; 0x4d44
        0x00001b24:    2400        .$      MOVS     r4,#0
        0x00001b26:    e012        ..      B        0x1b4e ; default_radio_rx_cb + 66
        0x00001b28:    2020                MOVS     r0,#0x20
        0x00001b2a:    0200        ..      LSLS     r0,r0,#8
        0x00001b2c:    3000        .0      ADDS     r0,#0
        0x00001b2e:    0200        ..      LSLS     r0,r0,#8
        0x00001b30:    3005        .0      ADDS     r0,#5
        0x00001b32:    0200        ..      LSLS     r0,r0,#8
        0x00001b34:    3015        .0      ADDS     r0,r0,#0x15
        0x00001b36:    5d01        .]      LDRB     r1,[r0,r4]
        0x00001b38:    2000        .       MOVS     r0,#0
        0x00001b3a:    0200        ..      LSLS     r0,r0,#8
        0x00001b3c:    3000        .0      ADDS     r0,#0
        0x00001b3e:    0200        ..      LSLS     r0,r0,#8
        0x00001b40:    305a        Z0      ADDS     r0,r0,#0x5a
        0x00001b42:    0200        ..      LSLS     r0,r0,#8
        0x00001b44:    3060        `0      ADDS     r0,r0,#0x60
        0x00001b46:    f003f8fd    ....    BL       __2printf ; 0x4d44
        0x00001b4a:    1c60        `.      ADDS     r0,r4,#1
        0x00001b4c:    b2c4        ..      UXTB     r4,r0
        0x00001b4e:    1ea8        ..      SUBS     r0,r5,#2
        0x00001b50:    42a0        .B      CMP      r0,r4
        0x00001b52:    dce9        ..      BGT      0x1b28 ; default_radio_rx_cb + 28
        0x00001b54:    2000        .       MOVS     r0,#0
        0x00001b56:    0200        ..      LSLS     r0,r0,#8
        0x00001b58:    3000        .0      ADDS     r0,#0
        0x00001b5a:    0200        ..      LSLS     r0,r0,#8
        0x00001b5c:    305a        Z0      ADDS     r0,r0,#0x5a
        0x00001b5e:    0200        ..      LSLS     r0,r0,#8
        0x00001b60:    3064        d0      ADDS     r0,r0,#0x64
        0x00001b62:    f003f8ef    ....    BL       __2printf ; 0x4d44
        0x00001b66:    bd70        p.      POP      {r4-r6,pc}
    radio_setRxCb
        0x00001b68:    2120         !      MOVS     r1,#0x20
        0x00001b6a:    0209        ..      LSLS     r1,r1,#8
        0x00001b6c:    3100        .1      ADDS     r1,#0
        0x00001b6e:    0209        ..      LSLS     r1,r1,#8
        0x00001b70:    3105        .1      ADDS     r1,#5
        0x00001b72:    0209        ..      LSLS     r1,r1,#8
        0x00001b74:    31f8        .1      ADDS     r1,r1,#0xf8
        0x00001b76:    6208        .b      STR      r0,[r1,#0x20]
        0x00001b78:    4770        pG      BX       lr
    radio_setEndFrameRxCb
        0x00001b7a:    2120         !      MOVS     r1,#0x20
        0x00001b7c:    0209        ..      LSLS     r1,r1,#8
        0x00001b7e:    3100        .1      ADDS     r1,#0
        0x00001b80:    0209        ..      LSLS     r1,r1,#8
        0x00001b82:    3103        .1      ADDS     r1,#3
        0x00001b84:    0209        ..      LSLS     r1,r1,#8
        0x00001b86:    3178        x1      ADDS     r1,r1,#0x78
        0x00001b88:    6108        .a      STR      r0,[r1,#0x10]
        0x00001b8a:    4770        pG      BX       lr
    radio_setStartFrameRxCb
        0x00001b8c:    2120         !      MOVS     r1,#0x20
        0x00001b8e:    0209        ..      LSLS     r1,r1,#8
        0x00001b90:    3100        .1      ADDS     r1,#0
        0x00001b92:    0209        ..      LSLS     r1,r1,#8
        0x00001b94:    3103        .1      ADDS     r1,#3
        0x00001b96:    0209        ..      LSLS     r1,r1,#8
        0x00001b98:    3178        x1      ADDS     r1,r1,#0x78
        0x00001b9a:    60c8        .`      STR      r0,[r1,#0xc]
        0x00001b9c:    4770        pG      BX       lr
    radio_setEndFrameTxCb
        0x00001b9e:    2120         !      MOVS     r1,#0x20
        0x00001ba0:    0209        ..      LSLS     r1,r1,#8
        0x00001ba2:    3100        .1      ADDS     r1,#0
        0x00001ba4:    0209        ..      LSLS     r1,r1,#8
        0x00001ba6:    3103        .1      ADDS     r1,#3
        0x00001ba8:    0209        ..      LSLS     r1,r1,#8
        0x00001baa:    3178        x1      ADDS     r1,r1,#0x78
        0x00001bac:    6088        .`      STR      r0,[r1,#8]
        0x00001bae:    4770        pG      BX       lr
    radio_setStartFrameTxCb
        0x00001bb0:    2120         !      MOVS     r1,#0x20
        0x00001bb2:    0209        ..      LSLS     r1,r1,#8
        0x00001bb4:    3100        .1      ADDS     r1,#0
        0x00001bb6:    0209        ..      LSLS     r1,r1,#8
        0x00001bb8:    3103        .1      ADDS     r1,#3
        0x00001bba:    0209        ..      LSLS     r1,r1,#8
        0x00001bbc:    3178        x1      ADDS     r1,r1,#0x78
        0x00001bbe:    6048        H`      STR      r0,[r1,#4]
        0x00001bc0:    4770        pG      BX       lr
    radio_init
        0x00001bc2:    b510        ..      PUSH     {r4,lr}
        0x00001bc4:    2157        W!      MOVS     r1,#0x57
        0x00001bc6:    00c9        ..      LSLS     r1,r1,#3
        0x00001bc8:    2020                MOVS     r0,#0x20
        0x00001bca:    0200        ..      LSLS     r0,r0,#8
        0x00001bcc:    3000        .0      ADDS     r0,#0
        0x00001bce:    0200        ..      LSLS     r0,r0,#8
        0x00001bd0:    3003        .0      ADDS     r0,#3
        0x00001bd2:    0200        ..      LSLS     r0,r0,#8
        0x00001bd4:    3078        x0      ADDS     r0,r0,#0x78
        0x00001bd6:    f003f9ba    ....    BL       __aeabi_memclr4 ; 0x4f4e
        0x00001bda:    2102        .!      MOVS     r1,#2
        0x00001bdc:    0209        ..      LSLS     r1,r1,#8
        0x00001bde:    31c3        .1      ADDS     r1,r1,#0xc3
        0x00001be0:    2020                MOVS     r0,#0x20
        0x00001be2:    0200        ..      LSLS     r0,r0,#8
        0x00001be4:    3000        .0      ADDS     r0,#0
        0x00001be6:    0200        ..      LSLS     r0,r0,#8
        0x00001be8:    3004        .0      ADDS     r0,#4
        0x00001bea:    0200        ..      LSLS     r0,r0,#8
        0x00001bec:    3078        x0      ADDS     r0,r0,#0x78
        0x00001bee:    6581        .e      STR      r1,[r0,#0x58]
        0x00001bf0:    1fc9        ..      SUBS     r1,r1,#7
        0x00001bf2:    6181        .a      STR      r1,[r0,#0x18]
        0x00001bf4:    210f        .!      MOVS     r1,#0xf
        0x00001bf6:    3080        .0      ADDS     r0,r0,#0x80
        0x00001bf8:    8301        ..      STRH     r1,[r0,#0x18]
        0x00001bfa:    2040        @       MOVS     r0,#0x40
        0x00001bfc:    21e0        .!      MOVS     r1,#0xe0
        0x00001bfe:    0409        ..      LSLS     r1,r1,#16
        0x00001c00:    31e1        .1      ADDS     r1,r1,#0xe1
        0x00001c02:    0209        ..      LSLS     r1,r1,#8
        0x00001c04:    6008        .`      STR      r0,[r1,#0]
        0x00001c06:    201f        .       MOVS     r0,#0x1f
        0x00001c08:    0589        ..      LSLS     r1,r1,#22
        0x00001c0a:    6148        Ha      STR      r0,[r1,#0x14]
        0x00001c0c:    2008        .       MOVS     r0,#8
        0x00001c0e:    6208        .b      STR      r0,[r1,#0x20]
        0x00001c10:    2000        .       MOVS     r0,#0
        0x00001c12:    0200        ..      LSLS     r0,r0,#8
        0x00001c14:    3000        .0      ADDS     r0,#0
        0x00001c16:    0200        ..      LSLS     r0,r0,#8
        0x00001c18:    3018        .0      ADDS     r0,r0,#0x18
        0x00001c1a:    0200        ..      LSLS     r0,r0,#8
        0x00001c1c:    301d        .0      ADDS     r0,r0,#0x1d
        0x00001c1e:    f7ffffc7    ....    BL       radio_setStartFrameTxCb ; 0x1bb0
        0x00001c22:    2000        .       MOVS     r0,#0
        0x00001c24:    0200        ..      LSLS     r0,r0,#8
        0x00001c26:    3000        .0      ADDS     r0,#0
        0x00001c28:    0200        ..      LSLS     r0,r0,#8
        0x00001c2a:    3018        .0      ADDS     r0,r0,#0x18
        0x00001c2c:    0200        ..      LSLS     r0,r0,#8
        0x00001c2e:    301f        .0      ADDS     r0,r0,#0x1f
        0x00001c30:    f7ffffb5    ....    BL       radio_setEndFrameTxCb ; 0x1b9e
        0x00001c34:    2000        .       MOVS     r0,#0
        0x00001c36:    0200        ..      LSLS     r0,r0,#8
        0x00001c38:    3000        .0      ADDS     r0,#0
        0x00001c3a:    0200        ..      LSLS     r0,r0,#8
        0x00001c3c:    3018        .0      ADDS     r0,r0,#0x18
        0x00001c3e:    0200        ..      LSLS     r0,r0,#8
        0x00001c40:    303b        ;0      ADDS     r0,r0,#0x3b
        0x00001c42:    f7ffffa3    ....    BL       radio_setStartFrameRxCb ; 0x1b8c
        0x00001c46:    2000        .       MOVS     r0,#0
        0x00001c48:    0200        ..      LSLS     r0,r0,#8
        0x00001c4a:    3000        .0      ADDS     r0,#0
        0x00001c4c:    0200        ..      LSLS     r0,r0,#8
        0x00001c4e:    3018        .0      ADDS     r0,r0,#0x18
        0x00001c50:    0200        ..      LSLS     r0,r0,#8
        0x00001c52:    30c3        .0      ADDS     r0,r0,#0xc3
        0x00001c54:    f7ffff91    ....    BL       radio_setEndFrameRxCb ; 0x1b7a
        0x00001c58:    2000        .       MOVS     r0,#0
        0x00001c5a:    0200        ..      LSLS     r0,r0,#8
        0x00001c5c:    3000        .0      ADDS     r0,#0
        0x00001c5e:    0200        ..      LSLS     r0,r0,#8
        0x00001c60:    301b        .0      ADDS     r0,r0,#0x1b
        0x00001c62:    0200        ..      LSLS     r0,r0,#8
        0x00001c64:    300d        .0      ADDS     r0,r0,#0xd
        0x00001c66:    f7ffff7f    ....    BL       radio_setRxCb ; 0x1b68
        0x00001c6a:    bd10        ..      POP      {r4,pc}
    setFrequencyRX
        0x00001c6c:    b510        ..      PUSH     {r4,lr}
        0x00001c6e:    4604        .F      MOV      r4,r0
        0x00001c70:    4621        !F      MOV      r1,r4
        0x00001c72:    390b        .9      SUBS     r1,r1,#0xb
        0x00001c74:    008a        ..      LSLS     r2,r1,#2
        0x00001c76:    2120         !      MOVS     r1,#0x20
        0x00001c78:    0209        ..      LSLS     r1,r1,#8
        0x00001c7a:    3100        .1      ADDS     r1,#0
        0x00001c7c:    0209        ..      LSLS     r1,r1,#8
        0x00001c7e:    3104        .1      ADDS     r1,#4
        0x00001c80:    0209        ..      LSLS     r1,r1,#8
        0x00001c82:    3190        .1      ADDS     r1,r1,#0x90
        0x00001c84:    5888        .X      LDR      r0,[r1,r2]
        0x00001c86:    f002fdd3    ....    BL       LC_monotonic ; 0x4830
        0x00001c8a:    bd10        ..      POP      {r4,pc}
    setFrequencyTX
        0x00001c8c:    b510        ..      PUSH     {r4,lr}
        0x00001c8e:    4604        .F      MOV      r4,r0
        0x00001c90:    4621        !F      MOV      r1,r4
        0x00001c92:    390b        .9      SUBS     r1,r1,#0xb
        0x00001c94:    008a        ..      LSLS     r2,r1,#2
        0x00001c96:    2120         !      MOVS     r1,#0x20
        0x00001c98:    0209        ..      LSLS     r1,r1,#8
        0x00001c9a:    3100        .1      ADDS     r1,#0
        0x00001c9c:    0209        ..      LSLS     r1,r1,#8
        0x00001c9e:    3104        .1      ADDS     r1,#4
        0x00001ca0:    0209        ..      LSLS     r1,r1,#8
        0x00001ca2:    31d0        .1      ADDS     r1,r1,#0xd0
        0x00001ca4:    5888        .X      LDR      r0,[r1,r2]
        0x00001ca6:    f002fdc3    ....    BL       LC_monotonic ; 0x4830
        0x00001caa:    bd10        ..      POP      {r4,pc}
    radio_setFrequency
        0x00001cac:    b570        p.      PUSH     {r4-r6,lr}
        0x00001cae:    4605        .F      MOV      r5,r0
        0x00001cb0:    460c        .F      MOV      r4,r1
        0x00001cb2:    210b        .!      MOVS     r1,#0xb
        0x00001cb4:    2020                MOVS     r0,#0x20
        0x00001cb6:    0200        ..      LSLS     r0,r0,#8
        0x00001cb8:    3000        .0      ADDS     r0,#0
        0x00001cba:    0200        ..      LSLS     r0,r0,#8
        0x00001cbc:    3004        .0      ADDS     r0,#4
        0x00001cbe:    0200        ..      LSLS     r0,r0,#8
        0x00001cc0:    3078        x0      ADDS     r0,r0,#0x78
        0x00001cc2:    7501        .u      STRB     r1,[r0,#0x14]
        0x00001cc4:    2c01        .,      CMP      r4,#1
        0x00001cc6:    d002        ..      BEQ      0x1cce ; radio_setFrequency + 34
        0x00001cc8:    2c02        .,      CMP      r4,#2
        0x00001cca:    d116        ..      BNE      0x1cfa ; radio_setFrequency + 78
        0x00001ccc:    e00a        ..      B        0x1ce4 ; radio_setFrequency + 56
        0x00001cce:    2120         !      MOVS     r1,#0x20
        0x00001cd0:    0209        ..      LSLS     r1,r1,#8
        0x00001cd2:    3100        .1      ADDS     r1,#0
        0x00001cd4:    0209        ..      LSLS     r1,r1,#8
        0x00001cd6:    3104        .1      ADDS     r1,#4
        0x00001cd8:    0209        ..      LSLS     r1,r1,#8
        0x00001cda:    3178        x1      ADDS     r1,r1,#0x78
        0x00001cdc:    7d08        .}      LDRB     r0,[r1,#0x14]
        0x00001cde:    f7ffffd5    ....    BL       setFrequencyTX ; 0x1c8c
        0x00001ce2:    e00b        ..      B        0x1cfc ; radio_setFrequency + 80
        0x00001ce4:    2120         !      MOVS     r1,#0x20
        0x00001ce6:    0209        ..      LSLS     r1,r1,#8
        0x00001ce8:    3100        .1      ADDS     r1,#0
        0x00001cea:    0209        ..      LSLS     r1,r1,#8
        0x00001cec:    3104        .1      ADDS     r1,#4
        0x00001cee:    0209        ..      LSLS     r1,r1,#8
        0x00001cf0:    3178        x1      ADDS     r1,r1,#0x78
        0x00001cf2:    7d08        .}      LDRB     r0,[r1,#0x14]
        0x00001cf4:    f7ffffba    ....    BL       setFrequencyRX ; 0x1c6c
        0x00001cf8:    e000        ..      B        0x1cfc ; radio_setFrequency + 80
        0x00001cfa:    bf00        ..      NOP      
        0x00001cfc:    bf00        ..      NOP      
        0x00001cfe:    bd70        p.      POP      {r4-r6,pc}
    radio_rfOn
        0x00001d00:    2001        .       MOVS     r0,#1
        0x00001d02:    0780        ..      LSLS     r0,r0,#30
        0x00001d04:    6800        .h      LDR      r0,[r0,#0]
        0x00001d06:    2110        .!      MOVS     r1,#0x10
        0x00001d08:    4388        .C      BICS     r0,r0,r1
        0x00001d0a:    0689        ..      LSLS     r1,r1,#26
        0x00001d0c:    6008        .`      STR      r0,[r1,#0]
        0x00001d0e:    4770        pG      BX       lr
    radio_frequency_housekeeping
        0x00001d10:    b5f7        ..      PUSH     {r0-r2,r4-r7,lr}
        0x00001d12:    b084        ..      SUB      sp,sp,#0x10
        0x00001d14:    bf00        ..      NOP      
        0x00001d16:    f001fac0    ....    BL       scm3c_hw_interface_get_IF_coarse ; 0x329a
        0x00001d1a:    9001        ..      STR      r0,[sp,#4]
        0x00001d1c:    f001fac6    ....    BL       scm3c_hw_interface_get_IF_fine ; 0x32ac
        0x00001d20:    9000        ..      STR      r0,[sp,#0]
        0x00001d22:    2020                MOVS     r0,#0x20
        0x00001d24:    0200        ..      LSLS     r0,r0,#8
        0x00001d26:    3000        .0      ADDS     r0,#0
        0x00001d28:    0200        ..      LSLS     r0,r0,#8
        0x00001d2a:    3003        .0      ADDS     r0,#3
        0x00001d2c:    0200        ..      LSLS     r0,r0,#8
        0x00001d2e:    30f8        .0      ADDS     r0,r0,#0xf8
        0x00001d30:    7d00        .}      LDRB     r0,[r0,#0x14]
        0x00001d32:    9002        ..      STR      r0,[sp,#8]
        0x00001d34:    2020                MOVS     r0,#0x20
        0x00001d36:    0200        ..      LSLS     r0,r0,#8
        0x00001d38:    3000        .0      ADDS     r0,#0
        0x00001d3a:    0200        ..      LSLS     r0,r0,#8
        0x00001d3c:    3004        .0      ADDS     r0,#4
        0x00001d3e:    0200        ..      LSLS     r0,r0,#8
        0x00001d40:    30f8        .0      ADDS     r0,r0,#0xf8
        0x00001d42:    8b40        @.      LDRH     r0,[r0,#0x1a]
        0x00001d44:    1c40        @.      ADDS     r0,r0,#1
        0x00001d46:    b281        ..      UXTH     r1,r0
        0x00001d48:    2020                MOVS     r0,#0x20
        0x00001d4a:    0200        ..      LSLS     r0,r0,#8
        0x00001d4c:    3000        .0      ADDS     r0,#0
        0x00001d4e:    0200        ..      LSLS     r0,r0,#8
        0x00001d50:    3004        .0      ADDS     r0,#4
        0x00001d52:    0200        ..      LSLS     r0,r0,#8
        0x00001d54:    30f8        .0      ADDS     r0,r0,#0xf8
        0x00001d56:    8341        A.      STRH     r1,[r0,#0x1a]
        0x00001d58:    2500        .%      MOVS     r5,#0
        0x00001d5a:    9a02        ..      LDR      r2,[sp,#8]
        0x00001d5c:    00d1        ..      LSLS     r1,r2,#3
        0x00001d5e:    233d        =#      MOVS     r3,#0x3d
        0x00001d60:    021b        ..      LSLS     r3,r3,#8
        0x00001d62:    3309        .3      ADDS     r3,r3,#9
        0x00001d64:    9a06        ..      LDR      r2,[sp,#0x18]
        0x00001d66:    435a        ZC      MULS     r2,r3,r2
        0x00001d68:    4610        .F      MOV      r0,r2
        0x00001d6a:    f003f8fc    ....    BL       __aeabi_idiv ; 0x4f66
        0x00001d6e:    9003        ..      STR      r0,[sp,#0xc]
        0x00001d70:    2409        .$      MOVS     r4,#9
        0x00001d72:    e013        ..      B        0x1d9c ; radio_frequency_housekeeping + 140
        0x00001d74:    0060        `.      LSLS     r0,r4,#1
        0x00001d76:    2120         !      MOVS     r1,#0x20
        0x00001d78:    0209        ..      LSLS     r1,r1,#8
        0x00001d7a:    3100        .1      ADDS     r1,#0
        0x00001d7c:    0209        ..      LSLS     r1,r1,#8
        0x00001d7e:    3103        .1      ADDS     r1,#3
        0x00001d80:    0209        ..      LSLS     r1,r1,#8
        0x00001d82:    3160        `1      ADDS     r1,r1,#0x60
        0x00001d84:    5a09        .Z      LDRH     r1,[r1,r0]
        0x00001d86:    1c60        `.      ADDS     r0,r4,#1
        0x00001d88:    0040        @.      LSLS     r0,r0,#1
        0x00001d8a:    2220         "      MOVS     r2,#0x20
        0x00001d8c:    0212        ..      LSLS     r2,r2,#8
        0x00001d8e:    3200        .2      ADDS     r2,#0
        0x00001d90:    0212        ..      LSLS     r2,r2,#8
        0x00001d92:    3203        .2      ADDS     r2,#3
        0x00001d94:    0212        ..      LSLS     r2,r2,#8
        0x00001d96:    3260        `2      ADDS     r2,r2,#0x60
        0x00001d98:    5211        .R      STRH     r1,[r2,r0]
        0x00001d9a:    1e64        d.      SUBS     r4,r4,#1
        0x00001d9c:    2c00        .,      CMP      r4,#0
        0x00001d9e:    dae9        ..      BGE      0x1d74 ; radio_frequency_housekeeping + 100
        0x00001da0:    9803        ..      LDR      r0,[sp,#0xc]
        0x00001da2:    b200        ..      SXTH     r0,r0
        0x00001da4:    2120         !      MOVS     r1,#0x20
        0x00001da6:    0209        ..      LSLS     r1,r1,#8
        0x00001da8:    3100        .1      ADDS     r1,#0
        0x00001daa:    0209        ..      LSLS     r1,r1,#8
        0x00001dac:    3103        .1      ADDS     r1,#3
        0x00001dae:    0209        ..      LSLS     r1,r1,#8
        0x00001db0:    3160        `1      ADDS     r1,r1,#0x60
        0x00001db2:    8008        ..      STRH     r0,[r1,#0]
        0x00001db4:    2400        .$      MOVS     r4,#0
        0x00001db6:    e013        ..      B        0x1de0 ; radio_frequency_housekeeping + 208
        0x00001db8:    0060        `.      LSLS     r0,r4,#1
        0x00001dba:    2120         !      MOVS     r1,#0x20
        0x00001dbc:    0209        ..      LSLS     r1,r1,#8
        0x00001dbe:    3100        .1      ADDS     r1,#0
        0x00001dc0:    0209        ..      LSLS     r1,r1,#8
        0x00001dc2:    3103        .1      ADDS     r1,#3
        0x00001dc4:    0209        ..      LSLS     r1,r1,#8
        0x00001dc6:    3160        `1      ADDS     r1,r1,#0x60
        0x00001dc8:    5e08        .^      LDRSH    r0,[r1,r0]
        0x00001dca:    2120         !      MOVS     r1,#0x20
        0x00001dcc:    0209        ..      LSLS     r1,r1,#8
        0x00001dce:    3100        .1      ADDS     r1,#0
        0x00001dd0:    0209        ..      LSLS     r1,r1,#8
        0x00001dd2:    3100        .1      ADDS     r1,#0
        0x00001dd4:    0209        ..      LSLS     r1,r1,#8
        0x00001dd6:    312c        ,1      ADDS     r1,r1,#0x2c
        0x00001dd8:    5d09        .]      LDRB     r1,[r1,r4]
        0x00001dda:    4348        HC      MULS     r0,r1,r0
        0x00001ddc:    1945        E.      ADDS     r5,r0,r5
        0x00001dde:    1c64        d.      ADDS     r4,r4,#1
        0x00001de0:    2c0a        .,      CMP      r4,#0xa
        0x00001de2:    dde9        ..      BLE      0x1db8 ; radio_frequency_housekeeping + 168
        0x00001de4:    4628        (F      MOV      r0,r5
        0x00001de6:    17e9        ..      ASRS     r1,r5,#31
        0x00001de8:    0dc9        ..      LSRS     r1,r1,#23
        0x00001dea:    1809        ..      ADDS     r1,r1,r0
        0x00001dec:    124f        O.      ASRS     r7,r1,#9
        0x00001dee:    2020                MOVS     r0,#0x20
        0x00001df0:    0200        ..      LSLS     r0,r0,#8
        0x00001df2:    3000        .0      ADDS     r0,#0
        0x00001df4:    0200        ..      LSLS     r0,r0,#8
        0x00001df6:    3004        .0      ADDS     r0,#4
        0x00001df8:    0200        ..      LSLS     r0,r0,#8
        0x00001dfa:    30f8        .0      ADDS     r0,r0,#0xf8
        0x00001dfc:    8b41        A.      LDRH     r1,[r0,#0x1a]
        0x00001dfe:    8b00        ..      LDRH     r0,[r0,#0x18]
        0x00001e00:    4281        .B      CMP      r1,r0
        0x00001e02:    d11c        ..      BNE      0x1e3e ; radio_frequency_housekeeping + 302
        0x00001e04:    207d        }       MOVS     r0,#0x7d
        0x00001e06:    00c0        ..      LSLS     r0,r0,#3
        0x00001e08:    4287        .B      CMP      r7,r0
        0x00001e0a:    dd07        ..      BLE      0x1e1c ; radio_frequency_housekeeping + 268
        0x00001e0c:    9800        ..      LDR      r0,[sp,#0]
        0x00001e0e:    1c42        B.      ADDS     r2,r0,#1
        0x00001e10:    4601        .F      MOV      r1,r0
        0x00001e12:    9200        ..      STR      r2,[sp,#0]
        0x00001e14:    2200        ."      MOVS     r2,#0
        0x00001e16:    9801        ..      LDR      r0,[sp,#4]
        0x00001e18:    f002fbe7    ....    BL       set_IF_clock_frequency ; 0x45ea
        0x00001e1c:    20ff        .       MOVS     r0,#0xff
        0x00001e1e:    0200        ..      LSLS     r0,r0,#8
        0x00001e20:    30ff        .0      ADDS     r0,r0,#0xff
        0x00001e22:    0200        ..      LSLS     r0,r0,#8
        0x00001e24:    30fc        .0      ADDS     r0,r0,#0xfc
        0x00001e26:    0200        ..      LSLS     r0,r0,#8
        0x00001e28:    3018        .0      ADDS     r0,r0,#0x18
        0x00001e2a:    4287        .B      CMP      r7,r0
        0x00001e2c:    da07        ..      BGE      0x1e3e ; radio_frequency_housekeeping + 302
        0x00001e2e:    9800        ..      LDR      r0,[sp,#0]
        0x00001e30:    1e42        B.      SUBS     r2,r0,#1
        0x00001e32:    4601        .F      MOV      r1,r0
        0x00001e34:    9200        ..      STR      r2,[sp,#0]
        0x00001e36:    2200        ."      MOVS     r2,#0
        0x00001e38:    9801        ..      LDR      r0,[sp,#4]
        0x00001e3a:    f002fbd6    ....    BL       set_IF_clock_frequency ; 0x45ea
        0x00001e3e:    9801        ..      LDR      r0,[sp,#4]
        0x00001e40:    f001fa73    ..s.    BL       scm3c_hw_interface_set_IF_coarse ; 0x332a
        0x00001e44:    9800        ..      LDR      r0,[sp,#0]
        0x00001e46:    f001fa79    ..y.    BL       scm3c_hw_interface_set_IF_fine ; 0x333c
        0x00001e4a:    2500        .%      MOVS     r5,#0
        0x00001e4c:    9805        ..      LDR      r0,[sp,#0x14]
        0x00001e4e:    2819        .(      CMP      r0,#0x19
        0x00001e50:    d27e        ~.      BCS      0x1f50 ; radio_frequency_housekeeping + 576
        0x00001e52:    2409        .$      MOVS     r4,#9
        0x00001e54:    e013        ..      B        0x1e7e ; radio_frequency_housekeeping + 366
        0x00001e56:    00a0        ..      LSLS     r0,r4,#2
        0x00001e58:    2120         !      MOVS     r1,#0x20
        0x00001e5a:    0209        ..      LSLS     r1,r1,#8
        0x00001e5c:    3100        .1      ADDS     r1,#0
        0x00001e5e:    0209        ..      LSLS     r1,r1,#8
        0x00001e60:    3100        .1      ADDS     r1,#0
        0x00001e62:    0209        ..      LSLS     r1,r1,#8
        0x00001e64:    3138        81      ADDS     r1,r1,#0x38
        0x00001e66:    5809        .X      LDR      r1,[r1,r0]
        0x00001e68:    1c60        `.      ADDS     r0,r4,#1
        0x00001e6a:    0080        ..      LSLS     r0,r0,#2
        0x00001e6c:    2220         "      MOVS     r2,#0x20
        0x00001e6e:    0212        ..      LSLS     r2,r2,#8
        0x00001e70:    3200        .2      ADDS     r2,#0
        0x00001e72:    0212        ..      LSLS     r2,r2,#8
        0x00001e74:    3200        .2      ADDS     r2,#0
        0x00001e76:    0212        ..      LSLS     r2,r2,#8
        0x00001e78:    3238        82      ADDS     r2,r2,#0x38
        0x00001e7a:    5011        .P      STR      r1,[r2,r0]
        0x00001e7c:    1e64        d.      SUBS     r4,r4,#1
        0x00001e7e:    2c00        .,      CMP      r4,#0
        0x00001e80:    dae9        ..      BGE      0x1e56 ; radio_frequency_housekeeping + 326
        0x00001e82:    2120         !      MOVS     r1,#0x20
        0x00001e84:    0209        ..      LSLS     r1,r1,#8
        0x00001e86:    3100        .1      ADDS     r1,#0
        0x00001e88:    0209        ..      LSLS     r1,r1,#8
        0x00001e8a:    3100        .1      ADDS     r1,#0
        0x00001e8c:    0209        ..      LSLS     r1,r1,#8
        0x00001e8e:    3138        81      ADDS     r1,r1,#0x38
        0x00001e90:    9804        ..      LDR      r0,[sp,#0x10]
        0x00001e92:    6008        .`      STR      r0,[r1,#0]
        0x00001e94:    2400        .$      MOVS     r4,#0
        0x00001e96:    e013        ..      B        0x1ec0 ; radio_frequency_housekeeping + 432
        0x00001e98:    00a0        ..      LSLS     r0,r4,#2
        0x00001e9a:    2120         !      MOVS     r1,#0x20
        0x00001e9c:    0209        ..      LSLS     r1,r1,#8
        0x00001e9e:    3100        .1      ADDS     r1,#0
        0x00001ea0:    0209        ..      LSLS     r1,r1,#8
        0x00001ea2:    3100        .1      ADDS     r1,#0
        0x00001ea4:    0209        ..      LSLS     r1,r1,#8
        0x00001ea6:    3138        81      ADDS     r1,r1,#0x38
        0x00001ea8:    5808        .X      LDR      r0,[r1,r0]
        0x00001eaa:    2120         !      MOVS     r1,#0x20
        0x00001eac:    0209        ..      LSLS     r1,r1,#8
        0x00001eae:    3100        .1      ADDS     r1,#0
        0x00001eb0:    0209        ..      LSLS     r1,r1,#8
        0x00001eb2:    3100        .1      ADDS     r1,#0
        0x00001eb4:    0209        ..      LSLS     r1,r1,#8
        0x00001eb6:    312c        ,1      ADDS     r1,r1,#0x2c
        0x00001eb8:    5d09        .]      LDRB     r1,[r1,r4]
        0x00001eba:    4348        HC      MULS     r0,r1,r0
        0x00001ebc:    1945        E.      ADDS     r5,r0,r5
        0x00001ebe:    1c64        d.      ADDS     r4,r4,#1
        0x00001ec0:    2c0a        .,      CMP      r4,#0xa
        0x00001ec2:    dde9        ..      BLE      0x1e98 ; radio_frequency_housekeeping + 392
        0x00001ec4:    4628        (F      MOV      r0,r5
        0x00001ec6:    17e9        ..      ASRS     r1,r5,#31
        0x00001ec8:    0dc9        ..      LSRS     r1,r1,#23
        0x00001eca:    1809        ..      ADDS     r1,r1,r0
        0x00001ecc:    124e        N.      ASRS     r6,r1,#9
        0x00001ece:    2020                MOVS     r0,#0x20
        0x00001ed0:    0200        ..      LSLS     r0,r0,#8
        0x00001ed2:    3000        .0      ADDS     r0,#0
        0x00001ed4:    0200        ..      LSLS     r0,r0,#8
        0x00001ed6:    3004        .0      ADDS     r0,#4
        0x00001ed8:    0200        ..      LSLS     r0,r0,#8
        0x00001eda:    30f8        .0      ADDS     r0,r0,#0xf8
        0x00001edc:    8b41        A.      LDRH     r1,[r0,#0x1a]
        0x00001ede:    8b00        ..      LDRH     r0,[r0,#0x18]
        0x00001ee0:    4281        .B      CMP      r1,r0
        0x00001ee2:    d135        5.      BNE      0x1f50 ; radio_frequency_housekeeping + 576
        0x00001ee4:    2041        A       MOVS     r0,#0x41
        0x00001ee6:    00c0        ..      LSLS     r0,r0,#3
        0x00001ee8:    4286        .B      CMP      r6,r0
        0x00001eea:    d946        F.      BLS      0x1f7a ; radio_frequency_housekeeping + 618
        0x00001eec:    2020                MOVS     r0,#0x20
        0x00001eee:    0200        ..      LSLS     r0,r0,#8
        0x00001ef0:    3000        .0      ADDS     r0,#0
        0x00001ef2:    0200        ..      LSLS     r0,r0,#8
        0x00001ef4:    3004        .0      ADDS     r0,#4
        0x00001ef6:    0200        ..      LSLS     r0,r0,#8
        0x00001ef8:    3078        x0      ADDS     r0,r0,#0x78
        0x00001efa:    7d00        .}      LDRB     r0,[r0,#0x14]
        0x00001efc:    380b        .8      SUBS     r0,r0,#0xb
        0x00001efe:    0081        ..      LSLS     r1,r0,#2
        0x00001f00:    2020                MOVS     r0,#0x20
        0x00001f02:    0200        ..      LSLS     r0,r0,#8
        0x00001f04:    3000        .0      ADDS     r0,#0
        0x00001f06:    0200        ..      LSLS     r0,r0,#8
        0x00001f08:    3004        .0      ADDS     r0,#4
        0x00001f0a:    0200        ..      LSLS     r0,r0,#8
        0x00001f0c:    3090        .0      ADDS     r0,r0,#0x90
        0x00001f0e:    5840        @X      LDR      r0,[r0,r1]
        0x00001f10:    1c40        @.      ADDS     r0,r0,#1
        0x00001f12:    2120         !      MOVS     r1,#0x20
        0x00001f14:    0209        ..      LSLS     r1,r1,#8
        0x00001f16:    3100        .1      ADDS     r1,#0
        0x00001f18:    0209        ..      LSLS     r1,r1,#8
        0x00001f1a:    3104        .1      ADDS     r1,#4
        0x00001f1c:    0209        ..      LSLS     r1,r1,#8
        0x00001f1e:    3178        x1      ADDS     r1,r1,#0x78
        0x00001f20:    7d09        .}      LDRB     r1,[r1,#0x14]
        0x00001f22:    390b        .9      SUBS     r1,r1,#0xb
        0x00001f24:    008a        ..      LSLS     r2,r1,#2
        0x00001f26:    2120         !      MOVS     r1,#0x20
        0x00001f28:    0209        ..      LSLS     r1,r1,#8
        0x00001f2a:    3100        .1      ADDS     r1,#0
        0x00001f2c:    0209        ..      LSLS     r1,r1,#8
        0x00001f2e:    3104        .1      ADDS     r1,#4
        0x00001f30:    0209        ..      LSLS     r1,r1,#8
        0x00001f32:    3190        .1      ADDS     r1,r1,#0x90
        0x00001f34:    5088        .P      STR      r0,[r1,r2]
        0x00001f36:    4608        .F      MOV      r0,r1
        0x00001f38:    3818        .8      SUBS     r0,r0,#0x18
        0x00001f3a:    7d00        .}      LDRB     r0,[r0,#0x14]
        0x00001f3c:    380b        .8      SUBS     r0,r0,#0xb
        0x00001f3e:    0081        ..      LSLS     r1,r0,#2
        0x00001f40:    2020                MOVS     r0,#0x20
        0x00001f42:    0200        ..      LSLS     r0,r0,#8
        0x00001f44:    3000        .0      ADDS     r0,#0
        0x00001f46:    0200        ..      LSLS     r0,r0,#8
        0x00001f48:    3004        .0      ADDS     r0,#4
        0x00001f4a:    0200        ..      LSLS     r0,r0,#8
        0x00001f4c:    30d0        .0      ADDS     r0,r0,#0xd0
        0x00001f4e:    e000        ..      B        0x1f52 ; radio_frequency_housekeeping + 578
        0x00001f50:    e065        e.      B        0x201e ; radio_frequency_housekeeping + 782
        0x00001f52:    5840        @X      LDR      r0,[r0,r1]
        0x00001f54:    1c40        @.      ADDS     r0,r0,#1
        0x00001f56:    2120         !      MOVS     r1,#0x20
        0x00001f58:    0209        ..      LSLS     r1,r1,#8
        0x00001f5a:    3100        .1      ADDS     r1,#0
        0x00001f5c:    0209        ..      LSLS     r1,r1,#8
        0x00001f5e:    3104        .1      ADDS     r1,#4
        0x00001f60:    0209        ..      LSLS     r1,r1,#8
        0x00001f62:    3178        x1      ADDS     r1,r1,#0x78
        0x00001f64:    7d09        .}      LDRB     r1,[r1,#0x14]
        0x00001f66:    390b        .9      SUBS     r1,r1,#0xb
        0x00001f68:    008a        ..      LSLS     r2,r1,#2
        0x00001f6a:    2120         !      MOVS     r1,#0x20
        0x00001f6c:    0209        ..      LSLS     r1,r1,#8
        0x00001f6e:    3100        .1      ADDS     r1,#0
        0x00001f70:    0209        ..      LSLS     r1,r1,#8
        0x00001f72:    3104        .1      ADDS     r1,#4
        0x00001f74:    0209        ..      LSLS     r1,r1,#8
        0x00001f76:    31d0        .1      ADDS     r1,r1,#0xd0
        0x00001f78:    5088        .P      STR      r0,[r1,r2]
        0x00001f7a:    20ff        .       MOVS     r0,#0xff
        0x00001f7c:    30e1        .0      ADDS     r0,r0,#0xe1
        0x00001f7e:    4286        .B      CMP      r6,r0
        0x00001f80:    d244        D.      BCS      0x200c ; radio_frequency_housekeeping + 764
        0x00001f82:    2020                MOVS     r0,#0x20
        0x00001f84:    0200        ..      LSLS     r0,r0,#8
        0x00001f86:    3000        .0      ADDS     r0,#0
        0x00001f88:    0200        ..      LSLS     r0,r0,#8
        0x00001f8a:    3004        .0      ADDS     r0,#4
        0x00001f8c:    0200        ..      LSLS     r0,r0,#8
        0x00001f8e:    3078        x0      ADDS     r0,r0,#0x78
        0x00001f90:    7d00        .}      LDRB     r0,[r0,#0x14]
        0x00001f92:    380b        .8      SUBS     r0,r0,#0xb
        0x00001f94:    0081        ..      LSLS     r1,r0,#2
        0x00001f96:    2020                MOVS     r0,#0x20
        0x00001f98:    0200        ..      LSLS     r0,r0,#8
        0x00001f9a:    3000        .0      ADDS     r0,#0
        0x00001f9c:    0200        ..      LSLS     r0,r0,#8
        0x00001f9e:    3004        .0      ADDS     r0,#4
        0x00001fa0:    0200        ..      LSLS     r0,r0,#8
        0x00001fa2:    3090        .0      ADDS     r0,r0,#0x90
        0x00001fa4:    5840        @X      LDR      r0,[r0,r1]
        0x00001fa6:    1e40        @.      SUBS     r0,r0,#1
        0x00001fa8:    2120         !      MOVS     r1,#0x20
        0x00001faa:    0209        ..      LSLS     r1,r1,#8
        0x00001fac:    3100        .1      ADDS     r1,#0
        0x00001fae:    0209        ..      LSLS     r1,r1,#8
        0x00001fb0:    3104        .1      ADDS     r1,#4
        0x00001fb2:    0209        ..      LSLS     r1,r1,#8
        0x00001fb4:    3178        x1      ADDS     r1,r1,#0x78
        0x00001fb6:    7d09        .}      LDRB     r1,[r1,#0x14]
        0x00001fb8:    390b        .9      SUBS     r1,r1,#0xb
        0x00001fba:    008a        ..      LSLS     r2,r1,#2
        0x00001fbc:    2120         !      MOVS     r1,#0x20
        0x00001fbe:    0209        ..      LSLS     r1,r1,#8
        0x00001fc0:    3100        .1      ADDS     r1,#0
        0x00001fc2:    0209        ..      LSLS     r1,r1,#8
        0x00001fc4:    3104        .1      ADDS     r1,#4
        0x00001fc6:    0209        ..      LSLS     r1,r1,#8
        0x00001fc8:    3190        .1      ADDS     r1,r1,#0x90
        0x00001fca:    5088        .P      STR      r0,[r1,r2]
        0x00001fcc:    4608        .F      MOV      r0,r1
        0x00001fce:    3818        .8      SUBS     r0,r0,#0x18
        0x00001fd0:    7d00        .}      LDRB     r0,[r0,#0x14]
        0x00001fd2:    380b        .8      SUBS     r0,r0,#0xb
        0x00001fd4:    0081        ..      LSLS     r1,r0,#2
        0x00001fd6:    2020                MOVS     r0,#0x20
        0x00001fd8:    0200        ..      LSLS     r0,r0,#8
        0x00001fda:    3000        .0      ADDS     r0,#0
        0x00001fdc:    0200        ..      LSLS     r0,r0,#8
        0x00001fde:    3004        .0      ADDS     r0,#4
        0x00001fe0:    0200        ..      LSLS     r0,r0,#8
        0x00001fe2:    30d0        .0      ADDS     r0,r0,#0xd0
        0x00001fe4:    5840        @X      LDR      r0,[r0,r1]
        0x00001fe6:    1e40        @.      SUBS     r0,r0,#1
        0x00001fe8:    2120         !      MOVS     r1,#0x20
        0x00001fea:    0209        ..      LSLS     r1,r1,#8
        0x00001fec:    3100        .1      ADDS     r1,#0
        0x00001fee:    0209        ..      LSLS     r1,r1,#8
        0x00001ff0:    3104        .1      ADDS     r1,#4
        0x00001ff2:    0209        ..      LSLS     r1,r1,#8
        0x00001ff4:    3178        x1      ADDS     r1,r1,#0x78
        0x00001ff6:    7d09        .}      LDRB     r1,[r1,#0x14]
        0x00001ff8:    390b        .9      SUBS     r1,r1,#0xb
        0x00001ffa:    008a        ..      LSLS     r2,r1,#2
        0x00001ffc:    2120         !      MOVS     r1,#0x20
        0x00001ffe:    0209        ..      LSLS     r1,r1,#8
        0x00002000:    3100        .1      ADDS     r1,#0
        0x00002002:    0209        ..      LSLS     r1,r1,#8
        0x00002004:    3104        .1      ADDS     r1,#4
        0x00002006:    0209        ..      LSLS     r1,r1,#8
        0x00002008:    31d0        .1      ADDS     r1,r1,#0xd0
        0x0000200a:    5088        .P      STR      r0,[r1,r2]
        0x0000200c:    2100        .!      MOVS     r1,#0
        0x0000200e:    2020                MOVS     r0,#0x20
        0x00002010:    0200        ..      LSLS     r0,r0,#8
        0x00002012:    3000        .0      ADDS     r0,#0
        0x00002014:    0200        ..      LSLS     r0,r0,#8
        0x00002016:    3004        .0      ADDS     r0,#4
        0x00002018:    0200        ..      LSLS     r0,r0,#8
        0x0000201a:    30f8        .0      ADDS     r0,r0,#0xf8
        0x0000201c:    8341        A.      STRH     r1,[r0,#0x1a]
        0x0000201e:    b007        ..      ADD      sp,sp,#0x1c
        0x00002020:    bdf0        ..      POP      {r4-r7,pc}
    radio_enable_interrupts
        0x00002022:    2040        @       MOVS     r0,#0x40
        0x00002024:    21e0        .!      MOVS     r1,#0xe0
        0x00002026:    0409        ..      LSLS     r1,r1,#16
        0x00002028:    31e1        .1      ADDS     r1,r1,#0xe1
        0x0000202a:    0209        ..      LSLS     r1,r1,#8
        0x0000202c:    6008        .`      STR      r0,[r1,#0]
        0x0000202e:    4770        pG      BX       lr
    radio_disable_interrupts
        0x00002030:    2040        @       MOVS     r0,#0x40
        0x00002032:    21e0        .!      MOVS     r1,#0xe0
        0x00002034:    0409        ..      LSLS     r1,r1,#16
        0x00002036:    31e1        .1      ADDS     r1,r1,#0xe1
        0x00002038:    0209        ..      LSLS     r1,r1,#8
        0x0000203a:    3180        .1      ADDS     r1,r1,#0x80
        0x0000203c:    6008        .`      STR      r0,[r1,#0]
        0x0000203e:    4770        pG      BX       lr
    radio_get_cdr_tau_value
        0x00002040:    2052        R       MOVS     r0,#0x52
        0x00002042:    0200        ..      LSLS     r0,r0,#8
        0x00002044:    3064        d0      ADDS     r0,r0,#0x64
        0x00002046:    0400        ..      LSLS     r0,r0,#16
        0x00002048:    8800        ..      LDRH     r0,[r0,#0]
        0x0000204a:    b200        ..      SXTH     r0,r0
        0x0000204c:    4770        pG      BX       lr
    build_RX_channel_table
        0x0000204e:    b5f1        ..      PUSH     {r0,r4-r7,lr}
        0x00002050:    b0a2        ..      SUB      sp,sp,#0x88
        0x00002052:    2140        @!      MOVS     r1,#0x40
        0x00002054:    a812        ..      ADD      r0,sp,#0x48
        0x00002056:    f002ff7a    ..z.    BL       __aeabi_memclr4 ; 0x4f4e
        0x0000205a:    2144        D!      MOVS     r1,#0x44
        0x0000205c:    a801        ..      ADD      r0,sp,#4
        0x0000205e:    f002ff76    ..v.    BL       __aeabi_memclr4 ; 0x4f4e
        0x00002062:    2120         !      MOVS     r1,#0x20
        0x00002064:    0209        ..      LSLS     r1,r1,#8
        0x00002066:    3100        .1      ADDS     r1,#0
        0x00002068:    0209        ..      LSLS     r1,r1,#8
        0x0000206a:    3104        .1      ADDS     r1,#4
        0x0000206c:    0209        ..      LSLS     r1,r1,#8
        0x0000206e:    3178        x1      ADDS     r1,r1,#0x78
        0x00002070:    9822        ".      LDR      r0,[sp,#0x88]
        0x00002072:    6188        .a      STR      r0,[r1,#0x18]
        0x00002074:    2400        .$      MOVS     r4,#0
        0x00002076:    e088        ..      B        0x218a ; build_RX_channel_table + 316
        0x00002078:    00a2        ..      LSLS     r2,r4,#2
        0x0000207a:    2120         !      MOVS     r1,#0x20
        0x0000207c:    0209        ..      LSLS     r1,r1,#8
        0x0000207e:    3100        .1      ADDS     r1,#0
        0x00002080:    0209        ..      LSLS     r1,r1,#8
        0x00002082:    3104        .1      ADDS     r1,#4
        0x00002084:    0209        ..      LSLS     r1,r1,#8
        0x00002086:    3190        .1      ADDS     r1,r1,#0x90
        0x00002088:    5888        .X      LDR      r0,[r1,r2]
        0x0000208a:    f002fbd1    ....    BL       LC_monotonic ; 0x4830
        0x0000208e:    2000        .       MOVS     r0,#0
        0x00002090:    2129        )!      MOVS     r1,#0x29
        0x00002092:    0649        I.      LSLS     r1,r1,#25
        0x00002094:    6008        .`      STR      r0,[r1,#0]
        0x00002096:    203f        ?       MOVS     r0,#0x3f
        0x00002098:    0200        ..      LSLS     r0,r0,#8
        0x0000209a:    30ff        .0      ADDS     r0,r0,#0xff
        0x0000209c:    6008        .`      STR      r0,[r1,#0]
        0x0000209e:    2701        .'      MOVS     r7,#1
        0x000020a0:    e000        ..      B        0x20a4 ; build_RX_channel_table + 86
        0x000020a2:    1c7f        ..      ADDS     r7,r7,#1
        0x000020a4:    207d        }       MOVS     r0,#0x7d
        0x000020a6:    01c0        ..      LSLS     r0,r0,#7
        0x000020a8:    4287        .B      CMP      r7,r0
        0x000020aa:    d3fa        ..      BCC      0x20a2 ; build_RX_channel_table + 84
        0x000020ac:    207f        .       MOVS     r0,#0x7f
        0x000020ae:    2129        )!      MOVS     r1,#0x29
        0x000020b0:    0649        I.      LSLS     r1,r1,#25
        0x000020b2:    6008        .`      STR      r0,[r1,#0]
        0x000020b4:    2052        R       MOVS     r0,#0x52
        0x000020b6:    0200        ..      LSLS     r0,r0,#8
        0x000020b8:    3028        (0      ADDS     r0,r0,#0x28
        0x000020ba:    0400        ..      LSLS     r0,r0,#16
        0x000020bc:    6805        .h      LDR      r5,[r0,#0]
        0x000020be:    2052        R       MOVS     r0,#0x52
        0x000020c0:    0200        ..      LSLS     r0,r0,#8
        0x000020c2:    302c        ,0      ADDS     r0,r0,#0x2c
        0x000020c4:    0400        ..      LSLS     r0,r0,#16
        0x000020c6:    6806        .h      LDR      r6,[r0,#0]
        0x000020c8:    0430        0.      LSLS     r0,r6,#16
        0x000020ca:    1940        @.      ADDS     r0,r0,r5
        0x000020cc:    00a1        ..      LSLS     r1,r4,#2
        0x000020ce:    aa12        ..      ADD      r2,sp,#0x48
        0x000020d0:    5050        PP      STR      r0,[r2,r1]
        0x000020d2:    1c61        a.      ADDS     r1,r4,#1
        0x000020d4:    0049        I.      LSLS     r1,r1,#1
        0x000020d6:    2203        ."      MOVS     r2,#3
        0x000020d8:    0212        ..      LSLS     r2,r2,#8
        0x000020da:    32c1        .2      ADDS     r2,r2,#0xc1
        0x000020dc:    1889        ..      ADDS     r1,r1,r2
        0x000020de:    9a12        ..      LDR      r2,[sp,#0x48]
        0x000020e0:    4351        QC      MULS     r1,r2,r1
        0x000020e2:    4608        .F      MOV      r0,r1
        0x000020e4:    2103        .!      MOVS     r1,#3
        0x000020e6:    0209        ..      LSLS     r1,r1,#8
        0x000020e8:    31c1        .1      ADDS     r1,r1,#0xc1
        0x000020ea:    f002ff32    ..2.    BL       __aeabi_uidiv ; 0x4f52
        0x000020ee:    1c61        a.      ADDS     r1,r4,#1
        0x000020f0:    0089        ..      LSLS     r1,r1,#2
        0x000020f2:    aa01        ..      ADD      r2,sp,#4
        0x000020f4:    5050        PP      STR      r0,[r2,r1]
        0x000020f6:    2c00        .,      CMP      r4,#0
        0x000020f8:    dd30        0.      BLE      0x215c ; build_RX_channel_table + 270
        0x000020fa:    00a0        ..      LSLS     r0,r4,#2
        0x000020fc:    a912        ..      ADD      r1,sp,#0x48
        0x000020fe:    5809        .X      LDR      r1,[r1,r0]
        0x00002100:    00a0        ..      LSLS     r0,r4,#2
        0x00002102:    5810        .X      LDR      r0,[r2,r0]
        0x00002104:    3814        .8      SUBS     r0,r0,#0x14
        0x00002106:    4281        .B      CMP      r1,r0
        0x00002108:    d213        ..      BCS      0x2132 ; build_RX_channel_table + 228
        0x0000210a:    00a1        ..      LSLS     r1,r4,#2
        0x0000210c:    2020                MOVS     r0,#0x20
        0x0000210e:    0200        ..      LSLS     r0,r0,#8
        0x00002110:    3000        .0      ADDS     r0,#0
        0x00002112:    0200        ..      LSLS     r0,r0,#8
        0x00002114:    3004        .0      ADDS     r0,#4
        0x00002116:    0200        ..      LSLS     r0,r0,#8
        0x00002118:    3090        .0      ADDS     r0,r0,#0x90
        0x0000211a:    5840        @X      LDR      r0,[r0,r1]
        0x0000211c:    1c40        @.      ADDS     r0,r0,#1
        0x0000211e:    00a2        ..      LSLS     r2,r4,#2
        0x00002120:    2120         !      MOVS     r1,#0x20
        0x00002122:    0209        ..      LSLS     r1,r1,#8
        0x00002124:    3100        .1      ADDS     r1,#0
        0x00002126:    0209        ..      LSLS     r1,r1,#8
        0x00002128:    3104        .1      ADDS     r1,#4
        0x0000212a:    0209        ..      LSLS     r1,r1,#8
        0x0000212c:    3190        .1      ADDS     r1,r1,#0x90
        0x0000212e:    5088        .P      STR      r0,[r1,r2]
        0x00002130:    e014        ..      B        0x215c ; build_RX_channel_table + 270
        0x00002132:    00a1        ..      LSLS     r1,r4,#2
        0x00002134:    2020                MOVS     r0,#0x20
        0x00002136:    0200        ..      LSLS     r0,r0,#8
        0x00002138:    3000        .0      ADDS     r0,#0
        0x0000213a:    0200        ..      LSLS     r0,r0,#8
        0x0000213c:    3004        .0      ADDS     r0,#4
        0x0000213e:    0200        ..      LSLS     r0,r0,#8
        0x00002140:    3090        .0      ADDS     r0,r0,#0x90
        0x00002142:    5840        @X      LDR      r0,[r0,r1]
        0x00002144:    3028        (0      ADDS     r0,r0,#0x28
        0x00002146:    1c61        a.      ADDS     r1,r4,#1
        0x00002148:    008a        ..      LSLS     r2,r1,#2
        0x0000214a:    2120         !      MOVS     r1,#0x20
        0x0000214c:    0209        ..      LSLS     r1,r1,#8
        0x0000214e:    3100        .1      ADDS     r1,#0
        0x00002150:    0209        ..      LSLS     r1,r1,#8
        0x00002152:    3104        .1      ADDS     r1,#4
        0x00002154:    0209        ..      LSLS     r1,r1,#8
        0x00002156:    3190        .1      ADDS     r1,r1,#0x90
        0x00002158:    5088        .P      STR      r0,[r1,r2]
        0x0000215a:    1c64        d.      ADDS     r4,r4,#1
        0x0000215c:    2c00        .,      CMP      r4,#0
        0x0000215e:    d114        ..      BNE      0x218a ; build_RX_channel_table + 316
        0x00002160:    00a1        ..      LSLS     r1,r4,#2
        0x00002162:    2020                MOVS     r0,#0x20
        0x00002164:    0200        ..      LSLS     r0,r0,#8
        0x00002166:    3000        .0      ADDS     r0,#0
        0x00002168:    0200        ..      LSLS     r0,r0,#8
        0x0000216a:    3004        .0      ADDS     r0,#4
        0x0000216c:    0200        ..      LSLS     r0,r0,#8
        0x0000216e:    3090        .0      ADDS     r0,r0,#0x90
        0x00002170:    5840        @X      LDR      r0,[r0,r1]
        0x00002172:    3028        (0      ADDS     r0,r0,#0x28
        0x00002174:    1c61        a.      ADDS     r1,r4,#1
        0x00002176:    008a        ..      LSLS     r2,r1,#2
        0x00002178:    2120         !      MOVS     r1,#0x20
        0x0000217a:    0209        ..      LSLS     r1,r1,#8
        0x0000217c:    3100        .1      ADDS     r1,#0
        0x0000217e:    0209        ..      LSLS     r1,r1,#8
        0x00002180:    3104        .1      ADDS     r1,#4
        0x00002182:    0209        ..      LSLS     r1,r1,#8
        0x00002184:    3190        .1      ADDS     r1,r1,#0x90
        0x00002186:    5088        .P      STR      r0,[r1,r2]
        0x00002188:    1c64        d.      ADDS     r4,r4,#1
        0x0000218a:    2c10        .,      CMP      r4,#0x10
        0x0000218c:    da00        ..      BGE      0x2190 ; build_RX_channel_table + 322
        0x0000218e:    e773        s.      B        0x2078 ; build_RX_channel_table + 42
        0x00002190:    2400        .$      MOVS     r4,#0
        0x00002192:    e000        ..      B        0x2196 ; build_RX_channel_table + 328
        0x00002194:    1c64        d.      ADDS     r4,r4,#1
        0x00002196:    2c10        .,      CMP      r4,#0x10
        0x00002198:    dbfc        ..      BLT      0x2194 ; build_RX_channel_table + 326
        0x0000219a:    9812        ..      LDR      r0,[sp,#0x48]
        0x0000219c:    b023        #.      ADD      sp,sp,#0x8c
        0x0000219e:    bdf0        ..      POP      {r4-r7,pc}
    build_TX_channel_table
        0x000021a0:    b5f0        ..      PUSH     {r4-r7,lr}
        0x000021a2:    b0b3        ..      SUB      sp,sp,#0xcc
        0x000021a4:    4605        .F      MOV      r5,r0
        0x000021a6:    460e        .F      MOV      r6,r1
        0x000021a8:    2400        .$      MOVS     r4,#0
        0x000021aa:    2140        @!      MOVS     r1,#0x40
        0x000021ac:    a821        !.      ADD      r0,sp,#0x84
        0x000021ae:    f002fece    ....    BL       __aeabi_memclr4 ; 0x4f4e
        0x000021b2:    2144        D!      MOVS     r1,#0x44
        0x000021b4:    a810        ..      ADD      r0,sp,#0x40
        0x000021b6:    f002feca    ....    BL       __aeabi_memclr4 ; 0x4f4e
        0x000021ba:    2220         "      MOVS     r2,#0x20
        0x000021bc:    2100        .!      MOVS     r1,#0
        0x000021be:    0209        ..      LSLS     r1,r1,#8
        0x000021c0:    3100        .1      ADDS     r1,#0
        0x000021c2:    0209        ..      LSLS     r1,r1,#8
        0x000021c4:    3158        X1      ADDS     r1,r1,#0x58
        0x000021c6:    0209        ..      LSLS     r1,r1,#8
        0x000021c8:    3194        .1      ADDS     r1,r1,#0x94
        0x000021ca:    a808        ..      ADD      r0,sp,#0x20
        0x000021cc:    f7fdffb6    ....    BL       __aeabi_memcpy4 ; 0x13c
        0x000021d0:    2220         "      MOVS     r2,#0x20
        0x000021d2:    2100        .!      MOVS     r1,#0
        0x000021d4:    0209        ..      LSLS     r1,r1,#8
        0x000021d6:    3100        .1      ADDS     r1,#0
        0x000021d8:    0209        ..      LSLS     r1,r1,#8
        0x000021da:    3158        X1      ADDS     r1,r1,#0x58
        0x000021dc:    0209        ..      LSLS     r1,r1,#8
        0x000021de:    31b4        .1      ADDS     r1,r1,#0xb4
        0x000021e0:    4668        hF      MOV      r0,sp
        0x000021e2:    f7fdffab    ....    BL       __aeabi_memcpy4 ; 0x13c
        0x000021e6:    2020                MOVS     r0,#0x20
        0x000021e8:    0200        ..      LSLS     r0,r0,#8
        0x000021ea:    3000        .0      ADDS     r0,#0
        0x000021ec:    0200        ..      LSLS     r0,r0,#8
        0x000021ee:    3004        .0      ADDS     r0,#4
        0x000021f0:    0200        ..      LSLS     r0,r0,#8
        0x000021f2:    3078        x0      ADDS     r0,r0,#0x78
        0x000021f4:    6585        .e      STR      r5,[r0,#0x58]
        0x000021f6:    e070        p.      B        0x22da ; build_TX_channel_table + 314
        0x000021f8:    00a2        ..      LSLS     r2,r4,#2
        0x000021fa:    2120         !      MOVS     r1,#0x20
        0x000021fc:    0209        ..      LSLS     r1,r1,#8
        0x000021fe:    3100        .1      ADDS     r1,#0
        0x00002200:    0209        ..      LSLS     r1,r1,#8
        0x00002202:    3104        .1      ADDS     r1,#4
        0x00002204:    0209        ..      LSLS     r1,r1,#8
        0x00002206:    31d0        .1      ADDS     r1,r1,#0xd0
        0x00002208:    5888        .X      LDR      r0,[r1,r2]
        0x0000220a:    f002fb11    ....    BL       LC_monotonic ; 0x4830
        0x0000220e:    2000        .       MOVS     r0,#0
        0x00002210:    2129        )!      MOVS     r1,#0x29
        0x00002212:    0649        I.      LSLS     r1,r1,#25
        0x00002214:    6008        .`      STR      r0,[r1,#0]
        0x00002216:    203f        ?       MOVS     r0,#0x3f
        0x00002218:    0200        ..      LSLS     r0,r0,#8
        0x0000221a:    30ff        .0      ADDS     r0,r0,#0xff
        0x0000221c:    6008        .`      STR      r0,[r1,#0]
        0x0000221e:    2001        .       MOVS     r0,#1
        0x00002220:    9031        1.      STR      r0,[sp,#0xc4]
        0x00002222:    e002        ..      B        0x222a ; build_TX_channel_table + 138
        0x00002224:    9831        1.      LDR      r0,[sp,#0xc4]
        0x00002226:    1c40        @.      ADDS     r0,r0,#1
        0x00002228:    9031        1.      STR      r0,[sp,#0xc4]
        0x0000222a:    217d        }!      MOVS     r1,#0x7d
        0x0000222c:    01c9        ..      LSLS     r1,r1,#7
        0x0000222e:    9831        1.      LDR      r0,[sp,#0xc4]
        0x00002230:    4288        .B      CMP      r0,r1
        0x00002232:    dbf7        ..      BLT      0x2224 ; build_TX_channel_table + 132
        0x00002234:    207f        .       MOVS     r0,#0x7f
        0x00002236:    2129        )!      MOVS     r1,#0x29
        0x00002238:    0649        I.      LSLS     r1,r1,#25
        0x0000223a:    6008        .`      STR      r0,[r1,#0]
        0x0000223c:    2052        R       MOVS     r0,#0x52
        0x0000223e:    0200        ..      LSLS     r0,r0,#8
        0x00002240:    3028        (0      ADDS     r0,r0,#0x28
        0x00002242:    0400        ..      LSLS     r0,r0,#16
        0x00002244:    6807        .h      LDR      r7,[r0,#0]
        0x00002246:    2052        R       MOVS     r0,#0x52
        0x00002248:    0200        ..      LSLS     r0,r0,#8
        0x0000224a:    302c        ,0      ADDS     r0,r0,#0x2c
        0x0000224c:    0400        ..      LSLS     r0,r0,#16
        0x0000224e:    6800        .h      LDR      r0,[r0,#0]
        0x00002250:    9032        2.      STR      r0,[sp,#0xc8]
        0x00002252:    9832        2.      LDR      r0,[sp,#0xc8]
        0x00002254:    0400        ..      LSLS     r0,r0,#16
        0x00002256:    19c0        ..      ADDS     r0,r0,r7
        0x00002258:    00a1        ..      LSLS     r1,r4,#2
        0x0000225a:    aa21        !.      ADD      r2,sp,#0x84
        0x0000225c:    5050        PP      STR      r0,[r2,r1]
        0x0000225e:    0062        b.      LSLS     r2,r4,#1
        0x00002260:    466b        kF      MOV      r3,sp
        0x00002262:    5a99        .Z      LDRH     r1,[r3,r2]
        0x00002264:    0062        b.      LSLS     r2,r4,#1
        0x00002266:    ab08        ..      ADD      r3,sp,#0x20
        0x00002268:    5a9a        .Z      LDRH     r2,[r3,r2]
        0x0000226a:    4372        rC      MULS     r2,r6,r2
        0x0000226c:    4610        .F      MOV      r0,r2
        0x0000226e:    f002fe70    ..p.    BL       __aeabi_uidiv ; 0x4f52
        0x00002272:    00a1        ..      LSLS     r1,r4,#2
        0x00002274:    aa10        ..      ADD      r2,sp,#0x40
        0x00002276:    5050        PP      STR      r0,[r2,r1]
        0x00002278:    00a0        ..      LSLS     r0,r4,#2
        0x0000227a:    a921        !.      ADD      r1,sp,#0x84
        0x0000227c:    5809        .X      LDR      r1,[r1,r0]
        0x0000227e:    00a0        ..      LSLS     r0,r4,#2
        0x00002280:    5810        .X      LDR      r0,[r2,r0]
        0x00002282:    1f40        @.      SUBS     r0,r0,#5
        0x00002284:    4281        .B      CMP      r1,r0
        0x00002286:    d213        ..      BCS      0x22b0 ; build_TX_channel_table + 272
        0x00002288:    00a1        ..      LSLS     r1,r4,#2
        0x0000228a:    2020                MOVS     r0,#0x20
        0x0000228c:    0200        ..      LSLS     r0,r0,#8
        0x0000228e:    3000        .0      ADDS     r0,#0
        0x00002290:    0200        ..      LSLS     r0,r0,#8
        0x00002292:    3004        .0      ADDS     r0,#4
        0x00002294:    0200        ..      LSLS     r0,r0,#8
        0x00002296:    30d0        .0      ADDS     r0,r0,#0xd0
        0x00002298:    5840        @X      LDR      r0,[r0,r1]
        0x0000229a:    1c40        @.      ADDS     r0,r0,#1
        0x0000229c:    00a2        ..      LSLS     r2,r4,#2
        0x0000229e:    2120         !      MOVS     r1,#0x20
        0x000022a0:    0209        ..      LSLS     r1,r1,#8
        0x000022a2:    3100        .1      ADDS     r1,#0
        0x000022a4:    0209        ..      LSLS     r1,r1,#8
        0x000022a6:    3104        .1      ADDS     r1,#4
        0x000022a8:    0209        ..      LSLS     r1,r1,#8
        0x000022aa:    31d0        .1      ADDS     r1,r1,#0xd0
        0x000022ac:    5088        .P      STR      r0,[r1,r2]
        0x000022ae:    e014        ..      B        0x22da ; build_TX_channel_table + 314
        0x000022b0:    00a1        ..      LSLS     r1,r4,#2
        0x000022b2:    2020                MOVS     r0,#0x20
        0x000022b4:    0200        ..      LSLS     r0,r0,#8
        0x000022b6:    3000        .0      ADDS     r0,#0
        0x000022b8:    0200        ..      LSLS     r0,r0,#8
        0x000022ba:    3004        .0      ADDS     r0,#4
        0x000022bc:    0200        ..      LSLS     r0,r0,#8
        0x000022be:    30d0        .0      ADDS     r0,r0,#0xd0
        0x000022c0:    5840        @X      LDR      r0,[r0,r1]
        0x000022c2:    3028        (0      ADDS     r0,r0,#0x28
        0x000022c4:    1c61        a.      ADDS     r1,r4,#1
        0x000022c6:    008a        ..      LSLS     r2,r1,#2
        0x000022c8:    2120         !      MOVS     r1,#0x20
        0x000022ca:    0209        ..      LSLS     r1,r1,#8
        0x000022cc:    3100        .1      ADDS     r1,#0
        0x000022ce:    0209        ..      LSLS     r1,r1,#8
        0x000022d0:    3104        .1      ADDS     r1,#4
        0x000022d2:    0209        ..      LSLS     r1,r1,#8
        0x000022d4:    31d0        .1      ADDS     r1,r1,#0xd0
        0x000022d6:    5088        .P      STR      r0,[r1,r2]
        0x000022d8:    1c64        d.      ADDS     r4,r4,#1
        0x000022da:    2c10        .,      CMP      r4,#0x10
        0x000022dc:    db8c        ..      BLT      0x21f8 ; build_TX_channel_table + 88
        0x000022de:    b033        3.      ADD      sp,sp,#0xcc
        0x000022e0:    bdf0        ..      POP      {r4-r7,pc}
    radio_build_channel_table
        0x000022e2:    b570        p.      PUSH     {r4-r6,lr}
        0x000022e4:    4604        .F      MOV      r4,r0
        0x000022e6:    4620         F      MOV      r0,r4
        0x000022e8:    f7fffeb1    ....    BL       build_RX_channel_table ; 0x204e
        0x000022ec:    4605        .F      MOV      r5,r0
        0x000022ee:    2003        .       MOVS     r0,#3
        0x000022f0:    0200        ..      LSLS     r0,r0,#8
        0x000022f2:    30cb        .0      ADDS     r0,r0,#0xcb
        0x000022f4:    f001f8fb    ....    BL       clear_asc_bit ; 0x34ee
        0x000022f8:    20ff        .       MOVS     r0,#0xff
        0x000022fa:    302b        +0      ADDS     r0,r0,#0x2b
        0x000022fc:    f001f913    ....    BL       set_asc_bit ; 0x3526
        0x00002300:    20ff        .       MOVS     r0,#0xff
        0x00002302:    3034        40      ADDS     r0,r0,#0x34
        0x00002304:    f001f90f    ....    BL       set_asc_bit ; 0x3526
        0x00002308:    20ff        .       MOVS     r0,#0xff
        0x0000230a:    30f9        .0      ADDS     r0,r0,#0xf9
        0x0000230c:    f001f8ef    ....    BL       clear_asc_bit ; 0x34ee
        0x00002310:    20ff        .       MOVS     r0,#0xff
        0x00002312:    30fb        .0      ADDS     r0,r0,#0xfb
        0x00002314:    f001f907    ....    BL       set_asc_bit ; 0x3526
        0x00002318:    20ff        .       MOVS     r0,#0xff
        0x0000231a:    30fd        .0      ADDS     r0,r0,#0xfd
        0x0000231c:    f001f903    ....    BL       set_asc_bit ; 0x3526
        0x00002320:    4629        )F      MOV      r1,r5
        0x00002322:    4620         F      MOV      r0,r4
        0x00002324:    f7ffff3c    ..<.    BL       build_TX_channel_table ; 0x21a0
        0x00002328:    f7fff988    ....    BL       radio_rfOff ; 0x163c
        0x0000232c:    bd70        p.      POP      {r4-r6,pc}
    radio_isr
        0x0000232e:    b570        p.      PUSH     {r4-r6,lr}
        0x00002330:    2001        .       MOVS     r0,#1
        0x00002332:    0780        ..      LSLS     r0,r0,#30
        0x00002334:    6904        .i      LDR      r4,[r0,#0x10]
        0x00002336:    69c5        .i      LDR      r5,[r0,#0x1c]
        0x00002338:    f000fbb5    ....    BL       gpio_2_set ; 0x2aa6
        0x0000233c:    f000fc4f    ..O.    BL       gpio_6_set ; 0x2bde
        0x00002340:    2101        .!      MOVS     r1,#1
        0x00002342:    2020                MOVS     r0,#0x20
        0x00002344:    0200        ..      LSLS     r0,r0,#8
        0x00002346:    3000        .0      ADDS     r0,#0
        0x00002348:    0200        ..      LSLS     r0,r0,#8
        0x0000234a:    3004        .0      ADDS     r0,#4
        0x0000234c:    0200        ..      LSLS     r0,r0,#8
        0x0000234e:    3078        x0      ADDS     r0,r0,#0x78
        0x00002350:    7541        Au      STRB     r1,[r0,#0x15]
        0x00002352:    2d00        .-      CMP      r5,#0
        0x00002354:    d00d        ..      BEQ      0x2372 ; radio_isr + 68
        0x00002356:    2008        .       MOVS     r0,#8
        0x00002358:    4028        (@      ANDS     r0,r0,r5
        0x0000235a:    2800        .(      CMP      r0,#0
        0x0000235c:    d008        ..      BEQ      0x2370 ; radio_isr + 66
        0x0000235e:    2100        .!      MOVS     r1,#0
        0x00002360:    2020                MOVS     r0,#0x20
        0x00002362:    0200        ..      LSLS     r0,r0,#8
        0x00002364:    3000        .0      ADDS     r0,#0
        0x00002366:    0200        ..      LSLS     r0,r0,#8
        0x00002368:    3004        .0      ADDS     r0,#4
        0x0000236a:    0200        ..      LSLS     r0,r0,#8
        0x0000236c:    3078        x0      ADDS     r0,r0,#0x78
        0x0000236e:    7541        Au      STRB     r1,[r0,#0x15]
        0x00002370:    bf00        ..      NOP      
        0x00002372:    2001        .       MOVS     r0,#1
        0x00002374:    0780        ..      LSLS     r0,r0,#30
        0x00002376:    6245        Eb      STR      r5,[r0,#0x24]
        0x00002378:    07e0        ..      LSLS     r0,r4,#31
        0x0000237a:    0fc0        ..      LSRS     r0,r0,#31
        0x0000237c:    2800        .(      CMP      r0,#0
        0x0000237e:    d006        ..      BEQ      0x238e ; radio_isr + 96
        0x00002380:    2001        .       MOVS     r0,#1
        0x00002382:    0780        ..      LSLS     r0,r0,#30
        0x00002384:    6980        .i      LDR      r0,[r0,#0x18]
        0x00002386:    2101        .!      MOVS     r1,#1
        0x00002388:    4308        .C      ORRS     r0,r0,r1
        0x0000238a:    0789        ..      LSLS     r1,r1,#30
        0x0000238c:    6188        .a      STR      r0,[r1,#0x18]
        0x0000238e:    2002        .       MOVS     r0,#2
        0x00002390:    4020         @      ANDS     r0,r0,r4
        0x00002392:    2800        .(      CMP      r0,#0
        0x00002394:    d01c        ..      BEQ      0x23d0 ; radio_isr + 162
        0x00002396:    2020                MOVS     r0,#0x20
        0x00002398:    0200        ..      LSLS     r0,r0,#8
        0x0000239a:    3000        .0      ADDS     r0,#0
        0x0000239c:    0200        ..      LSLS     r0,r0,#8
        0x0000239e:    3003        .0      ADDS     r0,#3
        0x000023a0:    0200        ..      LSLS     r0,r0,#8
        0x000023a2:    3078        x0      ADDS     r0,r0,#0x78
        0x000023a4:    6840        @h      LDR      r0,[r0,#4]
        0x000023a6:    2800        .(      CMP      r0,#0
        0x000023a8:    d00b        ..      BEQ      0x23c2 ; radio_isr + 148
        0x000023aa:    2221        !"      MOVS     r2,#0x21
        0x000023ac:    0652        R.      LSLS     r2,r2,#25
        0x000023ae:    6850        Ph      LDR      r0,[r2,#4]
        0x000023b0:    2220         "      MOVS     r2,#0x20
        0x000023b2:    0212        ..      LSLS     r2,r2,#8
        0x000023b4:    3200        .2      ADDS     r2,#0
        0x000023b6:    0212        ..      LSLS     r2,r2,#8
        0x000023b8:    3203        .2      ADDS     r2,#3
        0x000023ba:    0212        ..      LSLS     r2,r2,#8
        0x000023bc:    3278        x2      ADDS     r2,r2,#0x78
        0x000023be:    6851        Qh      LDR      r1,[r2,#4]
        0x000023c0:    4788        .G      BLX      r1
        0x000023c2:    2001        .       MOVS     r0,#1
        0x000023c4:    0780        ..      LSLS     r0,r0,#30
        0x000023c6:    6980        .i      LDR      r0,[r0,#0x18]
        0x000023c8:    2102        .!      MOVS     r1,#2
        0x000023ca:    4308        .C      ORRS     r0,r0,r1
        0x000023cc:    0749        I.      LSLS     r1,r1,#29
        0x000023ce:    6188        .a      STR      r0,[r1,#0x18]
        0x000023d0:    2004        .       MOVS     r0,#4
        0x000023d2:    4020         @      ANDS     r0,r0,r4
        0x000023d4:    2800        .(      CMP      r0,#0
        0x000023d6:    d01c        ..      BEQ      0x2412 ; radio_isr + 228
        0x000023d8:    2020                MOVS     r0,#0x20
        0x000023da:    0200        ..      LSLS     r0,r0,#8
        0x000023dc:    3000        .0      ADDS     r0,#0
        0x000023de:    0200        ..      LSLS     r0,r0,#8
        0x000023e0:    3003        .0      ADDS     r0,#3
        0x000023e2:    0200        ..      LSLS     r0,r0,#8
        0x000023e4:    3078        x0      ADDS     r0,r0,#0x78
        0x000023e6:    6880        .h      LDR      r0,[r0,#8]
        0x000023e8:    2800        .(      CMP      r0,#0
        0x000023ea:    d00b        ..      BEQ      0x2404 ; radio_isr + 214
        0x000023ec:    2221        !"      MOVS     r2,#0x21
        0x000023ee:    0652        R.      LSLS     r2,r2,#25
        0x000023f0:    6850        Ph      LDR      r0,[r2,#4]
        0x000023f2:    2220         "      MOVS     r2,#0x20
        0x000023f4:    0212        ..      LSLS     r2,r2,#8
        0x000023f6:    3200        .2      ADDS     r2,#0
        0x000023f8:    0212        ..      LSLS     r2,r2,#8
        0x000023fa:    3203        .2      ADDS     r2,#3
        0x000023fc:    0212        ..      LSLS     r2,r2,#8
        0x000023fe:    3278        x2      ADDS     r2,r2,#0x78
        0x00002400:    6891        .h      LDR      r1,[r2,#8]
        0x00002402:    4788        .G      BLX      r1
        0x00002404:    2001        .       MOVS     r0,#1
        0x00002406:    0780        ..      LSLS     r0,r0,#30
        0x00002408:    6980        .i      LDR      r0,[r0,#0x18]
        0x0000240a:    2104        .!      MOVS     r1,#4
        0x0000240c:    4308        .C      ORRS     r0,r0,r1
        0x0000240e:    0709        ..      LSLS     r1,r1,#28
        0x00002410:    6188        .a      STR      r0,[r1,#0x18]
        0x00002412:    2008        .       MOVS     r0,#8
        0x00002414:    4020         @      ANDS     r0,r0,r4
        0x00002416:    2800        .(      CMP      r0,#0
        0x00002418:    d01c        ..      BEQ      0x2454 ; radio_isr + 294
        0x0000241a:    2020                MOVS     r0,#0x20
        0x0000241c:    0200        ..      LSLS     r0,r0,#8
        0x0000241e:    3000        .0      ADDS     r0,#0
        0x00002420:    0200        ..      LSLS     r0,r0,#8
        0x00002422:    3003        .0      ADDS     r0,#3
        0x00002424:    0200        ..      LSLS     r0,r0,#8
        0x00002426:    3078        x0      ADDS     r0,r0,#0x78
        0x00002428:    68c0        .h      LDR      r0,[r0,#0xc]
        0x0000242a:    2800        .(      CMP      r0,#0
        0x0000242c:    d00b        ..      BEQ      0x2446 ; radio_isr + 280
        0x0000242e:    2221        !"      MOVS     r2,#0x21
        0x00002430:    0652        R.      LSLS     r2,r2,#25
        0x00002432:    6850        Ph      LDR      r0,[r2,#4]
        0x00002434:    2220         "      MOVS     r2,#0x20
        0x00002436:    0212        ..      LSLS     r2,r2,#8
        0x00002438:    3200        .2      ADDS     r2,#0
        0x0000243a:    0212        ..      LSLS     r2,r2,#8
        0x0000243c:    3203        .2      ADDS     r2,#3
        0x0000243e:    0212        ..      LSLS     r2,r2,#8
        0x00002440:    3278        x2      ADDS     r2,r2,#0x78
        0x00002442:    68d1        .h      LDR      r1,[r2,#0xc]
        0x00002444:    4788        .G      BLX      r1
        0x00002446:    2001        .       MOVS     r0,#1
        0x00002448:    0780        ..      LSLS     r0,r0,#30
        0x0000244a:    6980        .i      LDR      r0,[r0,#0x18]
        0x0000244c:    2108        .!      MOVS     r1,#8
        0x0000244e:    4308        .C      ORRS     r0,r0,r1
        0x00002450:    06c9        ..      LSLS     r1,r1,#27
        0x00002452:    6188        .a      STR      r0,[r1,#0x18]
        0x00002454:    2010        .       MOVS     r0,#0x10
        0x00002456:    4020         @      ANDS     r0,r0,r4
        0x00002458:    2800        .(      CMP      r0,#0
        0x0000245a:    d01c        ..      BEQ      0x2496 ; radio_isr + 360
        0x0000245c:    2020                MOVS     r0,#0x20
        0x0000245e:    0200        ..      LSLS     r0,r0,#8
        0x00002460:    3000        .0      ADDS     r0,#0
        0x00002462:    0200        ..      LSLS     r0,r0,#8
        0x00002464:    3003        .0      ADDS     r0,#3
        0x00002466:    0200        ..      LSLS     r0,r0,#8
        0x00002468:    3078        x0      ADDS     r0,r0,#0x78
        0x0000246a:    6900        .i      LDR      r0,[r0,#0x10]
        0x0000246c:    2800        .(      CMP      r0,#0
        0x0000246e:    d00b        ..      BEQ      0x2488 ; radio_isr + 346
        0x00002470:    2221        !"      MOVS     r2,#0x21
        0x00002472:    0652        R.      LSLS     r2,r2,#25
        0x00002474:    6850        Ph      LDR      r0,[r2,#4]
        0x00002476:    2220         "      MOVS     r2,#0x20
        0x00002478:    0212        ..      LSLS     r2,r2,#8
        0x0000247a:    3200        .2      ADDS     r2,#0
        0x0000247c:    0212        ..      LSLS     r2,r2,#8
        0x0000247e:    3203        .2      ADDS     r2,#3
        0x00002480:    0212        ..      LSLS     r2,r2,#8
        0x00002482:    3278        x2      ADDS     r2,r2,#0x78
        0x00002484:    6911        .i      LDR      r1,[r2,#0x10]
        0x00002486:    4788        .G      BLX      r1
        0x00002488:    2001        .       MOVS     r0,#1
        0x0000248a:    0780        ..      LSLS     r0,r0,#30
        0x0000248c:    6980        .i      LDR      r0,[r0,#0x18]
        0x0000248e:    2110        .!      MOVS     r1,#0x10
        0x00002490:    4308        .C      ORRS     r0,r0,r1
        0x00002492:    0689        ..      LSLS     r1,r1,#26
        0x00002494:    6188        .a      STR      r0,[r1,#0x18]
        0x00002496:    f000fb13    ....    BL       gpio_2_clr ; 0x2ac0
        0x0000249a:    f000fbad    ....    BL       gpio_6_clr ; 0x2bf8
        0x0000249e:    bd70        p.      POP      {r4-r6,pc}
    rawchips_32_isr
        0x000024a0:    b570        p.      PUSH     {r4-r6,lr}
        0x000024a2:    2052        R       MOVS     r0,#0x52
        0x000024a4:    0200        ..      LSLS     r0,r0,#8
        0x000024a6:    3044        D0      ADDS     r0,r0,#0x44
        0x000024a8:    0400        ..      LSLS     r0,r0,#16
        0x000024aa:    6805        .h      LDR      r5,[r0,#0]
        0x000024ac:    2052        R       MOVS     r0,#0x52
        0x000024ae:    0200        ..      LSLS     r0,r0,#8
        0x000024b0:    3048        H0      ADDS     r0,r0,#0x48
        0x000024b2:    0400        ..      LSLS     r0,r0,#16
        0x000024b4:    6806        .h      LDR      r6,[r0,#0]
        0x000024b6:    0430        0.      LSLS     r0,r6,#16
        0x000024b8:    1940        @.      ADDS     r0,r0,r5
        0x000024ba:    2120         !      MOVS     r1,#0x20
        0x000024bc:    0209        ..      LSLS     r1,r1,#8
        0x000024be:    3100        .1      ADDS     r1,#0
        0x000024c0:    0209        ..      LSLS     r1,r1,#8
        0x000024c2:    3100        .1      ADDS     r1,#0
        0x000024c4:    0209        ..      LSLS     r1,r1,#8
        0x000024c6:    311c        .1      ADDS     r1,r1,#0x1c
        0x000024c8:    6809        .h      LDR      r1,[r1,#0]
        0x000024ca:    0089        ..      LSLS     r1,r1,#2
        0x000024cc:    2220         "      MOVS     r2,#0x20
        0x000024ce:    0212        ..      LSLS     r2,r2,#8
        0x000024d0:    3200        .2      ADDS     r2,#0
        0x000024d2:    0212        ..      LSLS     r2,r2,#8
        0x000024d4:    3201        .2      ADDS     r2,#1
        0x000024d6:    0212        ..      LSLS     r2,r2,#8
        0x000024d8:    32d0        .2      ADDS     r2,r2,#0xd0
        0x000024da:    5050        PP      STR      r0,[r2,r1]
        0x000024dc:    2020                MOVS     r0,#0x20
        0x000024de:    0200        ..      LSLS     r0,r0,#8
        0x000024e0:    3000        .0      ADDS     r0,#0
        0x000024e2:    0200        ..      LSLS     r0,r0,#8
        0x000024e4:    3000        .0      ADDS     r0,#0
        0x000024e6:    0200        ..      LSLS     r0,r0,#8
        0x000024e8:    301c        .0      ADDS     r0,r0,#0x1c
        0x000024ea:    6800        .h      LDR      r0,[r0,#0]
        0x000024ec:    1c40        @.      ADDS     r0,r0,#1
        0x000024ee:    2120         !      MOVS     r1,#0x20
        0x000024f0:    0209        ..      LSLS     r1,r1,#8
        0x000024f2:    3100        .1      ADDS     r1,#0
        0x000024f4:    0209        ..      LSLS     r1,r1,#8
        0x000024f6:    3100        .1      ADDS     r1,#0
        0x000024f8:    0209        ..      LSLS     r1,r1,#8
        0x000024fa:    311c        .1      ADDS     r1,r1,#0x1c
        0x000024fc:    6008        .`      STR      r0,[r1,#0]
        0x000024fe:    2020                MOVS     r0,#0x20
        0x00002500:    0200        ..      LSLS     r0,r0,#8
        0x00002502:    3000        .0      ADDS     r0,#0
        0x00002504:    0200        ..      LSLS     r0,r0,#8
        0x00002506:    3000        .0      ADDS     r0,#0
        0x00002508:    0200        ..      LSLS     r0,r0,#8
        0x0000250a:    3028        (0      ADDS     r0,r0,#0x28
        0x0000250c:    6800        .h      LDR      r0,[r0,#0]
        0x0000250e:    2120         !      MOVS     r1,#0x20
        0x00002510:    4308        .C      ORRS     r0,r0,r1
        0x00002512:    2120         !      MOVS     r1,#0x20
        0x00002514:    0209        ..      LSLS     r1,r1,#8
        0x00002516:    3100        .1      ADDS     r1,#0
        0x00002518:    0209        ..      LSLS     r1,r1,#8
        0x0000251a:    3100        .1      ADDS     r1,#0
        0x0000251c:    0209        ..      LSLS     r1,r1,#8
        0x0000251e:    3128        (1      ADDS     r1,r1,#0x28
        0x00002520:    6008        .`      STR      r0,[r1,#0]
        0x00002522:    4608        .F      MOV      r0,r1
        0x00002524:    6800        .h      LDR      r0,[r0,#0]
        0x00002526:    2152        R!      MOVS     r1,#0x52
        0x00002528:    0209        ..      LSLS     r1,r1,#8
        0x0000252a:    310c        .1      ADDS     r1,r1,#0xc
        0x0000252c:    0409        ..      LSLS     r1,r1,#16
        0x0000252e:    6008        .`      STR      r0,[r1,#0]
        0x00002530:    2020                MOVS     r0,#0x20
        0x00002532:    0200        ..      LSLS     r0,r0,#8
        0x00002534:    3000        .0      ADDS     r0,#0
        0x00002536:    0200        ..      LSLS     r0,r0,#8
        0x00002538:    3000        .0      ADDS     r0,#0
        0x0000253a:    0200        ..      LSLS     r0,r0,#8
        0x0000253c:    3028        (0      ADDS     r0,r0,#0x28
        0x0000253e:    6800        .h      LDR      r0,[r0,#0]
        0x00002540:    2120         !      MOVS     r1,#0x20
        0x00002542:    4388        .C      BICS     r0,r0,r1
        0x00002544:    2120         !      MOVS     r1,#0x20
        0x00002546:    0209        ..      LSLS     r1,r1,#8
        0x00002548:    3100        .1      ADDS     r1,#0
        0x0000254a:    0209        ..      LSLS     r1,r1,#8
        0x0000254c:    3100        .1      ADDS     r1,#0
        0x0000254e:    0209        ..      LSLS     r1,r1,#8
        0x00002550:    3128        (1      ADDS     r1,r1,#0x28
        0x00002552:    6008        .`      STR      r0,[r1,#0]
        0x00002554:    4608        .F      MOV      r0,r1
        0x00002556:    6800        .h      LDR      r0,[r0,#0]
        0x00002558:    2152        R!      MOVS     r1,#0x52
        0x0000255a:    0209        ..      LSLS     r1,r1,#8
        0x0000255c:    310c        .1      ADDS     r1,r1,#0xc
        0x0000255e:    0409        ..      LSLS     r1,r1,#16
        0x00002560:    6008        .`      STR      r0,[r1,#0]
        0x00002562:    2020                MOVS     r0,#0x20
        0x00002564:    0200        ..      LSLS     r0,r0,#8
        0x00002566:    3000        .0      ADDS     r0,#0
        0x00002568:    0200        ..      LSLS     r0,r0,#8
        0x0000256a:    3000        .0      ADDS     r0,#0
        0x0000256c:    0200        ..      LSLS     r0,r0,#8
        0x0000256e:    301c        .0      ADDS     r0,r0,#0x1c
        0x00002570:    6800        .h      LDR      r0,[r0,#0]
        0x00002572:    280a        .(      CMP      r0,#0xa
        0x00002574:    d13f        ?.      BNE      0x25f6 ; rawchips_32_isr + 342
        0x00002576:    2401        .$      MOVS     r4,#1
        0x00002578:    e012        ..      B        0x25a0 ; rawchips_32_isr + 256
        0x0000257a:    00a0        ..      LSLS     r0,r4,#2
        0x0000257c:    2220         "      MOVS     r2,#0x20
        0x0000257e:    0212        ..      LSLS     r2,r2,#8
        0x00002580:    3200        .2      ADDS     r2,#0
        0x00002582:    0212        ..      LSLS     r2,r2,#8
        0x00002584:    3201        .2      ADDS     r2,#1
        0x00002586:    0212        ..      LSLS     r2,r2,#8
        0x00002588:    32d0        .2      ADDS     r2,r2,#0xd0
        0x0000258a:    5811        .X      LDR      r1,[r2,r0]
        0x0000258c:    2000        .       MOVS     r0,#0
        0x0000258e:    0200        ..      LSLS     r0,r0,#8
        0x00002590:    3000        .0      ADDS     r0,#0
        0x00002592:    0200        ..      LSLS     r0,r0,#8
        0x00002594:    305a        Z0      ADDS     r0,r0,#0x5a
        0x00002596:    0200        ..      LSLS     r0,r0,#8
        0x00002598:    3068        h0      ADDS     r0,r0,#0x68
        0x0000259a:    f002fbd3    ....    BL       __2printf ; 0x4d44
        0x0000259e:    1c64        d.      ADDS     r4,r4,#1
        0x000025a0:    2c0a        .,      CMP      r4,#0xa
        0x000025a2:    d3ea        ..      BCC      0x257a ; rawchips_32_isr + 218
        0x000025a4:    20ff        .       MOVS     r0,#0xff
        0x000025a6:    3001        .0      ADDS     r0,#1
        0x000025a8:    21e0        .!      MOVS     r1,#0xe0
        0x000025aa:    0409        ..      LSLS     r1,r1,#16
        0x000025ac:    31e1        .1      ADDS     r1,r1,#0xe1
        0x000025ae:    0209        ..      LSLS     r1,r1,#8
        0x000025b0:    3180        .1      ADDS     r1,r1,#0x80
        0x000025b2:    6008        .`      STR      r0,[r1,#0]
        0x000025b4:    0040        @.      LSLS     r0,r0,#1
        0x000025b6:    21e0        .!      MOVS     r1,#0xe0
        0x000025b8:    0409        ..      LSLS     r1,r1,#16
        0x000025ba:    31e1        .1      ADDS     r1,r1,#0xe1
        0x000025bc:    0209        ..      LSLS     r1,r1,#8
        0x000025be:    6008        .`      STR      r0,[r1,#0]
        0x000025c0:    2000        .       MOVS     r0,#0
        0x000025c2:    2120         !      MOVS     r1,#0x20
        0x000025c4:    0209        ..      LSLS     r1,r1,#8
        0x000025c6:    3100        .1      ADDS     r1,#0
        0x000025c8:    0209        ..      LSLS     r1,r1,#8
        0x000025ca:    3100        .1      ADDS     r1,#0
        0x000025cc:    0209        ..      LSLS     r1,r1,#8
        0x000025ce:    311c        .1      ADDS     r1,r1,#0x1c
        0x000025d0:    6008        .`      STR      r0,[r1,#0]
        0x000025d2:    2400        .$      MOVS     r4,#0
        0x000025d4:    e000        ..      B        0x25d8 ; rawchips_32_isr + 312
        0x000025d6:    1c64        d.      ADDS     r4,r4,#1
        0x000025d8:    2027        '       MOVS     r0,#0x27
        0x000025da:    0200        ..      LSLS     r0,r0,#8
        0x000025dc:    3010        .0      ADDS     r0,r0,#0x10
        0x000025de:    4284        .B      CMP      r4,r0
        0x000025e0:    d3f9        ..      BCC      0x25d6 ; rawchips_32_isr + 310
        0x000025e2:    2005        .       MOVS     r0,#5
        0x000025e4:    0200        ..      LSLS     r0,r0,#8
        0x000025e6:    30fa        .0      ADDS     r0,r0,#0xfa
        0x000025e8:    0400        ..      LSLS     r0,r0,#16
        0x000025ea:    3004        .0      ADDS     r0,#4
        0x000025ec:    21e0        .!      MOVS     r1,#0xe0
        0x000025ee:    0409        ..      LSLS     r1,r1,#16
        0x000025f0:    31ed        .1      ADDS     r1,r1,#0xed
        0x000025f2:    0209        ..      LSLS     r1,r1,#8
        0x000025f4:    60c8        .`      STR      r0,[r1,#0xc]
        0x000025f6:    bd70        p.      POP      {r4-r6,pc}
    rawchips_startval_isr
        0x000025f8:    b510        ..      PUSH     {r4,lr}
        0x000025fa:    2220         "      MOVS     r2,#0x20
        0x000025fc:    0212        ..      LSLS     r2,r2,#8
        0x000025fe:    3200        .2      ADDS     r2,#0
        0x00002600:    0212        ..      LSLS     r2,r2,#8
        0x00002602:    3200        .2      ADDS     r2,#0
        0x00002604:    0212        ..      LSLS     r2,r2,#8
        0x00002606:    3228        (2      ADDS     r2,r2,#0x28
        0x00002608:    6812        .h      LDR      r2,[r2,#0]
        0x0000260a:    2360        `#      MOVS     r3,#0x60
        0x0000260c:    431a        .C      ORRS     r2,r2,r3
        0x0000260e:    2320         #      MOVS     r3,#0x20
        0x00002610:    021b        ..      LSLS     r3,r3,#8
        0x00002612:    3300        .3      ADDS     r3,#0
        0x00002614:    021b        ..      LSLS     r3,r3,#8
        0x00002616:    3300        .3      ADDS     r3,#0
        0x00002618:    021b        ..      LSLS     r3,r3,#8
        0x0000261a:    3328        (3      ADDS     r3,r3,#0x28
        0x0000261c:    601a        .`      STR      r2,[r3,#0]
        0x0000261e:    461a        .F      MOV      r2,r3
        0x00002620:    6812        .h      LDR      r2,[r2,#0]
        0x00002622:    2352        R#      MOVS     r3,#0x52
        0x00002624:    021b        ..      LSLS     r3,r3,#8
        0x00002626:    330c        .3      ADDS     r3,r3,#0xc
        0x00002628:    041b        ..      LSLS     r3,r3,#16
        0x0000262a:    601a        .`      STR      r2,[r3,#0]
        0x0000262c:    2220         "      MOVS     r2,#0x20
        0x0000262e:    0212        ..      LSLS     r2,r2,#8
        0x00002630:    3200        .2      ADDS     r2,#0
        0x00002632:    0212        ..      LSLS     r2,r2,#8
        0x00002634:    3200        .2      ADDS     r2,#0
        0x00002636:    0212        ..      LSLS     r2,r2,#8
        0x00002638:    3228        (2      ADDS     r2,r2,#0x28
        0x0000263a:    6812        .h      LDR      r2,[r2,#0]
        0x0000263c:    2360        `#      MOVS     r3,#0x60
        0x0000263e:    439a        .C      BICS     r2,r2,r3
        0x00002640:    2320         #      MOVS     r3,#0x20
        0x00002642:    021b        ..      LSLS     r3,r3,#8
        0x00002644:    3300        .3      ADDS     r3,#0
        0x00002646:    021b        ..      LSLS     r3,r3,#8
        0x00002648:    3300        .3      ADDS     r3,#0
        0x0000264a:    021b        ..      LSLS     r3,r3,#8
        0x0000264c:    3328        (3      ADDS     r3,r3,#0x28
        0x0000264e:    601a        .`      STR      r2,[r3,#0]
        0x00002650:    461a        .F      MOV      r2,r3
        0x00002652:    6812        .h      LDR      r2,[r2,#0]
        0x00002654:    2352        R#      MOVS     r3,#0x52
        0x00002656:    021b        ..      LSLS     r3,r3,#8
        0x00002658:    330c        .3      ADDS     r3,r3,#0xc
        0x0000265a:    041b        ..      LSLS     r3,r3,#16
        0x0000265c:    601a        .`      STR      r2,[r3,#0]
        0x0000265e:    2201        ."      MOVS     r2,#1
        0x00002660:    0252        R.      LSLS     r2,r2,#9
        0x00002662:    23e0        .#      MOVS     r3,#0xe0
        0x00002664:    041b        ..      LSLS     r3,r3,#16
        0x00002666:    33e1        .3      ADDS     r3,r3,#0xe1
        0x00002668:    021b        ..      LSLS     r3,r3,#8
        0x0000266a:    601a        .`      STR      r2,[r3,#0]
        0x0000266c:    1052        R.      ASRS     r2,r2,#1
        0x0000266e:    23e0        .#      MOVS     r3,#0xe0
        0x00002670:    041b        ..      LSLS     r3,r3,#16
        0x00002672:    33e1        .3      ADDS     r3,r3,#0xe1
        0x00002674:    021b        ..      LSLS     r3,r3,#8
        0x00002676:    3380        .3      ADDS     r3,r3,#0x80
        0x00002678:    601a        .`      STR      r2,[r3,#0]
        0x0000267a:    0052        R.      LSLS     r2,r2,#1
        0x0000267c:    23e0        .#      MOVS     r3,#0xe0
        0x0000267e:    041b        ..      LSLS     r3,r3,#16
        0x00002680:    33e2        .3      ADDS     r3,r3,#0xe2
        0x00002682:    021b        ..      LSLS     r3,r3,#8
        0x00002684:    3380        .3      ADDS     r3,r3,#0x80
        0x00002686:    601a        .`      STR      r2,[r3,#0]
        0x00002688:    2252        R"      MOVS     r2,#0x52
        0x0000268a:    0212        ..      LSLS     r2,r2,#8
        0x0000268c:    3244        D2      ADDS     r2,r2,#0x44
        0x0000268e:    0412        ..      LSLS     r2,r2,#16
        0x00002690:    6810        .h      LDR      r0,[r2,#0]
        0x00002692:    2252        R"      MOVS     r2,#0x52
        0x00002694:    0212        ..      LSLS     r2,r2,#8
        0x00002696:    3248        H2      ADDS     r2,r2,#0x48
        0x00002698:    0412        ..      LSLS     r2,r2,#16
        0x0000269a:    6811        .h      LDR      r1,[r2,#0]
        0x0000269c:    040a        ..      LSLS     r2,r1,#16
        0x0000269e:    1812        ..      ADDS     r2,r2,r0
        0x000026a0:    2320         #      MOVS     r3,#0x20
        0x000026a2:    021b        ..      LSLS     r3,r3,#8
        0x000026a4:    3300        .3      ADDS     r3,#0
        0x000026a6:    021b        ..      LSLS     r3,r3,#8
        0x000026a8:    3300        .3      ADDS     r3,#0
        0x000026aa:    021b        ..      LSLS     r3,r3,#8
        0x000026ac:    331c        .3      ADDS     r3,r3,#0x1c
        0x000026ae:    681b        .h      LDR      r3,[r3,#0]
        0x000026b0:    009b        ..      LSLS     r3,r3,#2
        0x000026b2:    2420         $      MOVS     r4,#0x20
        0x000026b4:    0224        $.      LSLS     r4,r4,#8
        0x000026b6:    3400        .4      ADDS     r4,#0
        0x000026b8:    0224        $.      LSLS     r4,r4,#8
        0x000026ba:    3401        .4      ADDS     r4,#1
        0x000026bc:    0224        $.      LSLS     r4,r4,#8
        0x000026be:    34d0        .4      ADDS     r4,r4,#0xd0
        0x000026c0:    50e2        .P      STR      r2,[r4,r3]
        0x000026c2:    2220         "      MOVS     r2,#0x20
        0x000026c4:    0212        ..      LSLS     r2,r2,#8
        0x000026c6:    3200        .2      ADDS     r2,#0
        0x000026c8:    0212        ..      LSLS     r2,r2,#8
        0x000026ca:    3200        .2      ADDS     r2,#0
        0x000026cc:    0212        ..      LSLS     r2,r2,#8
        0x000026ce:    321c        .2      ADDS     r2,r2,#0x1c
        0x000026d0:    6812        .h      LDR      r2,[r2,#0]
        0x000026d2:    1c52        R.      ADDS     r2,r2,#1
        0x000026d4:    2320         #      MOVS     r3,#0x20
        0x000026d6:    021b        ..      LSLS     r3,r3,#8
        0x000026d8:    3300        .3      ADDS     r3,#0
        0x000026da:    021b        ..      LSLS     r3,r3,#8
        0x000026dc:    3300        .3      ADDS     r3,#0
        0x000026de:    021b        ..      LSLS     r3,r3,#8
        0x000026e0:    331c        .3      ADDS     r3,r3,#0x1c
        0x000026e2:    601a        .`      STR      r2,[r3,#0]
        0x000026e4:    bd10        ..      POP      {r4,pc}
    .text
    adc_set_asc_bit
        0x000026e6:    b570        p.      PUSH     {r4-r6,lr}
        0x000026e8:    4605        .F      MOV      r5,r0
        0x000026ea:    460c        .F      MOV      r4,r1
        0x000026ec:    07e0        ..      LSLS     r0,r4,#31
        0x000026ee:    0fc0        ..      LSRS     r0,r0,#31
        0x000026f0:    2800        .(      CMP      r0,#0
        0x000026f2:    d003        ..      BEQ      0x26fc ; adc_set_asc_bit + 22
        0x000026f4:    4628        (F      MOV      r0,r5
        0x000026f6:    f000ff16    ....    BL       set_asc_bit ; 0x3526
        0x000026fa:    e002        ..      B        0x2702 ; adc_set_asc_bit + 28
        0x000026fc:    4628        (F      MOV      r0,r5
        0x000026fe:    f000fef6    ....    BL       clear_asc_bit ; 0x34ee
        0x00002702:    bd70        p.      POP      {r4-r6,pc}
    adc_set_pga_gain_asc_bits
        0x00002704:    b510        ..      PUSH     {r4,lr}
        0x00002706:    4604        .F      MOV      r4,r0
        0x00002708:    0620         .      LSLS     r0,r4,#24
        0x0000270a:    0fc1        ..      LSRS     r1,r0,#31
        0x0000270c:    2002        .       MOVS     r0,#2
        0x0000270e:    0200        ..      LSLS     r0,r0,#8
        0x00002710:    30fe        .0      ADDS     r0,r0,#0xfe
        0x00002712:    f7ffffe8    ....    BL       adc_set_asc_bit ; 0x26e6
        0x00002716:    0660        `.      LSLS     r0,r4,#25
        0x00002718:    0fc1        ..      LSRS     r1,r0,#31
        0x0000271a:    2002        .       MOVS     r0,#2
        0x0000271c:    0200        ..      LSLS     r0,r0,#8
        0x0000271e:    30ff        .0      ADDS     r0,r0,#0xff
        0x00002720:    f7ffffe1    ....    BL       adc_set_asc_bit ; 0x26e6
        0x00002724:    06a0        ..      LSLS     r0,r4,#26
        0x00002726:    0fc1        ..      LSRS     r1,r0,#31
        0x00002728:    2003        .       MOVS     r0,#3
        0x0000272a:    0200        ..      LSLS     r0,r0,#8
        0x0000272c:    f7ffffdb    ....    BL       adc_set_asc_bit ; 0x26e6
        0x00002730:    06e0        ..      LSLS     r0,r4,#27
        0x00002732:    0fc1        ..      LSRS     r1,r0,#31
        0x00002734:    2003        .       MOVS     r0,#3
        0x00002736:    0200        ..      LSLS     r0,r0,#8
        0x00002738:    3001        .0      ADDS     r0,#1
        0x0000273a:    f7ffffd4    ....    BL       adc_set_asc_bit ; 0x26e6
        0x0000273e:    0720         .      LSLS     r0,r4,#28
        0x00002740:    0fc1        ..      LSRS     r1,r0,#31
        0x00002742:    2003        .       MOVS     r0,#3
        0x00002744:    0200        ..      LSLS     r0,r0,#8
        0x00002746:    3002        .0      ADDS     r0,#2
        0x00002748:    f7ffffcd    ....    BL       adc_set_asc_bit ; 0x26e6
        0x0000274c:    0760        `.      LSLS     r0,r4,#29
        0x0000274e:    0fc1        ..      LSRS     r1,r0,#31
        0x00002750:    2003        .       MOVS     r0,#3
        0x00002752:    0200        ..      LSLS     r0,r0,#8
        0x00002754:    3003        .0      ADDS     r0,#3
        0x00002756:    f7ffffc6    ....    BL       adc_set_asc_bit ; 0x26e6
        0x0000275a:    07a0        ..      LSLS     r0,r4,#30
        0x0000275c:    0fc1        ..      LSRS     r1,r0,#31
        0x0000275e:    2019        .       MOVS     r0,#0x19
        0x00002760:    0140        @.      LSLS     r0,r0,#5
        0x00002762:    f7ffffc0    ....    BL       adc_set_asc_bit ; 0x26e6
        0x00002766:    07e1        ..      LSLS     r1,r4,#31
        0x00002768:    0fc9        ..      LSRS     r1,r1,#31
        0x0000276a:    2003        .       MOVS     r0,#3
        0x0000276c:    0200        ..      LSLS     r0,r0,#8
        0x0000276e:    3005        .0      ADDS     r0,#5
        0x00002770:    f7ffffb9    ....    BL       adc_set_asc_bit ; 0x26e6
        0x00002774:    bd10        ..      POP      {r4,pc}
    adc_set_settling_time_asc_bits
        0x00002776:    b510        ..      PUSH     {r4,lr}
        0x00002778:    4604        .F      MOV      r4,r0
        0x0000277a:    0620         .      LSLS     r0,r4,#24
        0x0000277c:    0fc1        ..      LSRS     r1,r0,#31
        0x0000277e:    2033        3       MOVS     r0,#0x33
        0x00002780:    0100        ..      LSLS     r0,r0,#4
        0x00002782:    f7ffffb0    ....    BL       adc_set_asc_bit ; 0x26e6
        0x00002786:    0660        `.      LSLS     r0,r4,#25
        0x00002788:    0fc1        ..      LSRS     r1,r0,#31
        0x0000278a:    2003        .       MOVS     r0,#3
        0x0000278c:    0200        ..      LSLS     r0,r0,#8
        0x0000278e:    3031        10      ADDS     r0,r0,#0x31
        0x00002790:    f7ffffa9    ....    BL       adc_set_asc_bit ; 0x26e6
        0x00002794:    06a0        ..      LSLS     r0,r4,#26
        0x00002796:    0fc1        ..      LSRS     r1,r0,#31
        0x00002798:    2003        .       MOVS     r0,#3
        0x0000279a:    0200        ..      LSLS     r0,r0,#8
        0x0000279c:    3032        20      ADDS     r0,r0,#0x32
        0x0000279e:    f7ffffa2    ....    BL       adc_set_asc_bit ; 0x26e6
        0x000027a2:    06e0        ..      LSLS     r0,r4,#27
        0x000027a4:    0fc1        ..      LSRS     r1,r0,#31
        0x000027a6:    2003        .       MOVS     r0,#3
        0x000027a8:    0200        ..      LSLS     r0,r0,#8
        0x000027aa:    3033        30      ADDS     r0,r0,#0x33
        0x000027ac:    f7ffff9b    ....    BL       adc_set_asc_bit ; 0x26e6
        0x000027b0:    0720         .      LSLS     r0,r4,#28
        0x000027b2:    0fc1        ..      LSRS     r1,r0,#31
        0x000027b4:    20cd        .       MOVS     r0,#0xcd
        0x000027b6:    0080        ..      LSLS     r0,r0,#2
        0x000027b8:    f7ffff95    ....    BL       adc_set_asc_bit ; 0x26e6
        0x000027bc:    0760        `.      LSLS     r0,r4,#29
        0x000027be:    0fc1        ..      LSRS     r1,r0,#31
        0x000027c0:    2003        .       MOVS     r0,#3
        0x000027c2:    0200        ..      LSLS     r0,r0,#8
        0x000027c4:    3035        50      ADDS     r0,r0,#0x35
        0x000027c6:    f7ffff8e    ....    BL       adc_set_asc_bit ; 0x26e6
        0x000027ca:    07a0        ..      LSLS     r0,r4,#30
        0x000027cc:    0fc1        ..      LSRS     r1,r0,#31
        0x000027ce:    2003        .       MOVS     r0,#3
        0x000027d0:    0200        ..      LSLS     r0,r0,#8
        0x000027d2:    3036        60      ADDS     r0,r0,#0x36
        0x000027d4:    f7ffff87    ....    BL       adc_set_asc_bit ; 0x26e6
        0x000027d8:    07e1        ..      LSLS     r1,r4,#31
        0x000027da:    0fc9        ..      LSRS     r1,r1,#31
        0x000027dc:    2003        .       MOVS     r0,#3
        0x000027de:    0200        ..      LSLS     r0,r0,#8
        0x000027e0:    3037        70      ADDS     r0,r0,#0x37
        0x000027e2:    f7ffff80    ....    BL       adc_set_asc_bit ; 0x26e6
        0x000027e6:    bd10        ..      POP      {r4,pc}
    adc_set_bandgap_refernce_tuning_code_asc_bits
        0x000027e8:    b510        ..      PUSH     {r4,lr}
        0x000027ea:    4604        .F      MOV      r4,r0
        0x000027ec:    0660        `.      LSLS     r0,r4,#25
        0x000027ee:    0fc1        ..      LSRS     r1,r0,#31
        0x000027f0:    2003        .       MOVS     r0,#3
        0x000027f2:    0200        ..      LSLS     r0,r0,#8
        0x000027f4:    300a        .0      ADDS     r0,r0,#0xa
        0x000027f6:    f7ffff76    ..v.    BL       adc_set_asc_bit ; 0x26e6
        0x000027fa:    06a0        ..      LSLS     r0,r4,#26
        0x000027fc:    0fc1        ..      LSRS     r1,r0,#31
        0x000027fe:    2031        1       MOVS     r0,#0x31
        0x00002800:    0100        ..      LSLS     r0,r0,#4
        0x00002802:    f7ffff70    ..p.    BL       adc_set_asc_bit ; 0x26e6
        0x00002806:    06e0        ..      LSLS     r0,r4,#27
        0x00002808:    0fc1        ..      LSRS     r1,r0,#31
        0x0000280a:    2003        .       MOVS     r0,#3
        0x0000280c:    0200        ..      LSLS     r0,r0,#8
        0x0000280e:    300f        .0      ADDS     r0,r0,#0xf
        0x00002810:    f7ffff69    ..i.    BL       adc_set_asc_bit ; 0x26e6
        0x00002814:    0720         .      LSLS     r0,r4,#28
        0x00002816:    0fc1        ..      LSRS     r1,r0,#31
        0x00002818:    2003        .       MOVS     r0,#3
        0x0000281a:    0200        ..      LSLS     r0,r0,#8
        0x0000281c:    300e        .0      ADDS     r0,r0,#0xe
        0x0000281e:    f7ffff62    ..b.    BL       adc_set_asc_bit ; 0x26e6
        0x00002822:    0760        `.      LSLS     r0,r4,#29
        0x00002824:    0fc1        ..      LSRS     r1,r0,#31
        0x00002826:    2003        .       MOVS     r0,#3
        0x00002828:    0200        ..      LSLS     r0,r0,#8
        0x0000282a:    300d        .0      ADDS     r0,r0,#0xd
        0x0000282c:    f7ffff5b    ..[.    BL       adc_set_asc_bit ; 0x26e6
        0x00002830:    07a0        ..      LSLS     r0,r4,#30
        0x00002832:    0fc1        ..      LSRS     r1,r0,#31
        0x00002834:    20c3        .       MOVS     r0,#0xc3
        0x00002836:    0080        ..      LSLS     r0,r0,#2
        0x00002838:    f7ffff55    ..U.    BL       adc_set_asc_bit ; 0x26e6
        0x0000283c:    07e1        ..      LSLS     r1,r4,#31
        0x0000283e:    0fc9        ..      LSRS     r1,r1,#31
        0x00002840:    2003        .       MOVS     r0,#3
        0x00002842:    0200        ..      LSLS     r0,r0,#8
        0x00002844:    300b        .0      ADDS     r0,r0,#0xb
        0x00002846:    f7ffff4e    ..N.    BL       adc_set_asc_bit ; 0x26e6
        0x0000284a:    bd10        ..      POP      {r4,pc}
    adc_set_const_gm_tuning_code_asc_bits
        0x0000284c:    b510        ..      PUSH     {r4,lr}
        0x0000284e:    4604        .F      MOV      r4,r0
        0x00002850:    0620         .      LSLS     r0,r4,#24
        0x00002852:    0fc1        ..      LSRS     r1,r0,#31
        0x00002854:    2002        .       MOVS     r0,#2
        0x00002856:    0200        ..      LSLS     r0,r0,#8
        0x00002858:    30fd        .0      ADDS     r0,r0,#0xfd
        0x0000285a:    f7ffff44    ..D.    BL       adc_set_asc_bit ; 0x26e6
        0x0000285e:    0660        `.      LSLS     r0,r4,#25
        0x00002860:    0fc1        ..      LSRS     r1,r0,#31
        0x00002862:    20bf        .       MOVS     r0,#0xbf
        0x00002864:    0080        ..      LSLS     r0,r0,#2
        0x00002866:    f7ffff3e    ..>.    BL       adc_set_asc_bit ; 0x26e6
        0x0000286a:    06a0        ..      LSLS     r0,r4,#26
        0x0000286c:    0fc1        ..      LSRS     r1,r0,#31
        0x0000286e:    2002        .       MOVS     r0,#2
        0x00002870:    0200        ..      LSLS     r0,r0,#8
        0x00002872:    30fb        .0      ADDS     r0,r0,#0xfb
        0x00002874:    f7ffff37    ..7.    BL       adc_set_asc_bit ; 0x26e6
        0x00002878:    06e0        ..      LSLS     r0,r4,#27
        0x0000287a:    0fc1        ..      LSRS     r1,r0,#31
        0x0000287c:    2002        .       MOVS     r0,#2
        0x0000287e:    0200        ..      LSLS     r0,r0,#8
        0x00002880:    30fa        .0      ADDS     r0,r0,#0xfa
        0x00002882:    f7ffff30    ..0.    BL       adc_set_asc_bit ; 0x26e6
        0x00002886:    0720         .      LSLS     r0,r4,#28
        0x00002888:    0fc1        ..      LSRS     r1,r0,#31
        0x0000288a:    2002        .       MOVS     r0,#2
        0x0000288c:    0200        ..      LSLS     r0,r0,#8
        0x0000288e:    30f9        .0      ADDS     r0,r0,#0xf9
        0x00002890:    f7ffff29    ..).    BL       adc_set_asc_bit ; 0x26e6
        0x00002894:    0760        `.      LSLS     r0,r4,#29
        0x00002896:    0fc1        ..      LSRS     r1,r0,#31
        0x00002898:    205f        _       MOVS     r0,#0x5f
        0x0000289a:    00c0        ..      LSLS     r0,r0,#3
        0x0000289c:    f7ffff23    ..#.    BL       adc_set_asc_bit ; 0x26e6
        0x000028a0:    07a0        ..      LSLS     r0,r4,#30
        0x000028a2:    0fc1        ..      LSRS     r1,r0,#31
        0x000028a4:    2002        .       MOVS     r0,#2
        0x000028a6:    0200        ..      LSLS     r0,r0,#8
        0x000028a8:    30f7        .0      ADDS     r0,r0,#0xf7
        0x000028aa:    f7ffff1c    ....    BL       adc_set_asc_bit ; 0x26e6
        0x000028ae:    07e1        ..      LSLS     r1,r4,#31
        0x000028b0:    0fc9        ..      LSRS     r1,r1,#31
        0x000028b2:    2002        .       MOVS     r0,#2
        0x000028b4:    0200        ..      LSLS     r0,r0,#8
        0x000028b6:    30f6        .0      ADDS     r0,r0,#0xf6
        0x000028b8:    f7ffff15    ....    BL       adc_set_asc_bit ; 0x26e6
        0x000028bc:    bd10        ..      POP      {r4,pc}
    adc_config
        0x000028be:    b510        ..      PUSH     {r4,lr}
        0x000028c0:    4604        .F      MOV      r4,r0
        0x000028c2:    7821        !x      LDRB     r1,[r4,#0]
        0x000028c4:    20f2        .       MOVS     r0,#0xf2
        0x000028c6:    f7ffff0e    ....    BL       adc_set_asc_bit ; 0x26e6
        0x000028ca:    7861        ax      LDRB     r1,[r4,#1]
        0x000028cc:    20f3        .       MOVS     r0,#0xf3
        0x000028ce:    f7ffff0a    ....    BL       adc_set_asc_bit ; 0x26e6
        0x000028d2:    78a1        .x      LDRB     r1,[r4,#2]
        0x000028d4:    20f4        .       MOVS     r0,#0xf4
        0x000028d6:    f7ffff06    ....    BL       adc_set_asc_bit ; 0x26e6
        0x000028da:    78e0        .x      LDRB     r0,[r4,#3]
        0x000028dc:    f7ffff12    ....    BL       adc_set_pga_gain_asc_bits ; 0x2704
        0x000028e0:    7920         y      LDRB     r0,[r4,#4]
        0x000028e2:    f7ffff48    ..H.    BL       adc_set_settling_time_asc_bits ; 0x2776
        0x000028e6:    7960        `y      LDRB     r0,[r4,#5]
        0x000028e8:    f7ffff7e    ..~.    BL       adc_set_bandgap_refernce_tuning_code_asc_bits ; 0x27e8
        0x000028ec:    79a0        .y      LDRB     r0,[r4,#6]
        0x000028ee:    f7ffffad    ....    BL       adc_set_const_gm_tuning_code_asc_bits ; 0x284c
        0x000028f2:    79e1        .y      LDRB     r1,[r4,#7]
        0x000028f4:    2003        .       MOVS     r0,#3
        0x000028f6:    0200        ..      LSLS     r0,r0,#8
        0x000028f8:    301e        .0      ADDS     r0,r0,#0x1e
        0x000028fa:    f7fffef4    ....    BL       adc_set_asc_bit ; 0x26e6
        0x000028fe:    7a21        !z      LDRB     r1,[r4,#8]
        0x00002900:    2003        .       MOVS     r0,#3
        0x00002902:    0200        ..      LSLS     r0,r0,#8
        0x00002904:    3021        !0      ADDS     r0,r0,#0x21
        0x00002906:    f7fffeee    ....    BL       adc_set_asc_bit ; 0x26e6
        0x0000290a:    7a60        `z      LDRB     r0,[r4,#9]
        0x0000290c:    0780        ..      LSLS     r0,r0,#30
        0x0000290e:    0fc1        ..      LSRS     r1,r0,#31
        0x00002910:    2003        .       MOVS     r0,#3
        0x00002912:    0200        ..      LSLS     r0,r0,#8
        0x00002914:    3093        .0      ADDS     r0,r0,#0x93
        0x00002916:    f7fffee6    ....    BL       adc_set_asc_bit ; 0x26e6
        0x0000291a:    7a60        `z      LDRB     r0,[r4,#9]
        0x0000291c:    07c1        ..      LSLS     r1,r0,#31
        0x0000291e:    0fc9        ..      LSRS     r1,r1,#31
        0x00002920:    2004        .       MOVS     r0,#4
        0x00002922:    0200        ..      LSLS     r0,r0,#8
        0x00002924:    303f        ?0      ADDS     r0,r0,#0x3f
        0x00002926:    f7fffede    ....    BL       adc_set_asc_bit ; 0x26e6
        0x0000292a:    7aa1        .z      LDRB     r1,[r4,#0xa]
        0x0000292c:    2011        .       MOVS     r0,#0x11
        0x0000292e:    0180        ..      LSLS     r0,r0,#6
        0x00002930:    f7fffed9    ....    BL       adc_set_asc_bit ; 0x26e6
        0x00002934:    bd10        ..      POP      {r4,pc}
    adc_trigger
        0x00002936:    2000        .       MOVS     r0,#0
        0x00002938:    2120         !      MOVS     r1,#0x20
        0x0000293a:    0209        ..      LSLS     r1,r1,#8
        0x0000293c:    3100        .1      ADDS     r1,#0
        0x0000293e:    0209        ..      LSLS     r1,r1,#8
        0x00002940:    3100        .1      ADDS     r1,#0
        0x00002942:    0209        ..      LSLS     r1,r1,#8
        0x00002944:    3164        d1      ADDS     r1,r1,#0x64
        0x00002946:    7088        .p      STRB     r0,[r1,#2]
        0x00002948:    2001        .       MOVS     r0,#1
        0x0000294a:    2105        .!      MOVS     r1,#5
        0x0000294c:    0709        ..      LSLS     r1,r1,#28
        0x0000294e:    6008        .`      STR      r0,[r1,#0]
        0x00002950:    4770        pG      BX       lr
    adc_enable_interrupt
        0x00002952:    b510        ..      PUSH     {r4,lr}
        0x00002954:    20e0        .       MOVS     r0,#0xe0
        0x00002956:    0400        ..      LSLS     r0,r0,#16
        0x00002958:    30e1        .0      ADDS     r0,r0,#0xe1
        0x0000295a:    0200        ..      LSLS     r0,r0,#8
        0x0000295c:    6800        .h      LDR      r0,[r0,#0]
        0x0000295e:    2108        .!      MOVS     r1,#8
        0x00002960:    4308        .C      ORRS     r0,r0,r1
        0x00002962:    21e0        .!      MOVS     r1,#0xe0
        0x00002964:    0409        ..      LSLS     r1,r1,#16
        0x00002966:    31e1        .1      ADDS     r1,r1,#0xe1
        0x00002968:    0209        ..      LSLS     r1,r1,#8
        0x0000296a:    6008        .`      STR      r0,[r1,#0]
        0x0000296c:    4608        .F      MOV      r0,r1
        0x0000296e:    6801        .h      LDR      r1,[r0,#0]
        0x00002970:    2000        .       MOVS     r0,#0
        0x00002972:    0200        ..      LSLS     r0,r0,#8
        0x00002974:    3000        .0      ADDS     r0,#0
        0x00002976:    0200        ..      LSLS     r0,r0,#8
        0x00002978:    305a        Z0      ADDS     r0,r0,#0x5a
        0x0000297a:    0200        ..      LSLS     r0,r0,#8
        0x0000297c:    3070        p0      ADDS     r0,r0,#0x70
        0x0000297e:    f002f9e1    ....    BL       __2printf ; 0x4d44
        0x00002982:    bd10        ..      POP      {r4,pc}
    adc_disable_interrupt
        0x00002984:    b510        ..      PUSH     {r4,lr}
        0x00002986:    20e0        .       MOVS     r0,#0xe0
        0x00002988:    0400        ..      LSLS     r0,r0,#16
        0x0000298a:    30e1        .0      ADDS     r0,r0,#0xe1
        0x0000298c:    0200        ..      LSLS     r0,r0,#8
        0x0000298e:    6800        .h      LDR      r0,[r0,#0]
        0x00002990:    2108        .!      MOVS     r1,#8
        0x00002992:    4388        .C      BICS     r0,r0,r1
        0x00002994:    21e0        .!      MOVS     r1,#0xe0
        0x00002996:    0409        ..      LSLS     r1,r1,#16
        0x00002998:    31e1        .1      ADDS     r1,r1,#0xe1
        0x0000299a:    0209        ..      LSLS     r1,r1,#8
        0x0000299c:    6008        .`      STR      r0,[r1,#0]
        0x0000299e:    4608        .F      MOV      r0,r1
        0x000029a0:    6801        .h      LDR      r1,[r0,#0]
        0x000029a2:    2000        .       MOVS     r0,#0
        0x000029a4:    0200        ..      LSLS     r0,r0,#8
        0x000029a6:    3000        .0      ADDS     r0,#0
        0x000029a8:    0200        ..      LSLS     r0,r0,#8
        0x000029aa:    305a        Z0      ADDS     r0,r0,#0x5a
        0x000029ac:    0200        ..      LSLS     r0,r0,#8
        0x000029ae:    3090        .0      ADDS     r0,r0,#0x90
        0x000029b0:    f002f9c8    ....    BL       __2printf ; 0x4d44
        0x000029b4:    bd10        ..      POP      {r4,pc}
    adc_isr
        0x000029b6:    b510        ..      PUSH     {r4,lr}
        0x000029b8:    2000        .       MOVS     r0,#0
        0x000029ba:    0200        ..      LSLS     r0,r0,#8
        0x000029bc:    3000        .0      ADDS     r0,#0
        0x000029be:    0200        ..      LSLS     r0,r0,#8
        0x000029c0:    305a        Z0      ADDS     r0,r0,#0x5a
        0x000029c2:    0200        ..      LSLS     r0,r0,#8
        0x000029c4:    30b0        .0      ADDS     r0,r0,#0xb0
        0x000029c6:    f002f9bd    ....    BL       __2printf ; 0x4d44
        0x000029ca:    2050        P       MOVS     r0,#0x50
        0x000029cc:    0200        ..      LSLS     r0,r0,#8
        0x000029ce:    3004        .0      ADDS     r0,#4
        0x000029d0:    0400        ..      LSLS     r0,r0,#16
        0x000029d2:    8800        ..      LDRH     r0,[r0,#0]
        0x000029d4:    b280        ..      UXTH     r0,r0
        0x000029d6:    2120         !      MOVS     r1,#0x20
        0x000029d8:    0209        ..      LSLS     r1,r1,#8
        0x000029da:    3100        .1      ADDS     r1,#0
        0x000029dc:    0209        ..      LSLS     r1,r1,#8
        0x000029de:    3100        .1      ADDS     r1,#0
        0x000029e0:    0209        ..      LSLS     r1,r1,#8
        0x000029e2:    3164        d1      ADDS     r1,r1,#0x64
        0x000029e4:    7008        .p      STRB     r0,[r1,#0]
        0x000029e6:    0a00        ..      LSRS     r0,r0,#8
        0x000029e8:    7048        Hp      STRB     r0,[r1,#1]
        0x000029ea:    2001        .       MOVS     r0,#1
        0x000029ec:    7088        .p      STRB     r0,[r1,#2]
        0x000029ee:    bd10        ..      POP      {r4,pc}
    .text
    gpio_init
        0x000029f0:    2053        S       MOVS     r0,#0x53
        0x000029f2:    0200        ..      LSLS     r0,r0,#8
        0x000029f4:    3004        .0      ADDS     r0,#4
        0x000029f6:    0400        ..      LSLS     r0,r0,#16
        0x000029f8:    6800        .h      LDR      r0,[r0,#0]
        0x000029fa:    0c00        ..      LSRS     r0,r0,#16
        0x000029fc:    0400        ..      LSLS     r0,r0,#16
        0x000029fe:    2153        S!      MOVS     r1,#0x53
        0x00002a00:    0209        ..      LSLS     r1,r1,#8
        0x00002a02:    3104        .1      ADDS     r1,#4
        0x00002a04:    0409        ..      LSLS     r1,r1,#16
        0x00002a06:    6008        .`      STR      r0,[r1,#0]
        0x00002a08:    4770        pG      BX       lr
    gpio_0_set
        0x00002a0a:    2053        S       MOVS     r0,#0x53
        0x00002a0c:    0200        ..      LSLS     r0,r0,#8
        0x00002a0e:    3004        .0      ADDS     r0,#4
        0x00002a10:    0400        ..      LSLS     r0,r0,#16
        0x00002a12:    6800        .h      LDR      r0,[r0,#0]
        0x00002a14:    2101        .!      MOVS     r1,#1
        0x00002a16:    4308        .C      ORRS     r0,r0,r1
        0x00002a18:    2153        S!      MOVS     r1,#0x53
        0x00002a1a:    0209        ..      LSLS     r1,r1,#8
        0x00002a1c:    3104        .1      ADDS     r1,#4
        0x00002a1e:    0409        ..      LSLS     r1,r1,#16
        0x00002a20:    6008        .`      STR      r0,[r1,#0]
        0x00002a22:    4770        pG      BX       lr
    gpio_0_clr
        0x00002a24:    2053        S       MOVS     r0,#0x53
        0x00002a26:    0200        ..      LSLS     r0,r0,#8
        0x00002a28:    3004        .0      ADDS     r0,#4
        0x00002a2a:    0400        ..      LSLS     r0,r0,#16
        0x00002a2c:    6800        .h      LDR      r0,[r0,#0]
        0x00002a2e:    0840        @.      LSRS     r0,r0,#1
        0x00002a30:    0040        @.      LSLS     r0,r0,#1
        0x00002a32:    2153        S!      MOVS     r1,#0x53
        0x00002a34:    0209        ..      LSLS     r1,r1,#8
        0x00002a36:    3104        .1      ADDS     r1,#4
        0x00002a38:    0409        ..      LSLS     r1,r1,#16
        0x00002a3a:    6008        .`      STR      r0,[r1,#0]
        0x00002a3c:    4770        pG      BX       lr
    gpio_0_toggle
        0x00002a3e:    2053        S       MOVS     r0,#0x53
        0x00002a40:    0200        ..      LSLS     r0,r0,#8
        0x00002a42:    3004        .0      ADDS     r0,#4
        0x00002a44:    0400        ..      LSLS     r0,r0,#16
        0x00002a46:    6800        .h      LDR      r0,[r0,#0]
        0x00002a48:    2101        .!      MOVS     r1,#1
        0x00002a4a:    4048        H@      EORS     r0,r0,r1
        0x00002a4c:    2153        S!      MOVS     r1,#0x53
        0x00002a4e:    0209        ..      LSLS     r1,r1,#8
        0x00002a50:    3104        .1      ADDS     r1,#4
        0x00002a52:    0409        ..      LSLS     r1,r1,#16
        0x00002a54:    6008        .`      STR      r0,[r1,#0]
        0x00002a56:    4770        pG      BX       lr
    gpio_1_set
        0x00002a58:    2053        S       MOVS     r0,#0x53
        0x00002a5a:    0200        ..      LSLS     r0,r0,#8
        0x00002a5c:    3004        .0      ADDS     r0,#4
        0x00002a5e:    0400        ..      LSLS     r0,r0,#16
        0x00002a60:    6800        .h      LDR      r0,[r0,#0]
        0x00002a62:    2102        .!      MOVS     r1,#2
        0x00002a64:    4308        .C      ORRS     r0,r0,r1
        0x00002a66:    2153        S!      MOVS     r1,#0x53
        0x00002a68:    0209        ..      LSLS     r1,r1,#8
        0x00002a6a:    3104        .1      ADDS     r1,#4
        0x00002a6c:    0409        ..      LSLS     r1,r1,#16
        0x00002a6e:    6008        .`      STR      r0,[r1,#0]
        0x00002a70:    4770        pG      BX       lr
    gpio_1_clr
        0x00002a72:    2053        S       MOVS     r0,#0x53
        0x00002a74:    0200        ..      LSLS     r0,r0,#8
        0x00002a76:    3004        .0      ADDS     r0,#4
        0x00002a78:    0400        ..      LSLS     r0,r0,#16
        0x00002a7a:    6800        .h      LDR      r0,[r0,#0]
        0x00002a7c:    2102        .!      MOVS     r1,#2
        0x00002a7e:    4388        .C      BICS     r0,r0,r1
        0x00002a80:    2153        S!      MOVS     r1,#0x53
        0x00002a82:    0209        ..      LSLS     r1,r1,#8
        0x00002a84:    3104        .1      ADDS     r1,#4
        0x00002a86:    0409        ..      LSLS     r1,r1,#16
        0x00002a88:    6008        .`      STR      r0,[r1,#0]
        0x00002a8a:    4770        pG      BX       lr
    gpio_1_toggle
        0x00002a8c:    2053        S       MOVS     r0,#0x53
        0x00002a8e:    0200        ..      LSLS     r0,r0,#8
        0x00002a90:    3004        .0      ADDS     r0,#4
        0x00002a92:    0400        ..      LSLS     r0,r0,#16
        0x00002a94:    6800        .h      LDR      r0,[r0,#0]
        0x00002a96:    2102        .!      MOVS     r1,#2
        0x00002a98:    4048        H@      EORS     r0,r0,r1
        0x00002a9a:    2153        S!      MOVS     r1,#0x53
        0x00002a9c:    0209        ..      LSLS     r1,r1,#8
        0x00002a9e:    3104        .1      ADDS     r1,#4
        0x00002aa0:    0409        ..      LSLS     r1,r1,#16
        0x00002aa2:    6008        .`      STR      r0,[r1,#0]
        0x00002aa4:    4770        pG      BX       lr
    gpio_2_set
        0x00002aa6:    2053        S       MOVS     r0,#0x53
        0x00002aa8:    0200        ..      LSLS     r0,r0,#8
        0x00002aaa:    3004        .0      ADDS     r0,#4
        0x00002aac:    0400        ..      LSLS     r0,r0,#16
        0x00002aae:    6800        .h      LDR      r0,[r0,#0]
        0x00002ab0:    2104        .!      MOVS     r1,#4
        0x00002ab2:    4308        .C      ORRS     r0,r0,r1
        0x00002ab4:    2153        S!      MOVS     r1,#0x53
        0x00002ab6:    0209        ..      LSLS     r1,r1,#8
        0x00002ab8:    3104        .1      ADDS     r1,#4
        0x00002aba:    0409        ..      LSLS     r1,r1,#16
        0x00002abc:    6008        .`      STR      r0,[r1,#0]
        0x00002abe:    4770        pG      BX       lr
    gpio_2_clr
        0x00002ac0:    2053        S       MOVS     r0,#0x53
        0x00002ac2:    0200        ..      LSLS     r0,r0,#8
        0x00002ac4:    3004        .0      ADDS     r0,#4
        0x00002ac6:    0400        ..      LSLS     r0,r0,#16
        0x00002ac8:    6800        .h      LDR      r0,[r0,#0]
        0x00002aca:    2104        .!      MOVS     r1,#4
        0x00002acc:    4388        .C      BICS     r0,r0,r1
        0x00002ace:    2153        S!      MOVS     r1,#0x53
        0x00002ad0:    0209        ..      LSLS     r1,r1,#8
        0x00002ad2:    3104        .1      ADDS     r1,#4
        0x00002ad4:    0409        ..      LSLS     r1,r1,#16
        0x00002ad6:    6008        .`      STR      r0,[r1,#0]
        0x00002ad8:    4770        pG      BX       lr
    gpio_2_toggle
        0x00002ada:    2053        S       MOVS     r0,#0x53
        0x00002adc:    0200        ..      LSLS     r0,r0,#8
        0x00002ade:    3004        .0      ADDS     r0,#4
        0x00002ae0:    0400        ..      LSLS     r0,r0,#16
        0x00002ae2:    6800        .h      LDR      r0,[r0,#0]
        0x00002ae4:    2104        .!      MOVS     r1,#4
        0x00002ae6:    4048        H@      EORS     r0,r0,r1
        0x00002ae8:    2153        S!      MOVS     r1,#0x53
        0x00002aea:    0209        ..      LSLS     r1,r1,#8
        0x00002aec:    3104        .1      ADDS     r1,#4
        0x00002aee:    0409        ..      LSLS     r1,r1,#16
        0x00002af0:    6008        .`      STR      r0,[r1,#0]
        0x00002af2:    4770        pG      BX       lr
    gpio_3_set
        0x00002af4:    2053        S       MOVS     r0,#0x53
        0x00002af6:    0200        ..      LSLS     r0,r0,#8
        0x00002af8:    3004        .0      ADDS     r0,#4
        0x00002afa:    0400        ..      LSLS     r0,r0,#16
        0x00002afc:    6800        .h      LDR      r0,[r0,#0]
        0x00002afe:    2108        .!      MOVS     r1,#8
        0x00002b00:    4308        .C      ORRS     r0,r0,r1
        0x00002b02:    2153        S!      MOVS     r1,#0x53
        0x00002b04:    0209        ..      LSLS     r1,r1,#8
        0x00002b06:    3104        .1      ADDS     r1,#4
        0x00002b08:    0409        ..      LSLS     r1,r1,#16
        0x00002b0a:    6008        .`      STR      r0,[r1,#0]
        0x00002b0c:    4770        pG      BX       lr
    gpio_3_clr
        0x00002b0e:    2053        S       MOVS     r0,#0x53
        0x00002b10:    0200        ..      LSLS     r0,r0,#8
        0x00002b12:    3004        .0      ADDS     r0,#4
        0x00002b14:    0400        ..      LSLS     r0,r0,#16
        0x00002b16:    6800        .h      LDR      r0,[r0,#0]
        0x00002b18:    2108        .!      MOVS     r1,#8
        0x00002b1a:    4388        .C      BICS     r0,r0,r1
        0x00002b1c:    2153        S!      MOVS     r1,#0x53
        0x00002b1e:    0209        ..      LSLS     r1,r1,#8
        0x00002b20:    3104        .1      ADDS     r1,#4
        0x00002b22:    0409        ..      LSLS     r1,r1,#16
        0x00002b24:    6008        .`      STR      r0,[r1,#0]
        0x00002b26:    4770        pG      BX       lr
    gpio_3_toggle
        0x00002b28:    2053        S       MOVS     r0,#0x53
        0x00002b2a:    0200        ..      LSLS     r0,r0,#8
        0x00002b2c:    3004        .0      ADDS     r0,#4
        0x00002b2e:    0400        ..      LSLS     r0,r0,#16
        0x00002b30:    6800        .h      LDR      r0,[r0,#0]
        0x00002b32:    2108        .!      MOVS     r1,#8
        0x00002b34:    4048        H@      EORS     r0,r0,r1
        0x00002b36:    2153        S!      MOVS     r1,#0x53
        0x00002b38:    0209        ..      LSLS     r1,r1,#8
        0x00002b3a:    3104        .1      ADDS     r1,#4
        0x00002b3c:    0409        ..      LSLS     r1,r1,#16
        0x00002b3e:    6008        .`      STR      r0,[r1,#0]
        0x00002b40:    4770        pG      BX       lr
    gpio_4_set
        0x00002b42:    2053        S       MOVS     r0,#0x53
        0x00002b44:    0200        ..      LSLS     r0,r0,#8
        0x00002b46:    3004        .0      ADDS     r0,#4
        0x00002b48:    0400        ..      LSLS     r0,r0,#16
        0x00002b4a:    6800        .h      LDR      r0,[r0,#0]
        0x00002b4c:    2110        .!      MOVS     r1,#0x10
        0x00002b4e:    4308        .C      ORRS     r0,r0,r1
        0x00002b50:    2153        S!      MOVS     r1,#0x53
        0x00002b52:    0209        ..      LSLS     r1,r1,#8
        0x00002b54:    3104        .1      ADDS     r1,#4
        0x00002b56:    0409        ..      LSLS     r1,r1,#16
        0x00002b58:    6008        .`      STR      r0,[r1,#0]
        0x00002b5a:    4770        pG      BX       lr
    gpio_4_clr
        0x00002b5c:    2053        S       MOVS     r0,#0x53
        0x00002b5e:    0200        ..      LSLS     r0,r0,#8
        0x00002b60:    3004        .0      ADDS     r0,#4
        0x00002b62:    0400        ..      LSLS     r0,r0,#16
        0x00002b64:    6800        .h      LDR      r0,[r0,#0]
        0x00002b66:    2110        .!      MOVS     r1,#0x10
        0x00002b68:    4388        .C      BICS     r0,r0,r1
        0x00002b6a:    2153        S!      MOVS     r1,#0x53
        0x00002b6c:    0209        ..      LSLS     r1,r1,#8
        0x00002b6e:    3104        .1      ADDS     r1,#4
        0x00002b70:    0409        ..      LSLS     r1,r1,#16
        0x00002b72:    6008        .`      STR      r0,[r1,#0]
        0x00002b74:    4770        pG      BX       lr
    gpio_4_toggle
        0x00002b76:    2053        S       MOVS     r0,#0x53
        0x00002b78:    0200        ..      LSLS     r0,r0,#8
        0x00002b7a:    3004        .0      ADDS     r0,#4
        0x00002b7c:    0400        ..      LSLS     r0,r0,#16
        0x00002b7e:    6800        .h      LDR      r0,[r0,#0]
        0x00002b80:    2110        .!      MOVS     r1,#0x10
        0x00002b82:    4048        H@      EORS     r0,r0,r1
        0x00002b84:    2153        S!      MOVS     r1,#0x53
        0x00002b86:    0209        ..      LSLS     r1,r1,#8
        0x00002b88:    3104        .1      ADDS     r1,#4
        0x00002b8a:    0409        ..      LSLS     r1,r1,#16
        0x00002b8c:    6008        .`      STR      r0,[r1,#0]
        0x00002b8e:    4770        pG      BX       lr
    gpio_5_set
        0x00002b90:    2053        S       MOVS     r0,#0x53
        0x00002b92:    0200        ..      LSLS     r0,r0,#8
        0x00002b94:    3004        .0      ADDS     r0,#4
        0x00002b96:    0400        ..      LSLS     r0,r0,#16
        0x00002b98:    6800        .h      LDR      r0,[r0,#0]
        0x00002b9a:    2120         !      MOVS     r1,#0x20
        0x00002b9c:    4308        .C      ORRS     r0,r0,r1
        0x00002b9e:    2153        S!      MOVS     r1,#0x53
        0x00002ba0:    0209        ..      LSLS     r1,r1,#8
        0x00002ba2:    3104        .1      ADDS     r1,#4
        0x00002ba4:    0409        ..      LSLS     r1,r1,#16
        0x00002ba6:    6008        .`      STR      r0,[r1,#0]
        0x00002ba8:    4770        pG      BX       lr
    gpio_5_clr
        0x00002baa:    2053        S       MOVS     r0,#0x53
        0x00002bac:    0200        ..      LSLS     r0,r0,#8
        0x00002bae:    3004        .0      ADDS     r0,#4
        0x00002bb0:    0400        ..      LSLS     r0,r0,#16
        0x00002bb2:    6800        .h      LDR      r0,[r0,#0]
        0x00002bb4:    2120         !      MOVS     r1,#0x20
        0x00002bb6:    4388        .C      BICS     r0,r0,r1
        0x00002bb8:    2153        S!      MOVS     r1,#0x53
        0x00002bba:    0209        ..      LSLS     r1,r1,#8
        0x00002bbc:    3104        .1      ADDS     r1,#4
        0x00002bbe:    0409        ..      LSLS     r1,r1,#16
        0x00002bc0:    6008        .`      STR      r0,[r1,#0]
        0x00002bc2:    4770        pG      BX       lr
    gpio_5_toggle
        0x00002bc4:    2053        S       MOVS     r0,#0x53
        0x00002bc6:    0200        ..      LSLS     r0,r0,#8
        0x00002bc8:    3004        .0      ADDS     r0,#4
        0x00002bca:    0400        ..      LSLS     r0,r0,#16
        0x00002bcc:    6800        .h      LDR      r0,[r0,#0]
        0x00002bce:    2120         !      MOVS     r1,#0x20
        0x00002bd0:    4048        H@      EORS     r0,r0,r1
        0x00002bd2:    2153        S!      MOVS     r1,#0x53
        0x00002bd4:    0209        ..      LSLS     r1,r1,#8
        0x00002bd6:    3104        .1      ADDS     r1,#4
        0x00002bd8:    0409        ..      LSLS     r1,r1,#16
        0x00002bda:    6008        .`      STR      r0,[r1,#0]
        0x00002bdc:    4770        pG      BX       lr
    gpio_6_set
        0x00002bde:    2053        S       MOVS     r0,#0x53
        0x00002be0:    0200        ..      LSLS     r0,r0,#8
        0x00002be2:    3004        .0      ADDS     r0,#4
        0x00002be4:    0400        ..      LSLS     r0,r0,#16
        0x00002be6:    6800        .h      LDR      r0,[r0,#0]
        0x00002be8:    2140        @!      MOVS     r1,#0x40
        0x00002bea:    4308        .C      ORRS     r0,r0,r1
        0x00002bec:    2153        S!      MOVS     r1,#0x53
        0x00002bee:    0209        ..      LSLS     r1,r1,#8
        0x00002bf0:    3104        .1      ADDS     r1,#4
        0x00002bf2:    0409        ..      LSLS     r1,r1,#16
        0x00002bf4:    6008        .`      STR      r0,[r1,#0]
        0x00002bf6:    4770        pG      BX       lr
    gpio_6_clr
        0x00002bf8:    2053        S       MOVS     r0,#0x53
        0x00002bfa:    0200        ..      LSLS     r0,r0,#8
        0x00002bfc:    3004        .0      ADDS     r0,#4
        0x00002bfe:    0400        ..      LSLS     r0,r0,#16
        0x00002c00:    6800        .h      LDR      r0,[r0,#0]
        0x00002c02:    2140        @!      MOVS     r1,#0x40
        0x00002c04:    4388        .C      BICS     r0,r0,r1
        0x00002c06:    2153        S!      MOVS     r1,#0x53
        0x00002c08:    0209        ..      LSLS     r1,r1,#8
        0x00002c0a:    3104        .1      ADDS     r1,#4
        0x00002c0c:    0409        ..      LSLS     r1,r1,#16
        0x00002c0e:    6008        .`      STR      r0,[r1,#0]
        0x00002c10:    4770        pG      BX       lr
    gpio_6_toggle
        0x00002c12:    2053        S       MOVS     r0,#0x53
        0x00002c14:    0200        ..      LSLS     r0,r0,#8
        0x00002c16:    3004        .0      ADDS     r0,#4
        0x00002c18:    0400        ..      LSLS     r0,r0,#16
        0x00002c1a:    6800        .h      LDR      r0,[r0,#0]
        0x00002c1c:    2140        @!      MOVS     r1,#0x40
        0x00002c1e:    4048        H@      EORS     r0,r0,r1
        0x00002c20:    2153        S!      MOVS     r1,#0x53
        0x00002c22:    0209        ..      LSLS     r1,r1,#8
        0x00002c24:    3104        .1      ADDS     r1,#4
        0x00002c26:    0409        ..      LSLS     r1,r1,#16
        0x00002c28:    6008        .`      STR      r0,[r1,#0]
        0x00002c2a:    4770        pG      BX       lr
    gpio_7_set
        0x00002c2c:    2053        S       MOVS     r0,#0x53
        0x00002c2e:    0200        ..      LSLS     r0,r0,#8
        0x00002c30:    3004        .0      ADDS     r0,#4
        0x00002c32:    0400        ..      LSLS     r0,r0,#16
        0x00002c34:    6800        .h      LDR      r0,[r0,#0]
        0x00002c36:    2180        .!      MOVS     r1,#0x80
        0x00002c38:    4308        .C      ORRS     r0,r0,r1
        0x00002c3a:    2153        S!      MOVS     r1,#0x53
        0x00002c3c:    0209        ..      LSLS     r1,r1,#8
        0x00002c3e:    3104        .1      ADDS     r1,#4
        0x00002c40:    0409        ..      LSLS     r1,r1,#16
        0x00002c42:    6008        .`      STR      r0,[r1,#0]
        0x00002c44:    4770        pG      BX       lr
    gpio_7_clr
        0x00002c46:    2053        S       MOVS     r0,#0x53
        0x00002c48:    0200        ..      LSLS     r0,r0,#8
        0x00002c4a:    3004        .0      ADDS     r0,#4
        0x00002c4c:    0400        ..      LSLS     r0,r0,#16
        0x00002c4e:    6800        .h      LDR      r0,[r0,#0]
        0x00002c50:    2180        .!      MOVS     r1,#0x80
        0x00002c52:    4388        .C      BICS     r0,r0,r1
        0x00002c54:    2153        S!      MOVS     r1,#0x53
        0x00002c56:    0209        ..      LSLS     r1,r1,#8
        0x00002c58:    3104        .1      ADDS     r1,#4
        0x00002c5a:    0409        ..      LSLS     r1,r1,#16
        0x00002c5c:    6008        .`      STR      r0,[r1,#0]
        0x00002c5e:    4770        pG      BX       lr
    gpio_7_toggle
        0x00002c60:    2053        S       MOVS     r0,#0x53
        0x00002c62:    0200        ..      LSLS     r0,r0,#8
        0x00002c64:    3004        .0      ADDS     r0,#4
        0x00002c66:    0400        ..      LSLS     r0,r0,#16
        0x00002c68:    6800        .h      LDR      r0,[r0,#0]
        0x00002c6a:    2180        .!      MOVS     r1,#0x80
        0x00002c6c:    4048        H@      EORS     r0,r0,r1
        0x00002c6e:    2153        S!      MOVS     r1,#0x53
        0x00002c70:    0209        ..      LSLS     r1,r1,#8
        0x00002c72:    3104        .1      ADDS     r1,#4
        0x00002c74:    0409        ..      LSLS     r1,r1,#16
        0x00002c76:    6008        .`      STR      r0,[r1,#0]
        0x00002c78:    4770        pG      BX       lr
    gpio_8_set
        0x00002c7a:    2053        S       MOVS     r0,#0x53
        0x00002c7c:    0200        ..      LSLS     r0,r0,#8
        0x00002c7e:    3004        .0      ADDS     r0,#4
        0x00002c80:    0400        ..      LSLS     r0,r0,#16
        0x00002c82:    6800        .h      LDR      r0,[r0,#0]
        0x00002c84:    21ff        .!      MOVS     r1,#0xff
        0x00002c86:    3101        .1      ADDS     r1,#1
        0x00002c88:    4308        .C      ORRS     r0,r0,r1
        0x00002c8a:    2153        S!      MOVS     r1,#0x53
        0x00002c8c:    0209        ..      LSLS     r1,r1,#8
        0x00002c8e:    3104        .1      ADDS     r1,#4
        0x00002c90:    0409        ..      LSLS     r1,r1,#16
        0x00002c92:    6008        .`      STR      r0,[r1,#0]
        0x00002c94:    4770        pG      BX       lr
    gpio_8_clr
        0x00002c96:    2053        S       MOVS     r0,#0x53
        0x00002c98:    0200        ..      LSLS     r0,r0,#8
        0x00002c9a:    3004        .0      ADDS     r0,#4
        0x00002c9c:    0400        ..      LSLS     r0,r0,#16
        0x00002c9e:    6800        .h      LDR      r0,[r0,#0]
        0x00002ca0:    21ff        .!      MOVS     r1,#0xff
        0x00002ca2:    3101        .1      ADDS     r1,#1
        0x00002ca4:    4388        .C      BICS     r0,r0,r1
        0x00002ca6:    2153        S!      MOVS     r1,#0x53
        0x00002ca8:    0209        ..      LSLS     r1,r1,#8
        0x00002caa:    3104        .1      ADDS     r1,#4
        0x00002cac:    0409        ..      LSLS     r1,r1,#16
        0x00002cae:    6008        .`      STR      r0,[r1,#0]
        0x00002cb0:    4770        pG      BX       lr
    gpio_8_toggle
        0x00002cb2:    2053        S       MOVS     r0,#0x53
        0x00002cb4:    0200        ..      LSLS     r0,r0,#8
        0x00002cb6:    3004        .0      ADDS     r0,#4
        0x00002cb8:    0400        ..      LSLS     r0,r0,#16
        0x00002cba:    6800        .h      LDR      r0,[r0,#0]
        0x00002cbc:    21ff        .!      MOVS     r1,#0xff
        0x00002cbe:    3101        .1      ADDS     r1,#1
        0x00002cc0:    4048        H@      EORS     r0,r0,r1
        0x00002cc2:    2153        S!      MOVS     r1,#0x53
        0x00002cc4:    0209        ..      LSLS     r1,r1,#8
        0x00002cc6:    3104        .1      ADDS     r1,#4
        0x00002cc8:    0409        ..      LSLS     r1,r1,#16
        0x00002cca:    6008        .`      STR      r0,[r1,#0]
        0x00002ccc:    4770        pG      BX       lr
    gpio_9_set
        0x00002cce:    2053        S       MOVS     r0,#0x53
        0x00002cd0:    0200        ..      LSLS     r0,r0,#8
        0x00002cd2:    3004        .0      ADDS     r0,#4
        0x00002cd4:    0400        ..      LSLS     r0,r0,#16
        0x00002cd6:    6800        .h      LDR      r0,[r0,#0]
        0x00002cd8:    2101        .!      MOVS     r1,#1
        0x00002cda:    0249        I.      LSLS     r1,r1,#9
        0x00002cdc:    4308        .C      ORRS     r0,r0,r1
        0x00002cde:    2153        S!      MOVS     r1,#0x53
        0x00002ce0:    0209        ..      LSLS     r1,r1,#8
        0x00002ce2:    3104        .1      ADDS     r1,#4
        0x00002ce4:    0409        ..      LSLS     r1,r1,#16
        0x00002ce6:    6008        .`      STR      r0,[r1,#0]
        0x00002ce8:    4770        pG      BX       lr
    gpio_9_clr
        0x00002cea:    2053        S       MOVS     r0,#0x53
        0x00002cec:    0200        ..      LSLS     r0,r0,#8
        0x00002cee:    3004        .0      ADDS     r0,#4
        0x00002cf0:    0400        ..      LSLS     r0,r0,#16
        0x00002cf2:    6800        .h      LDR      r0,[r0,#0]
        0x00002cf4:    2101        .!      MOVS     r1,#1
        0x00002cf6:    0249        I.      LSLS     r1,r1,#9
        0x00002cf8:    4388        .C      BICS     r0,r0,r1
        0x00002cfa:    2153        S!      MOVS     r1,#0x53
        0x00002cfc:    0209        ..      LSLS     r1,r1,#8
        0x00002cfe:    3104        .1      ADDS     r1,#4
        0x00002d00:    0409        ..      LSLS     r1,r1,#16
        0x00002d02:    6008        .`      STR      r0,[r1,#0]
        0x00002d04:    4770        pG      BX       lr
    gpio_9_toggle
        0x00002d06:    2053        S       MOVS     r0,#0x53
        0x00002d08:    0200        ..      LSLS     r0,r0,#8
        0x00002d0a:    3004        .0      ADDS     r0,#4
        0x00002d0c:    0400        ..      LSLS     r0,r0,#16
        0x00002d0e:    6800        .h      LDR      r0,[r0,#0]
        0x00002d10:    2101        .!      MOVS     r1,#1
        0x00002d12:    0249        I.      LSLS     r1,r1,#9
        0x00002d14:    4048        H@      EORS     r0,r0,r1
        0x00002d16:    2153        S!      MOVS     r1,#0x53
        0x00002d18:    0209        ..      LSLS     r1,r1,#8
        0x00002d1a:    3104        .1      ADDS     r1,#4
        0x00002d1c:    0409        ..      LSLS     r1,r1,#16
        0x00002d1e:    6008        .`      STR      r0,[r1,#0]
        0x00002d20:    4770        pG      BX       lr
    gpio_10_set
        0x00002d22:    2053        S       MOVS     r0,#0x53
        0x00002d24:    0200        ..      LSLS     r0,r0,#8
        0x00002d26:    3004        .0      ADDS     r0,#4
        0x00002d28:    0400        ..      LSLS     r0,r0,#16
        0x00002d2a:    6800        .h      LDR      r0,[r0,#0]
        0x00002d2c:    2101        .!      MOVS     r1,#1
        0x00002d2e:    0289        ..      LSLS     r1,r1,#10
        0x00002d30:    4308        .C      ORRS     r0,r0,r1
        0x00002d32:    2153        S!      MOVS     r1,#0x53
        0x00002d34:    0209        ..      LSLS     r1,r1,#8
        0x00002d36:    3104        .1      ADDS     r1,#4
        0x00002d38:    0409        ..      LSLS     r1,r1,#16
        0x00002d3a:    6008        .`      STR      r0,[r1,#0]
        0x00002d3c:    4770        pG      BX       lr
    gpio_10_clr
        0x00002d3e:    2053        S       MOVS     r0,#0x53
        0x00002d40:    0200        ..      LSLS     r0,r0,#8
        0x00002d42:    3004        .0      ADDS     r0,#4
        0x00002d44:    0400        ..      LSLS     r0,r0,#16
        0x00002d46:    6800        .h      LDR      r0,[r0,#0]
        0x00002d48:    2101        .!      MOVS     r1,#1
        0x00002d4a:    0289        ..      LSLS     r1,r1,#10
        0x00002d4c:    4388        .C      BICS     r0,r0,r1
        0x00002d4e:    2153        S!      MOVS     r1,#0x53
        0x00002d50:    0209        ..      LSLS     r1,r1,#8
        0x00002d52:    3104        .1      ADDS     r1,#4
        0x00002d54:    0409        ..      LSLS     r1,r1,#16
        0x00002d56:    6008        .`      STR      r0,[r1,#0]
        0x00002d58:    4770        pG      BX       lr
    gpio_10_toggle
        0x00002d5a:    2053        S       MOVS     r0,#0x53
        0x00002d5c:    0200        ..      LSLS     r0,r0,#8
        0x00002d5e:    3004        .0      ADDS     r0,#4
        0x00002d60:    0400        ..      LSLS     r0,r0,#16
        0x00002d62:    6800        .h      LDR      r0,[r0,#0]
        0x00002d64:    2101        .!      MOVS     r1,#1
        0x00002d66:    0289        ..      LSLS     r1,r1,#10
        0x00002d68:    4048        H@      EORS     r0,r0,r1
        0x00002d6a:    2153        S!      MOVS     r1,#0x53
        0x00002d6c:    0209        ..      LSLS     r1,r1,#8
        0x00002d6e:    3104        .1      ADDS     r1,#4
        0x00002d70:    0409        ..      LSLS     r1,r1,#16
        0x00002d72:    6008        .`      STR      r0,[r1,#0]
        0x00002d74:    4770        pG      BX       lr
    gpio_11_set
        0x00002d76:    2053        S       MOVS     r0,#0x53
        0x00002d78:    0200        ..      LSLS     r0,r0,#8
        0x00002d7a:    3004        .0      ADDS     r0,#4
        0x00002d7c:    0400        ..      LSLS     r0,r0,#16
        0x00002d7e:    6800        .h      LDR      r0,[r0,#0]
        0x00002d80:    2101        .!      MOVS     r1,#1
        0x00002d82:    02c9        ..      LSLS     r1,r1,#11
        0x00002d84:    4308        .C      ORRS     r0,r0,r1
        0x00002d86:    2153        S!      MOVS     r1,#0x53
        0x00002d88:    0209        ..      LSLS     r1,r1,#8
        0x00002d8a:    3104        .1      ADDS     r1,#4
        0x00002d8c:    0409        ..      LSLS     r1,r1,#16
        0x00002d8e:    6008        .`      STR      r0,[r1,#0]
        0x00002d90:    4770        pG      BX       lr
    gpio_11_clr
        0x00002d92:    2053        S       MOVS     r0,#0x53
        0x00002d94:    0200        ..      LSLS     r0,r0,#8
        0x00002d96:    3004        .0      ADDS     r0,#4
        0x00002d98:    0400        ..      LSLS     r0,r0,#16
        0x00002d9a:    6800        .h      LDR      r0,[r0,#0]
        0x00002d9c:    2101        .!      MOVS     r1,#1
        0x00002d9e:    02c9        ..      LSLS     r1,r1,#11
        0x00002da0:    4388        .C      BICS     r0,r0,r1
        0x00002da2:    2153        S!      MOVS     r1,#0x53
        0x00002da4:    0209        ..      LSLS     r1,r1,#8
        0x00002da6:    3104        .1      ADDS     r1,#4
        0x00002da8:    0409        ..      LSLS     r1,r1,#16
        0x00002daa:    6008        .`      STR      r0,[r1,#0]
        0x00002dac:    4770        pG      BX       lr
    gpio_11_toggle
        0x00002dae:    2053        S       MOVS     r0,#0x53
        0x00002db0:    0200        ..      LSLS     r0,r0,#8
        0x00002db2:    3004        .0      ADDS     r0,#4
        0x00002db4:    0400        ..      LSLS     r0,r0,#16
        0x00002db6:    6800        .h      LDR      r0,[r0,#0]
        0x00002db8:    2101        .!      MOVS     r1,#1
        0x00002dba:    02c9        ..      LSLS     r1,r1,#11
        0x00002dbc:    4048        H@      EORS     r0,r0,r1
        0x00002dbe:    2153        S!      MOVS     r1,#0x53
        0x00002dc0:    0209        ..      LSLS     r1,r1,#8
        0x00002dc2:    3104        .1      ADDS     r1,#4
        0x00002dc4:    0409        ..      LSLS     r1,r1,#16
        0x00002dc6:    6008        .`      STR      r0,[r1,#0]
        0x00002dc8:    4770        pG      BX       lr
    gpio_12_set
        0x00002dca:    2053        S       MOVS     r0,#0x53
        0x00002dcc:    0200        ..      LSLS     r0,r0,#8
        0x00002dce:    3004        .0      ADDS     r0,#4
        0x00002dd0:    0400        ..      LSLS     r0,r0,#16
        0x00002dd2:    6800        .h      LDR      r0,[r0,#0]
        0x00002dd4:    2101        .!      MOVS     r1,#1
        0x00002dd6:    0309        ..      LSLS     r1,r1,#12
        0x00002dd8:    4308        .C      ORRS     r0,r0,r1
        0x00002dda:    2153        S!      MOVS     r1,#0x53
        0x00002ddc:    0209        ..      LSLS     r1,r1,#8
        0x00002dde:    3104        .1      ADDS     r1,#4
        0x00002de0:    0409        ..      LSLS     r1,r1,#16
        0x00002de2:    6008        .`      STR      r0,[r1,#0]
        0x00002de4:    4770        pG      BX       lr
    gpio_12_clr
        0x00002de6:    2053        S       MOVS     r0,#0x53
        0x00002de8:    0200        ..      LSLS     r0,r0,#8
        0x00002dea:    3004        .0      ADDS     r0,#4
        0x00002dec:    0400        ..      LSLS     r0,r0,#16
        0x00002dee:    6800        .h      LDR      r0,[r0,#0]
        0x00002df0:    2101        .!      MOVS     r1,#1
        0x00002df2:    0309        ..      LSLS     r1,r1,#12
        0x00002df4:    4388        .C      BICS     r0,r0,r1
        0x00002df6:    2153        S!      MOVS     r1,#0x53
        0x00002df8:    0209        ..      LSLS     r1,r1,#8
        0x00002dfa:    3104        .1      ADDS     r1,#4
        0x00002dfc:    0409        ..      LSLS     r1,r1,#16
        0x00002dfe:    6008        .`      STR      r0,[r1,#0]
        0x00002e00:    4770        pG      BX       lr
    gpio_12_toggle
        0x00002e02:    2053        S       MOVS     r0,#0x53
        0x00002e04:    0200        ..      LSLS     r0,r0,#8
        0x00002e06:    3004        .0      ADDS     r0,#4
        0x00002e08:    0400        ..      LSLS     r0,r0,#16
        0x00002e0a:    6800        .h      LDR      r0,[r0,#0]
        0x00002e0c:    2101        .!      MOVS     r1,#1
        0x00002e0e:    0309        ..      LSLS     r1,r1,#12
        0x00002e10:    4048        H@      EORS     r0,r0,r1
        0x00002e12:    2153        S!      MOVS     r1,#0x53
        0x00002e14:    0209        ..      LSLS     r1,r1,#8
        0x00002e16:    3104        .1      ADDS     r1,#4
        0x00002e18:    0409        ..      LSLS     r1,r1,#16
        0x00002e1a:    6008        .`      STR      r0,[r1,#0]
        0x00002e1c:    4770        pG      BX       lr
    gpio_13_set
        0x00002e1e:    2053        S       MOVS     r0,#0x53
        0x00002e20:    0200        ..      LSLS     r0,r0,#8
        0x00002e22:    3004        .0      ADDS     r0,#4
        0x00002e24:    0400        ..      LSLS     r0,r0,#16
        0x00002e26:    6800        .h      LDR      r0,[r0,#0]
        0x00002e28:    2101        .!      MOVS     r1,#1
        0x00002e2a:    0349        I.      LSLS     r1,r1,#13
        0x00002e2c:    4308        .C      ORRS     r0,r0,r1
        0x00002e2e:    2153        S!      MOVS     r1,#0x53
        0x00002e30:    0209        ..      LSLS     r1,r1,#8
        0x00002e32:    3104        .1      ADDS     r1,#4
        0x00002e34:    0409        ..      LSLS     r1,r1,#16
        0x00002e36:    6008        .`      STR      r0,[r1,#0]
        0x00002e38:    4770        pG      BX       lr
    gpio_13_clr
        0x00002e3a:    2053        S       MOVS     r0,#0x53
        0x00002e3c:    0200        ..      LSLS     r0,r0,#8
        0x00002e3e:    3004        .0      ADDS     r0,#4
        0x00002e40:    0400        ..      LSLS     r0,r0,#16
        0x00002e42:    6800        .h      LDR      r0,[r0,#0]
        0x00002e44:    2101        .!      MOVS     r1,#1
        0x00002e46:    0349        I.      LSLS     r1,r1,#13
        0x00002e48:    4388        .C      BICS     r0,r0,r1
        0x00002e4a:    2153        S!      MOVS     r1,#0x53
        0x00002e4c:    0209        ..      LSLS     r1,r1,#8
        0x00002e4e:    3104        .1      ADDS     r1,#4
        0x00002e50:    0409        ..      LSLS     r1,r1,#16
        0x00002e52:    6008        .`      STR      r0,[r1,#0]
        0x00002e54:    4770        pG      BX       lr
    gpio_13_toggle
        0x00002e56:    2053        S       MOVS     r0,#0x53
        0x00002e58:    0200        ..      LSLS     r0,r0,#8
        0x00002e5a:    3004        .0      ADDS     r0,#4
        0x00002e5c:    0400        ..      LSLS     r0,r0,#16
        0x00002e5e:    6800        .h      LDR      r0,[r0,#0]
        0x00002e60:    2101        .!      MOVS     r1,#1
        0x00002e62:    0349        I.      LSLS     r1,r1,#13
        0x00002e64:    4048        H@      EORS     r0,r0,r1
        0x00002e66:    2153        S!      MOVS     r1,#0x53
        0x00002e68:    0209        ..      LSLS     r1,r1,#8
        0x00002e6a:    3104        .1      ADDS     r1,#4
        0x00002e6c:    0409        ..      LSLS     r1,r1,#16
        0x00002e6e:    6008        .`      STR      r0,[r1,#0]
        0x00002e70:    4770        pG      BX       lr
    gpio_14_set
        0x00002e72:    2053        S       MOVS     r0,#0x53
        0x00002e74:    0200        ..      LSLS     r0,r0,#8
        0x00002e76:    3004        .0      ADDS     r0,#4
        0x00002e78:    0400        ..      LSLS     r0,r0,#16
        0x00002e7a:    6800        .h      LDR      r0,[r0,#0]
        0x00002e7c:    2101        .!      MOVS     r1,#1
        0x00002e7e:    0389        ..      LSLS     r1,r1,#14
        0x00002e80:    4308        .C      ORRS     r0,r0,r1
        0x00002e82:    2153        S!      MOVS     r1,#0x53
        0x00002e84:    0209        ..      LSLS     r1,r1,#8
        0x00002e86:    3104        .1      ADDS     r1,#4
        0x00002e88:    0409        ..      LSLS     r1,r1,#16
        0x00002e8a:    6008        .`      STR      r0,[r1,#0]
        0x00002e8c:    4770        pG      BX       lr
    gpio_14_clr
        0x00002e8e:    2053        S       MOVS     r0,#0x53
        0x00002e90:    0200        ..      LSLS     r0,r0,#8
        0x00002e92:    3004        .0      ADDS     r0,#4
        0x00002e94:    0400        ..      LSLS     r0,r0,#16
        0x00002e96:    6800        .h      LDR      r0,[r0,#0]
        0x00002e98:    2101        .!      MOVS     r1,#1
        0x00002e9a:    0389        ..      LSLS     r1,r1,#14
        0x00002e9c:    4388        .C      BICS     r0,r0,r1
        0x00002e9e:    2153        S!      MOVS     r1,#0x53
        0x00002ea0:    0209        ..      LSLS     r1,r1,#8
        0x00002ea2:    3104        .1      ADDS     r1,#4
        0x00002ea4:    0409        ..      LSLS     r1,r1,#16
        0x00002ea6:    6008        .`      STR      r0,[r1,#0]
        0x00002ea8:    4770        pG      BX       lr
    gpio_14_toggle
        0x00002eaa:    2053        S       MOVS     r0,#0x53
        0x00002eac:    0200        ..      LSLS     r0,r0,#8
        0x00002eae:    3004        .0      ADDS     r0,#4
        0x00002eb0:    0400        ..      LSLS     r0,r0,#16
        0x00002eb2:    6800        .h      LDR      r0,[r0,#0]
        0x00002eb4:    2101        .!      MOVS     r1,#1
        0x00002eb6:    0389        ..      LSLS     r1,r1,#14
        0x00002eb8:    4048        H@      EORS     r0,r0,r1
        0x00002eba:    2153        S!      MOVS     r1,#0x53
        0x00002ebc:    0209        ..      LSLS     r1,r1,#8
        0x00002ebe:    3104        .1      ADDS     r1,#4
        0x00002ec0:    0409        ..      LSLS     r1,r1,#16
        0x00002ec2:    6008        .`      STR      r0,[r1,#0]
        0x00002ec4:    4770        pG      BX       lr
    gpio_15_set
        0x00002ec6:    2053        S       MOVS     r0,#0x53
        0x00002ec8:    0200        ..      LSLS     r0,r0,#8
        0x00002eca:    3004        .0      ADDS     r0,#4
        0x00002ecc:    0400        ..      LSLS     r0,r0,#16
        0x00002ece:    6800        .h      LDR      r0,[r0,#0]
        0x00002ed0:    2101        .!      MOVS     r1,#1
        0x00002ed2:    03c9        ..      LSLS     r1,r1,#15
        0x00002ed4:    4308        .C      ORRS     r0,r0,r1
        0x00002ed6:    2153        S!      MOVS     r1,#0x53
        0x00002ed8:    0209        ..      LSLS     r1,r1,#8
        0x00002eda:    3104        .1      ADDS     r1,#4
        0x00002edc:    0409        ..      LSLS     r1,r1,#16
        0x00002ede:    6008        .`      STR      r0,[r1,#0]
        0x00002ee0:    4770        pG      BX       lr
    gpio_15_clr
        0x00002ee2:    2053        S       MOVS     r0,#0x53
        0x00002ee4:    0200        ..      LSLS     r0,r0,#8
        0x00002ee6:    3004        .0      ADDS     r0,#4
        0x00002ee8:    0400        ..      LSLS     r0,r0,#16
        0x00002eea:    6800        .h      LDR      r0,[r0,#0]
        0x00002eec:    2101        .!      MOVS     r1,#1
        0x00002eee:    03c9        ..      LSLS     r1,r1,#15
        0x00002ef0:    4388        .C      BICS     r0,r0,r1
        0x00002ef2:    2153        S!      MOVS     r1,#0x53
        0x00002ef4:    0209        ..      LSLS     r1,r1,#8
        0x00002ef6:    3104        .1      ADDS     r1,#4
        0x00002ef8:    0409        ..      LSLS     r1,r1,#16
        0x00002efa:    6008        .`      STR      r0,[r1,#0]
        0x00002efc:    4770        pG      BX       lr
    gpio_15_toggle
        0x00002efe:    2053        S       MOVS     r0,#0x53
        0x00002f00:    0200        ..      LSLS     r0,r0,#8
        0x00002f02:    3004        .0      ADDS     r0,#4
        0x00002f04:    0400        ..      LSLS     r0,r0,#16
        0x00002f06:    6800        .h      LDR      r0,[r0,#0]
        0x00002f08:    2101        .!      MOVS     r1,#1
        0x00002f0a:    03c9        ..      LSLS     r1,r1,#15
        0x00002f0c:    4048        H@      EORS     r0,r0,r1
        0x00002f0e:    2153        S!      MOVS     r1,#0x53
        0x00002f10:    0209        ..      LSLS     r1,r1,#8
        0x00002f12:    3104        .1      ADDS     r1,#4
        0x00002f14:    0409        ..      LSLS     r1,r1,#16
        0x00002f16:    6008        .`      STR      r0,[r1,#0]
        0x00002f18:    4770        pG      BX       lr
    ext_gpio3_activehigh_debounced_isr
        0x00002f1a:    b510        ..      PUSH     {r4,lr}
        0x00002f1c:    2000        .       MOVS     r0,#0
        0x00002f1e:    0200        ..      LSLS     r0,r0,#8
        0x00002f20:    3000        .0      ADDS     r0,#0
        0x00002f22:    0200        ..      LSLS     r0,r0,#8
        0x00002f24:    305a        Z0      ADDS     r0,r0,#0x5a
        0x00002f26:    0200        ..      LSLS     r0,r0,#8
        0x00002f28:    30cc        .0      ADDS     r0,r0,#0xcc
        0x00002f2a:    f001ff0b    ....    BL       __2printf ; 0x4d44
        0x00002f2e:    bd10        ..      POP      {r4,pc}
    ext_gpio8_activehigh_isr
        0x00002f30:    b510        ..      PUSH     {r4,lr}
        0x00002f32:    f7fef982    ....    BL       optical_sfd_isr ; 0x123a
        0x00002f36:    bd10        ..      POP      {r4,pc}
    ext_gpio9_activelow_isr
        0x00002f38:    b510        ..      PUSH     {r4,lr}
        0x00002f3a:    2000        .       MOVS     r0,#0
        0x00002f3c:    0200        ..      LSLS     r0,r0,#8
        0x00002f3e:    3000        .0      ADDS     r0,#0
        0x00002f40:    0200        ..      LSLS     r0,r0,#8
        0x00002f42:    305a        Z0      ADDS     r0,r0,#0x5a
        0x00002f44:    0200        ..      LSLS     r0,r0,#8
        0x00002f46:    30f4        .0      ADDS     r0,r0,#0xf4
        0x00002f48:    f001fefc    ....    BL       __2printf ; 0x4d44
        0x00002f4c:    bd10        ..      POP      {r4,pc}
    ext_gpio10_activelow_isr
        0x00002f4e:    b510        ..      PUSH     {r4,lr}
        0x00002f50:    2000        .       MOVS     r0,#0
        0x00002f52:    0200        ..      LSLS     r0,r0,#8
        0x00002f54:    3000        .0      ADDS     r0,#0
        0x00002f56:    0200        ..      LSLS     r0,r0,#8
        0x00002f58:    305b        [0      ADDS     r0,r0,#0x5b
        0x00002f5a:    0200        ..      LSLS     r0,r0,#8
        0x00002f5c:    301c        .0      ADDS     r0,r0,#0x1c
        0x00002f5e:    f001fef1    ....    BL       __2printf ; 0x4d44
        0x00002f62:    bd10        ..      POP      {r4,pc}
    .text
    uart_rx_isr
        0x00002f64:    b510        ..      PUSH     {r4,lr}
        0x00002f66:    2000        .       MOVS     r0,#0
        0x00002f68:    0200        ..      LSLS     r0,r0,#8
        0x00002f6a:    3000        .0      ADDS     r0,#0
        0x00002f6c:    0200        ..      LSLS     r0,r0,#8
        0x00002f6e:    305b        [0      ADDS     r0,r0,#0x5b
        0x00002f70:    0200        ..      LSLS     r0,r0,#8
        0x00002f72:    3044        D0      ADDS     r0,r0,#0x44
        0x00002f74:    f001fee6    ....    BL       __2printf ; 0x4d44
        0x00002f78:    bd10        ..      POP      {r4,pc}
    .text
    rftimer_init
        0x00002f7a:    b510        ..      PUSH     {r4,lr}
        0x00002f7c:    212c        ,!      MOVS     r1,#0x2c
        0x00002f7e:    2020                MOVS     r0,#0x20
        0x00002f80:    0200        ..      LSLS     r0,r0,#8
        0x00002f82:    3000        .0      ADDS     r0,#0
        0x00002f84:    0200        ..      LSLS     r0,r0,#8
        0x00002f86:    3006        .0      ADDS     r0,#6
        0x00002f88:    0200        ..      LSLS     r0,r0,#8
        0x00002f8a:    3030        00      ADDS     r0,r0,#0x30
        0x00002f8c:    f001ffdf    ....    BL       __aeabi_memclr4 ; 0x4f4e
        0x00002f90:    2000        .       MOVS     r0,#0
        0x00002f92:    43c0        .C      MVNS     r0,r0
        0x00002f94:    2121        !!      MOVS     r1,#0x21
        0x00002f96:    0649        I.      LSLS     r1,r1,#25
        0x00002f98:    6088        .`      STR      r0,[r1,#8]
        0x00002f9a:    2007        .       MOVS     r0,#7
        0x00002f9c:    6008        .`      STR      r0,[r1,#0]
        0x00002f9e:    bd10        ..      POP      {r4,pc}
    rftimer_set_callback_by_id
        0x00002fa0:    008a        ..      LSLS     r2,r1,#2
        0x00002fa2:    2320         #      MOVS     r3,#0x20
        0x00002fa4:    021b        ..      LSLS     r3,r3,#8
        0x00002fa6:    3300        .3      ADDS     r3,#0
        0x00002fa8:    021b        ..      LSLS     r3,r3,#8
        0x00002faa:    3306        .3      ADDS     r3,#6
        0x00002fac:    021b        ..      LSLS     r3,r3,#8
        0x00002fae:    3330        03      ADDS     r3,r3,#0x30
        0x00002fb0:    5098        .P      STR      r0,[r3,r2]
        0x00002fb2:    4770        pG      BX       lr
    rftimer_set_callback
        0x00002fb4:    b510        ..      PUSH     {r4,lr}
        0x00002fb6:    4604        .F      MOV      r4,r0
        0x00002fb8:    2100        .!      MOVS     r1,#0
        0x00002fba:    4620         F      MOV      r0,r4
        0x00002fbc:    f7fffff0    ....    BL       rftimer_set_callback_by_id ; 0x2fa0
        0x00002fc0:    bd10        ..      POP      {r4,pc}
    rftimer_enable_interrupts
        0x00002fc2:    2080        .       MOVS     r0,#0x80
        0x00002fc4:    21e0        .!      MOVS     r1,#0xe0
        0x00002fc6:    0409        ..      LSLS     r1,r1,#16
        0x00002fc8:    31e1        .1      ADDS     r1,r1,#0xe1
        0x00002fca:    0209        ..      LSLS     r1,r1,#8
        0x00002fcc:    6008        .`      STR      r0,[r1,#0]
        0x00002fce:    4770        pG      BX       lr
    rftimer_clear_interrupts_by_id
        0x00002fd0:    2101        .!      MOVS     r1,#1
        0x00002fd2:    4081        .@      LSLS     r1,r1,r0
        0x00002fd4:    2242        B"      MOVS     r2,#0x42
        0x00002fd6:    0612        ..      LSLS     r2,r2,#24
        0x00002fd8:    3240        @2      ADDS     r2,r2,#0x40
        0x00002fda:    6351        Qc      STR      r1,[r2,#0x34]
        0x00002fdc:    4770        pG      BX       lr
    rftimer_enable_interrupts_by_id
        0x00002fde:    b500        ..      PUSH     {lr}
        0x00002fe0:    4603        .F      MOV      r3,r0
        0x00002fe2:    4618        .F      MOV      r0,r3
        0x00002fe4:    f7fffff4    ....    BL       rftimer_clear_interrupts_by_id ; 0x2fd0
        0x00002fe8:    2003        .       MOVS     r0,#3
        0x00002fea:    0099        ..      LSLS     r1,r3,#2
        0x00002fec:    2220         "      MOVS     r2,#0x20
        0x00002fee:    0212        ..      LSLS     r2,r2,#8
        0x00002ff0:    3200        .2      ADDS     r2,#0
        0x00002ff2:    0212        ..      LSLS     r2,r2,#8
        0x00002ff4:    3200        .2      ADDS     r2,#0
        0x00002ff6:    0212        ..      LSLS     r2,r2,#8
        0x00002ff8:    3298        .2      ADDS     r2,r2,#0x98
        0x00002ffa:    5851        QX      LDR      r1,[r2,r1]
        0x00002ffc:    6008        .`      STR      r0,[r1,#0]
        0x00002ffe:    bd00        ..      POP      {pc}
    rftimer_setCompareIn_by_id
        0x00003000:    b530        0.      PUSH     {r4,r5,lr}
        0x00003002:    4604        .F      MOV      r4,r0
        0x00003004:    460d        .F      MOV      r5,r1
        0x00003006:    4628        (F      MOV      r0,r5
        0x00003008:    f7ffffe9    ....    BL       rftimer_enable_interrupts_by_id ; 0x2fde
        0x0000300c:    f7ffffd9    ....    BL       rftimer_enable_interrupts ; 0x2fc2
        0x00003010:    2021        !       MOVS     r0,#0x21
        0x00003012:    0640        @.      LSLS     r0,r0,#25
        0x00003014:    6840        @h      LDR      r0,[r0,#4]
        0x00003016:    1a20         .      SUBS     r0,r4,r0
        0x00003018:    21ff        .!      MOVS     r1,#0xff
        0x0000301a:    0209        ..      LSLS     r1,r1,#8
        0x0000301c:    31ff        .1      ADDS     r1,r1,#0xff
        0x0000301e:    4288        .B      CMP      r0,r1
        0x00003020:    d304        ..      BCC      0x302c ; rftimer_setCompareIn_by_id + 44
        0x00003022:    2001        .       MOVS     r0,#1
        0x00003024:    2142        B!      MOVS     r1,#0x42
        0x00003026:    0609        ..      LSLS     r1,r1,#24
        0x00003028:    3140        @1      ADDS     r1,r1,#0x40
        0x0000302a:    6308        .c      STR      r0,[r1,#0x30]
        0x0000302c:    00a8        ..      LSLS     r0,r5,#2
        0x0000302e:    2120         !      MOVS     r1,#0x20
        0x00003030:    0209        ..      LSLS     r1,r1,#8
        0x00003032:    3100        .1      ADDS     r1,#0
        0x00003034:    0209        ..      LSLS     r1,r1,#8
        0x00003036:    3100        .1      ADDS     r1,#0
        0x00003038:    0209        ..      LSLS     r1,r1,#8
        0x0000303a:    3178        x1      ADDS     r1,r1,#0x78
        0x0000303c:    5808        .X      LDR      r0,[r1,r0]
        0x0000303e:    6004        .`      STR      r4,[r0,#0]
        0x00003040:    bd30        0.      POP      {r4,r5,pc}
    rftimer_setCompareIn
        0x00003042:    b510        ..      PUSH     {r4,lr}
        0x00003044:    4604        .F      MOV      r4,r0
        0x00003046:    2100        .!      MOVS     r1,#0
        0x00003048:    4620         F      MOV      r0,r4
        0x0000304a:    f7ffffd9    ....    BL       rftimer_setCompareIn_by_id ; 0x3000
        0x0000304e:    bd10        ..      POP      {r4,pc}
    rftimer_readCounter
        0x00003050:    2021        !       MOVS     r0,#0x21
        0x00003052:    0640        @.      LSLS     r0,r0,#25
        0x00003054:    6840        @h      LDR      r0,[r0,#4]
        0x00003056:    4770        pG      BX       lr
    rftimer_disable_interrupts
        0x00003058:    2080        .       MOVS     r0,#0x80
        0x0000305a:    21e0        .!      MOVS     r1,#0xe0
        0x0000305c:    0409        ..      LSLS     r1,r1,#16
        0x0000305e:    31e1        .1      ADDS     r1,r1,#0xe1
        0x00003060:    0209        ..      LSLS     r1,r1,#8
        0x00003062:    3180        .1      ADDS     r1,r1,#0x80
        0x00003064:    6008        .`      STR      r0,[r1,#0]
        0x00003066:    4770        pG      BX       lr
    rftimer_disable_interrupts_by_id
        0x00003068:    2100        .!      MOVS     r1,#0
        0x0000306a:    0082        ..      LSLS     r2,r0,#2
        0x0000306c:    2320         #      MOVS     r3,#0x20
        0x0000306e:    021b        ..      LSLS     r3,r3,#8
        0x00003070:    3300        .3      ADDS     r3,#0
        0x00003072:    021b        ..      LSLS     r3,r3,#8
        0x00003074:    3300        .3      ADDS     r3,#0
        0x00003076:    021b        ..      LSLS     r3,r3,#8
        0x00003078:    3398        .3      ADDS     r3,r3,#0x98
        0x0000307a:    589a        .X      LDR      r2,[r3,r2]
        0x0000307c:    6011        .`      STR      r1,[r2,#0]
        0x0000307e:    4770        pG      BX       lr
    rftimer_clear_interrupts
        0x00003080:    b500        ..      PUSH     {lr}
        0x00003082:    2000        .       MOVS     r0,#0
        0x00003084:    f7ffffa4    ....    BL       rftimer_clear_interrupts_by_id ; 0x2fd0
        0x00003088:    bd00        ..      POP      {pc}
    rftimer_set_repeat
        0x0000308a:    2220         "      MOVS     r2,#0x20
        0x0000308c:    0212        ..      LSLS     r2,r2,#8
        0x0000308e:    3200        .2      ADDS     r2,#0
        0x00003090:    0212        ..      LSLS     r2,r2,#8
        0x00003092:    3200        .2      ADDS     r2,#0
        0x00003094:    0212        ..      LSLS     r2,r2,#8
        0x00003096:    3270        p2      ADDS     r2,r2,#0x70
        0x00003098:    5450        PT      STRB     r0,[r2,r1]
        0x0000309a:    4770        pG      BX       lr
    delay_milliseconds_asynchronous
        0x0000309c:    b5f0        ..      PUSH     {r4-r7,lr}
        0x0000309e:    4604        .F      MOV      r4,r0
        0x000030a0:    460d        .F      MOV      r5,r1
        0x000030a2:    20ff        .       MOVS     r0,#0xff
        0x000030a4:    30f5        .0      ADDS     r0,r0,#0xf5
        0x000030a6:    4360        `C      MULS     r0,r4,r0
        0x000030a8:    4606        .F      MOV      r6,r0
        0x000030aa:    4628        (F      MOV      r0,r5
        0x000030ac:    f7ffff97    ....    BL       rftimer_enable_interrupts_by_id ; 0x2fde
        0x000030b0:    f7ffff87    ....    BL       rftimer_enable_interrupts ; 0x2fc2
        0x000030b4:    00a8        ..      LSLS     r0,r5,#2
        0x000030b6:    2120         !      MOVS     r1,#0x20
        0x000030b8:    0209        ..      LSLS     r1,r1,#8
        0x000030ba:    3100        .1      ADDS     r1,#0
        0x000030bc:    0209        ..      LSLS     r1,r1,#8
        0x000030be:    3106        .1      ADDS     r1,#6
        0x000030c0:    0209        ..      LSLS     r1,r1,#8
        0x000030c2:    315c        \1      ADDS     r1,r1,#0x5c
        0x000030c4:    500c        .P      STR      r4,[r1,r0]
        0x000030c6:    f7ffffc3    ....    BL       rftimer_readCounter ; 0x3050
        0x000030ca:    1987        ..      ADDS     r7,r0,r6
        0x000030cc:    4629        )F      MOV      r1,r5
        0x000030ce:    4638        8F      MOV      r0,r7
        0x000030d0:    f7ffff96    ....    BL       rftimer_setCompareIn_by_id ; 0x3000
        0x000030d4:    bdf0        ..      POP      {r4-r7,pc}
    delay_milliseconds_synchronous
        0x000030d6:    b530        0.      PUSH     {r4,r5,lr}
        0x000030d8:    4605        .F      MOV      r5,r0
        0x000030da:    460c        .F      MOV      r4,r1
        0x000030dc:    2000        .       MOVS     r0,#0
        0x000030de:    2120         !      MOVS     r1,#0x20
        0x000030e0:    0209        ..      LSLS     r1,r1,#8
        0x000030e2:    3100        .1      ADDS     r1,#0
        0x000030e4:    0209        ..      LSLS     r1,r1,#8
        0x000030e6:    3100        .1      ADDS     r1,#0
        0x000030e8:    0209        ..      LSLS     r1,r1,#8
        0x000030ea:    3168        h1      ADDS     r1,r1,#0x68
        0x000030ec:    5508        .U      STRB     r0,[r1,r4]
        0x000030ee:    4621        !F      MOV      r1,r4
        0x000030f0:    4628        (F      MOV      r0,r5
        0x000030f2:    f7ffffd3    ....    BL       delay_milliseconds_asynchronous ; 0x309c
        0x000030f6:    bf00        ..      NOP      
        0x000030f8:    2020                MOVS     r0,#0x20
        0x000030fa:    0200        ..      LSLS     r0,r0,#8
        0x000030fc:    3000        .0      ADDS     r0,#0
        0x000030fe:    0200        ..      LSLS     r0,r0,#8
        0x00003100:    3000        .0      ADDS     r0,#0
        0x00003102:    0200        ..      LSLS     r0,r0,#8
        0x00003104:    3068        h0      ADDS     r0,r0,#0x68
        0x00003106:    5d00        .]      LDRB     r0,[r0,r4]
        0x00003108:    2800        .(      CMP      r0,#0
        0x0000310a:    d0f5        ..      BEQ      0x30f8 ; delay_milliseconds_synchronous + 34
        0x0000310c:    bd30        0.      POP      {r4,r5,pc}
    handle_interrupt
        0x0000310e:    b510        ..      PUSH     {r4,lr}
        0x00003110:    4604        .F      MOV      r4,r0
        0x00003112:    2001        .       MOVS     r0,#1
        0x00003114:    2120         !      MOVS     r1,#0x20
        0x00003116:    0209        ..      LSLS     r1,r1,#8
        0x00003118:    3100        .1      ADDS     r1,#0
        0x0000311a:    0209        ..      LSLS     r1,r1,#8
        0x0000311c:    3100        .1      ADDS     r1,#0
        0x0000311e:    0209        ..      LSLS     r1,r1,#8
        0x00003120:    3168        h1      ADDS     r1,r1,#0x68
        0x00003122:    5508        .U      STRB     r0,[r1,r4]
        0x00003124:    2020                MOVS     r0,#0x20
        0x00003126:    0200        ..      LSLS     r0,r0,#8
        0x00003128:    3000        .0      ADDS     r0,#0
        0x0000312a:    0200        ..      LSLS     r0,r0,#8
        0x0000312c:    3000        .0      ADDS     r0,#0
        0x0000312e:    0200        ..      LSLS     r0,r0,#8
        0x00003130:    3070        p0      ADDS     r0,r0,#0x70
        0x00003132:    5d00        .]      LDRB     r0,[r0,r4]
        0x00003134:    2800        .(      CMP      r0,#0
        0x00003136:    d00b        ..      BEQ      0x3150 ; handle_interrupt + 66
        0x00003138:    00a1        ..      LSLS     r1,r4,#2
        0x0000313a:    2220         "      MOVS     r2,#0x20
        0x0000313c:    0212        ..      LSLS     r2,r2,#8
        0x0000313e:    3200        .2      ADDS     r2,#0
        0x00003140:    0212        ..      LSLS     r2,r2,#8
        0x00003142:    3206        .2      ADDS     r2,#6
        0x00003144:    0212        ..      LSLS     r2,r2,#8
        0x00003146:    325c        \2      ADDS     r2,r2,#0x5c
        0x00003148:    5850        PX      LDR      r0,[r2,r1]
        0x0000314a:    4621        !F      MOV      r1,r4
        0x0000314c:    f7ffffa6    ....    BL       delay_milliseconds_asynchronous ; 0x309c
        0x00003150:    00a0        ..      LSLS     r0,r4,#2
        0x00003152:    2120         !      MOVS     r1,#0x20
        0x00003154:    0209        ..      LSLS     r1,r1,#8
        0x00003156:    3100        .1      ADDS     r1,#0
        0x00003158:    0209        ..      LSLS     r1,r1,#8
        0x0000315a:    3106        .1      ADDS     r1,#6
        0x0000315c:    0209        ..      LSLS     r1,r1,#8
        0x0000315e:    3130        01      ADDS     r1,r1,#0x30
        0x00003160:    5808        .X      LDR      r0,[r1,r0]
        0x00003162:    2800        .(      CMP      r0,#0
        0x00003164:    d00a        ..      BEQ      0x317c ; handle_interrupt + 110
        0x00003166:    00a1        ..      LSLS     r1,r4,#2
        0x00003168:    2220         "      MOVS     r2,#0x20
        0x0000316a:    0212        ..      LSLS     r2,r2,#8
        0x0000316c:    3200        .2      ADDS     r2,#0
        0x0000316e:    0212        ..      LSLS     r2,r2,#8
        0x00003170:    3206        .2      ADDS     r2,#6
        0x00003172:    0212        ..      LSLS     r2,r2,#8
        0x00003174:    3230        02      ADDS     r2,r2,#0x30
        0x00003176:    5850        PX      LDR      r0,[r2,r1]
        0x00003178:    4780        .G      BLX      r0
        0x0000317a:    e009        ..      B        0x3190 ; handle_interrupt + 130
        0x0000317c:    4621        !F      MOV      r1,r4
        0x0000317e:    2000        .       MOVS     r0,#0
        0x00003180:    0200        ..      LSLS     r0,r0,#8
        0x00003182:    3000        .0      ADDS     r0,#0
        0x00003184:    0200        ..      LSLS     r0,r0,#8
        0x00003186:    305b        [0      ADDS     r0,r0,#0x5b
        0x00003188:    0200        ..      LSLS     r0,r0,#8
        0x0000318a:    3064        d0      ADDS     r0,r0,#0x64
        0x0000318c:    f001fdda    ....    BL       __2printf ; 0x4d44
        0x00003190:    bd10        ..      POP      {r4,pc}
    rftimer_isr
        0x00003192:    b570        p.      PUSH     {r4-r6,lr}
        0x00003194:    2400        .$      MOVS     r4,#0
        0x00003196:    2601        .&      MOVS     r6,#1
        0x00003198:    f7fffc85    ....    BL       gpio_2_set ; 0x2aa6
        0x0000319c:    2042        B       MOVS     r0,#0x42
        0x0000319e:    0600        ..      LSLS     r0,r0,#24
        0x000031a0:    3040        @0      ADDS     r0,r0,#0x40
        0x000031a2:    8e00        ..      LDRH     r0,[r0,#0x30]
        0x000031a4:    b285        ..      UXTH     r5,r0
        0x000031a6:    bf00        ..      NOP      
        0x000031a8:    e008        ..      B        0x31bc ; rftimer_isr + 42
        0x000031aa:    4628        (F      MOV      r0,r5
        0x000031ac:    4030        0@      ANDS     r0,r0,r6
        0x000031ae:    2800        .(      CMP      r0,#0
        0x000031b0:    d002        ..      BEQ      0x31b8 ; rftimer_isr + 38
        0x000031b2:    b2e0        ..      UXTB     r0,r4
        0x000031b4:    f7ffffab    ....    BL       handle_interrupt ; 0x310e
        0x000031b8:    0076        v.      LSLS     r6,r6,#1
        0x000031ba:    1c64        d.      ADDS     r4,r4,#1
        0x000031bc:    2c08        .,      CMP      r4,#8
        0x000031be:    dbf4        ..      BLT      0x31aa ; rftimer_isr + 24
        0x000031c0:    2042        B       MOVS     r0,#0x42
        0x000031c2:    0600        ..      LSLS     r0,r0,#24
        0x000031c4:    3040        @0      ADDS     r0,r0,#0x40
        0x000031c6:    6345        Ec      STR      r5,[r0,#0x34]
        0x000031c8:    f7fffc7a    ..z.    BL       gpio_2_clr ; 0x2ac0
        0x000031cc:    bd70        p.      POP      {r4-r6,pc}
    .text
    scm3c_hw_interface_init
        0x000031ce:    b510        ..      PUSH     {r4,lr}
        0x000031d0:    21cc        .!      MOVS     r1,#0xcc
        0x000031d2:    2020                MOVS     r0,#0x20
        0x000031d4:    0200        ..      LSLS     r0,r0,#8
        0x000031d6:    3000        .0      ADDS     r0,#0
        0x000031d8:    0200        ..      LSLS     r0,r0,#8
        0x000031da:    3006        .0      ADDS     r0,#6
        0x000031dc:    0200        ..      LSLS     r0,r0,#8
        0x000031de:    307c        |0      ADDS     r0,r0,#0x7c
        0x000031e0:    f001feb5    ....    BL       __aeabi_memclr4 ; 0x4f4e
        0x000031e4:    2111        .!      MOVS     r1,#0x11
        0x000031e6:    2020                MOVS     r0,#0x20
        0x000031e8:    0200        ..      LSLS     r0,r0,#8
        0x000031ea:    3000        .0      ADDS     r0,#0
        0x000031ec:    0200        ..      LSLS     r0,r0,#8
        0x000031ee:    3006        .0      ADDS     r0,#6
        0x000031f0:    0200        ..      LSLS     r0,r0,#8
        0x000031f2:    30fc        .0      ADDS     r0,r0,#0xfc
        0x000031f4:    62c1        .b      STR      r1,[r0,#0x2c]
        0x000031f6:    2103        .!      MOVS     r1,#3
        0x000031f8:    6301        .c      STR      r1,[r0,#0x30]
        0x000031fa:    2115        .!      MOVS     r1,#0x15
        0x000031fc:    6341        Ac      STR      r1,[r0,#0x34]
        0x000031fe:    210f        .!      MOVS     r1,#0xf
        0x00003200:    6381        .c      STR      r1,[r0,#0x38]
        0x00003202:    63c1        .c      STR      r1,[r0,#0x3c]
        0x00003204:    2118        .!      MOVS     r1,#0x18
        0x00003206:    0209        ..      LSLS     r1,r1,#8
        0x00003208:    316a        j1      ADDS     r1,r1,#0x6a
        0x0000320a:    0209        ..      LSLS     r1,r1,#8
        0x0000320c:    6401        .d      STR      r1,[r0,#0x40]
        0x0000320e:    2116        .!      MOVS     r1,#0x16
        0x00003210:    6441        Ad      STR      r1,[r0,#0x44]
        0x00003212:    2112        .!      MOVS     r1,#0x12
        0x00003214:    6481        .d      STR      r1,[r0,#0x48]
        0x00003216:    2214        ."      MOVS     r2,#0x14
        0x00003218:    2100        .!      MOVS     r1,#0
        0x0000321a:    0209        ..      LSLS     r1,r1,#8
        0x0000321c:    3100        .1      ADDS     r1,#0
        0x0000321e:    0209        ..      LSLS     r1,r1,#8
        0x00003220:    3158        X1      ADDS     r1,r1,#0x58
        0x00003222:    0209        ..      LSLS     r1,r1,#8
        0x00003224:    31d4        .1      ADDS     r1,r1,#0xd4
        0x00003226:    3018        .0      ADDS     r0,r0,#0x18
        0x00003228:    f7fcff88    ....    BL       __aeabi_memcpy4 ; 0x13c
        0x0000322c:    bd10        ..      POP      {r4,pc}
    scm3c_hw_interface_get_HF_CLOCK_fine
        0x0000322e:    2020                MOVS     r0,#0x20
        0x00003230:    0200        ..      LSLS     r0,r0,#8
        0x00003232:    3000        .0      ADDS     r0,#0
        0x00003234:    0200        ..      LSLS     r0,r0,#8
        0x00003236:    3006        .0      ADDS     r0,#6
        0x00003238:    0200        ..      LSLS     r0,r0,#8
        0x0000323a:    30fc        .0      ADDS     r0,r0,#0xfc
        0x0000323c:    6ac0        .j      LDR      r0,[r0,#0x2c]
        0x0000323e:    4770        pG      BX       lr
    scm3c_hw_interface_get_HF_CLOCK_coarse
        0x00003240:    2020                MOVS     r0,#0x20
        0x00003242:    0200        ..      LSLS     r0,r0,#8
        0x00003244:    3000        .0      ADDS     r0,#0
        0x00003246:    0200        ..      LSLS     r0,r0,#8
        0x00003248:    3006        .0      ADDS     r0,#6
        0x0000324a:    0200        ..      LSLS     r0,r0,#8
        0x0000324c:    30fc        .0      ADDS     r0,r0,#0xfc
        0x0000324e:    6b00        .k      LDR      r0,[r0,#0x30]
        0x00003250:    4770        pG      BX       lr
    scm3c_hw_interface_get_RC2M_coarse
        0x00003252:    2020                MOVS     r0,#0x20
        0x00003254:    0200        ..      LSLS     r0,r0,#8
        0x00003256:    3000        .0      ADDS     r0,#0
        0x00003258:    0200        ..      LSLS     r0,r0,#8
        0x0000325a:    3006        .0      ADDS     r0,#6
        0x0000325c:    0200        ..      LSLS     r0,r0,#8
        0x0000325e:    30fc        .0      ADDS     r0,r0,#0xfc
        0x00003260:    6b40        @k      LDR      r0,[r0,#0x34]
        0x00003262:    4770        pG      BX       lr
    scm3c_hw_interface_get_RC2M_fine
        0x00003264:    2020                MOVS     r0,#0x20
        0x00003266:    0200        ..      LSLS     r0,r0,#8
        0x00003268:    3000        .0      ADDS     r0,#0
        0x0000326a:    0200        ..      LSLS     r0,r0,#8
        0x0000326c:    3006        .0      ADDS     r0,#6
        0x0000326e:    0200        ..      LSLS     r0,r0,#8
        0x00003270:    30fc        .0      ADDS     r0,r0,#0xfc
        0x00003272:    6b80        .k      LDR      r0,[r0,#0x38]
        0x00003274:    4770        pG      BX       lr
    scm3c_hw_interface_get_RC2M_superfine
        0x00003276:    2020                MOVS     r0,#0x20
        0x00003278:    0200        ..      LSLS     r0,r0,#8
        0x0000327a:    3000        .0      ADDS     r0,#0
        0x0000327c:    0200        ..      LSLS     r0,r0,#8
        0x0000327e:    3006        .0      ADDS     r0,#6
        0x00003280:    0200        ..      LSLS     r0,r0,#8
        0x00003282:    30fc        .0      ADDS     r0,r0,#0xfc
        0x00003284:    6bc0        .k      LDR      r0,[r0,#0x3c]
        0x00003286:    4770        pG      BX       lr
    scm3c_hw_interface_get_IF_clk_target
        0x00003288:    2020                MOVS     r0,#0x20
        0x0000328a:    0200        ..      LSLS     r0,r0,#8
        0x0000328c:    3000        .0      ADDS     r0,#0
        0x0000328e:    0200        ..      LSLS     r0,r0,#8
        0x00003290:    3006        .0      ADDS     r0,#6
        0x00003292:    0200        ..      LSLS     r0,r0,#8
        0x00003294:    30fc        .0      ADDS     r0,r0,#0xfc
        0x00003296:    6c00        .l      LDR      r0,[r0,#0x40]
        0x00003298:    4770        pG      BX       lr
    scm3c_hw_interface_get_IF_coarse
        0x0000329a:    2020                MOVS     r0,#0x20
        0x0000329c:    0200        ..      LSLS     r0,r0,#8
        0x0000329e:    3000        .0      ADDS     r0,#0
        0x000032a0:    0200        ..      LSLS     r0,r0,#8
        0x000032a2:    3006        .0      ADDS     r0,#6
        0x000032a4:    0200        ..      LSLS     r0,r0,#8
        0x000032a6:    30fc        .0      ADDS     r0,r0,#0xfc
        0x000032a8:    6c40        @l      LDR      r0,[r0,#0x44]
        0x000032aa:    4770        pG      BX       lr
    scm3c_hw_interface_get_IF_fine
        0x000032ac:    2020                MOVS     r0,#0x20
        0x000032ae:    0200        ..      LSLS     r0,r0,#8
        0x000032b0:    3000        .0      ADDS     r0,#0
        0x000032b2:    0200        ..      LSLS     r0,r0,#8
        0x000032b4:    3006        .0      ADDS     r0,#6
        0x000032b6:    0200        ..      LSLS     r0,r0,#8
        0x000032b8:    30fc        .0      ADDS     r0,r0,#0xfc
        0x000032ba:    6c80        .l      LDR      r0,[r0,#0x48]
        0x000032bc:    4770        pG      BX       lr
    scm3c_hw_interface_set_HF_CLOCK_fine
        0x000032be:    2120         !      MOVS     r1,#0x20
        0x000032c0:    0209        ..      LSLS     r1,r1,#8
        0x000032c2:    3100        .1      ADDS     r1,#0
        0x000032c4:    0209        ..      LSLS     r1,r1,#8
        0x000032c6:    3106        .1      ADDS     r1,#6
        0x000032c8:    0209        ..      LSLS     r1,r1,#8
        0x000032ca:    31fc        .1      ADDS     r1,r1,#0xfc
        0x000032cc:    62c8        .b      STR      r0,[r1,#0x2c]
        0x000032ce:    4770        pG      BX       lr
    scm3c_hw_interface_set_HF_CLOCK_coarse
        0x000032d0:    2120         !      MOVS     r1,#0x20
        0x000032d2:    0209        ..      LSLS     r1,r1,#8
        0x000032d4:    3100        .1      ADDS     r1,#0
        0x000032d6:    0209        ..      LSLS     r1,r1,#8
        0x000032d8:    3106        .1      ADDS     r1,#6
        0x000032da:    0209        ..      LSLS     r1,r1,#8
        0x000032dc:    31fc        .1      ADDS     r1,r1,#0xfc
        0x000032de:    6308        .c      STR      r0,[r1,#0x30]
        0x000032e0:    4770        pG      BX       lr
    scm3c_hw_interface_set_RC2M_coarse
        0x000032e2:    2120         !      MOVS     r1,#0x20
        0x000032e4:    0209        ..      LSLS     r1,r1,#8
        0x000032e6:    3100        .1      ADDS     r1,#0
        0x000032e8:    0209        ..      LSLS     r1,r1,#8
        0x000032ea:    3106        .1      ADDS     r1,#6
        0x000032ec:    0209        ..      LSLS     r1,r1,#8
        0x000032ee:    31fc        .1      ADDS     r1,r1,#0xfc
        0x000032f0:    6348        Hc      STR      r0,[r1,#0x34]
        0x000032f2:    4770        pG      BX       lr
    scm3c_hw_interface_set_RC2M_fine
        0x000032f4:    2120         !      MOVS     r1,#0x20
        0x000032f6:    0209        ..      LSLS     r1,r1,#8
        0x000032f8:    3100        .1      ADDS     r1,#0
        0x000032fa:    0209        ..      LSLS     r1,r1,#8
        0x000032fc:    3106        .1      ADDS     r1,#6
        0x000032fe:    0209        ..      LSLS     r1,r1,#8
        0x00003300:    31fc        .1      ADDS     r1,r1,#0xfc
        0x00003302:    6388        .c      STR      r0,[r1,#0x38]
        0x00003304:    4770        pG      BX       lr
    scm3c_hw_interface_set_RC2M_superfine
        0x00003306:    2120         !      MOVS     r1,#0x20
        0x00003308:    0209        ..      LSLS     r1,r1,#8
        0x0000330a:    3100        .1      ADDS     r1,#0
        0x0000330c:    0209        ..      LSLS     r1,r1,#8
        0x0000330e:    3106        .1      ADDS     r1,#6
        0x00003310:    0209        ..      LSLS     r1,r1,#8
        0x00003312:    31fc        .1      ADDS     r1,r1,#0xfc
        0x00003314:    63c8        .c      STR      r0,[r1,#0x3c]
        0x00003316:    4770        pG      BX       lr
    scm3c_hw_interface_set_IF_clk_target
        0x00003318:    2120         !      MOVS     r1,#0x20
        0x0000331a:    0209        ..      LSLS     r1,r1,#8
        0x0000331c:    3100        .1      ADDS     r1,#0
        0x0000331e:    0209        ..      LSLS     r1,r1,#8
        0x00003320:    3106        .1      ADDS     r1,#6
        0x00003322:    0209        ..      LSLS     r1,r1,#8
        0x00003324:    31fc        .1      ADDS     r1,r1,#0xfc
        0x00003326:    6408        .d      STR      r0,[r1,#0x40]
        0x00003328:    4770        pG      BX       lr
    scm3c_hw_interface_set_IF_coarse
        0x0000332a:    2120         !      MOVS     r1,#0x20
        0x0000332c:    0209        ..      LSLS     r1,r1,#8
        0x0000332e:    3100        .1      ADDS     r1,#0
        0x00003330:    0209        ..      LSLS     r1,r1,#8
        0x00003332:    3106        .1      ADDS     r1,#6
        0x00003334:    0209        ..      LSLS     r1,r1,#8
        0x00003336:    31fc        .1      ADDS     r1,r1,#0xfc
        0x00003338:    6448        Hd      STR      r0,[r1,#0x44]
        0x0000333a:    4770        pG      BX       lr
    scm3c_hw_interface_set_IF_fine
        0x0000333c:    2120         !      MOVS     r1,#0x20
        0x0000333e:    0209        ..      LSLS     r1,r1,#8
        0x00003340:    3100        .1      ADDS     r1,#0
        0x00003342:    0209        ..      LSLS     r1,r1,#8
        0x00003344:    3106        .1      ADDS     r1,#6
        0x00003346:    0209        ..      LSLS     r1,r1,#8
        0x00003348:    31fc        .1      ADDS     r1,r1,#0xfc
        0x0000334a:    6488        .d      STR      r0,[r1,#0x48]
        0x0000334c:    4770        pG      BX       lr
    scm3c_hw_interface_set_asc
        0x0000334e:    b510        ..      PUSH     {r4,lr}
        0x00003350:    4604        .F      MOV      r4,r0
        0x00003352:    2298        ."      MOVS     r2,#0x98
        0x00003354:    4621        !F      MOV      r1,r4
        0x00003356:    2020                MOVS     r0,#0x20
        0x00003358:    0200        ..      LSLS     r0,r0,#8
        0x0000335a:    3000        .0      ADDS     r0,#0
        0x0000335c:    0200        ..      LSLS     r0,r0,#8
        0x0000335e:    3006        .0      ADDS     r0,#6
        0x00003360:    0200        ..      LSLS     r0,r0,#8
        0x00003362:    307c        |0      ADDS     r0,r0,#0x7c
        0x00003364:    f7fcfeea    ....    BL       __aeabi_memcpy4 ; 0x13c
        0x00003368:    bd10        ..      POP      {r4,pc}
    reverse
        0x0000336a:    2155        U!      MOVS     r1,#0x55
        0x0000336c:    0209        ..      LSLS     r1,r1,#8
        0x0000336e:    3155        U1      ADDS     r1,r1,#0x55
        0x00003370:    0209        ..      LSLS     r1,r1,#8
        0x00003372:    3155        U1      ADDS     r1,r1,#0x55
        0x00003374:    0209        ..      LSLS     r1,r1,#8
        0x00003376:    3155        U1      ADDS     r1,r1,#0x55
        0x00003378:    4001        .@      ANDS     r1,r1,r0
        0x0000337a:    0049        I.      LSLS     r1,r1,#1
        0x0000337c:    0842        B.      LSRS     r2,r0,#1
        0x0000337e:    2355        U#      MOVS     r3,#0x55
        0x00003380:    021b        ..      LSLS     r3,r3,#8
        0x00003382:    3355        U3      ADDS     r3,r3,#0x55
        0x00003384:    021b        ..      LSLS     r3,r3,#8
        0x00003386:    3355        U3      ADDS     r3,r3,#0x55
        0x00003388:    021b        ..      LSLS     r3,r3,#8
        0x0000338a:    3355        U3      ADDS     r3,r3,#0x55
        0x0000338c:    401a        .@      ANDS     r2,r2,r3
        0x0000338e:    4311        .C      ORRS     r1,r1,r2
        0x00003390:    4608        .F      MOV      r0,r1
        0x00003392:    2133        3!      MOVS     r1,#0x33
        0x00003394:    0209        ..      LSLS     r1,r1,#8
        0x00003396:    3133        31      ADDS     r1,r1,#0x33
        0x00003398:    0209        ..      LSLS     r1,r1,#8
        0x0000339a:    3133        31      ADDS     r1,r1,#0x33
        0x0000339c:    0209        ..      LSLS     r1,r1,#8
        0x0000339e:    3133        31      ADDS     r1,r1,#0x33
        0x000033a0:    4001        .@      ANDS     r1,r1,r0
        0x000033a2:    0089        ..      LSLS     r1,r1,#2
        0x000033a4:    0882        ..      LSRS     r2,r0,#2
        0x000033a6:    2333        3#      MOVS     r3,#0x33
        0x000033a8:    021b        ..      LSLS     r3,r3,#8
        0x000033aa:    3333        33      ADDS     r3,r3,#0x33
        0x000033ac:    021b        ..      LSLS     r3,r3,#8
        0x000033ae:    3333        33      ADDS     r3,r3,#0x33
        0x000033b0:    021b        ..      LSLS     r3,r3,#8
        0x000033b2:    3333        33      ADDS     r3,r3,#0x33
        0x000033b4:    401a        .@      ANDS     r2,r2,r3
        0x000033b6:    4311        .C      ORRS     r1,r1,r2
        0x000033b8:    4608        .F      MOV      r0,r1
        0x000033ba:    210f        .!      MOVS     r1,#0xf
        0x000033bc:    0209        ..      LSLS     r1,r1,#8
        0x000033be:    310f        .1      ADDS     r1,r1,#0xf
        0x000033c0:    0209        ..      LSLS     r1,r1,#8
        0x000033c2:    310f        .1      ADDS     r1,r1,#0xf
        0x000033c4:    0209        ..      LSLS     r1,r1,#8
        0x000033c6:    310f        .1      ADDS     r1,r1,#0xf
        0x000033c8:    4001        .@      ANDS     r1,r1,r0
        0x000033ca:    0109        ..      LSLS     r1,r1,#4
        0x000033cc:    0902        ..      LSRS     r2,r0,#4
        0x000033ce:    230f        .#      MOVS     r3,#0xf
        0x000033d0:    021b        ..      LSLS     r3,r3,#8
        0x000033d2:    330f        .3      ADDS     r3,r3,#0xf
        0x000033d4:    021b        ..      LSLS     r3,r3,#8
        0x000033d6:    330f        .3      ADDS     r3,r3,#0xf
        0x000033d8:    021b        ..      LSLS     r3,r3,#8
        0x000033da:    330f        .3      ADDS     r3,r3,#0xf
        0x000033dc:    401a        .@      ANDS     r2,r2,r3
        0x000033de:    4311        .C      ORRS     r1,r1,r2
        0x000033e0:    4608        .F      MOV      r0,r1
        0x000033e2:    0601        ..      LSLS     r1,r0,#24
        0x000033e4:    22ff        ."      MOVS     r2,#0xff
        0x000033e6:    0212        ..      LSLS     r2,r2,#8
        0x000033e8:    4002        .@      ANDS     r2,r2,r0
        0x000033ea:    0212        ..      LSLS     r2,r2,#8
        0x000033ec:    4311        .C      ORRS     r1,r1,r2
        0x000033ee:    0a02        ..      LSRS     r2,r0,#8
        0x000033f0:    23ff        .#      MOVS     r3,#0xff
        0x000033f2:    021b        ..      LSLS     r3,r3,#8
        0x000033f4:    401a        .@      ANDS     r2,r2,r3
        0x000033f6:    4311        .C      ORRS     r1,r1,r2
        0x000033f8:    0e02        ..      LSRS     r2,r0,#24
        0x000033fa:    4311        .C      ORRS     r1,r1,r2
        0x000033fc:    4608        .F      MOV      r0,r1
        0x000033fe:    4770        pG      BX       lr
    crc32c
        0x00003400:    b5f3        ..      PUSH     {r0,r1,r4-r7,lr}
        0x00003402:    2500        .%      MOVS     r5,#0
        0x00003404:    1e6c        l.      SUBS     r4,r5,#1
        0x00003406:    e01c        ..      B        0x3442 ; crc32c + 66
        0x00003408:    9800        ..      LDR      r0,[sp,#0]
        0x0000340a:    5d46        F]      LDRB     r6,[r0,r5]
        0x0000340c:    4630        0F      MOV      r0,r6
        0x0000340e:    f7ffffac    ....    BL       reverse ; 0x336a
        0x00003412:    4606        .F      MOV      r6,r0
        0x00003414:    2700        .'      MOVS     r7,#0
        0x00003416:    e011        ..      B        0x343c ; crc32c + 60
        0x00003418:    4620         F      MOV      r0,r4
        0x0000341a:    4070        p@      EORS     r0,r0,r6
        0x0000341c:    2800        .(      CMP      r0,#0
        0x0000341e:    da0a        ..      BGE      0x3436 ; crc32c + 54
        0x00003420:    0060        `.      LSLS     r0,r4,#1
        0x00003422:    2104        .!      MOVS     r1,#4
        0x00003424:    0209        ..      LSLS     r1,r1,#8
        0x00003426:    31c1        .1      ADDS     r1,r1,#0xc1
        0x00003428:    0209        ..      LSLS     r1,r1,#8
        0x0000342a:    311d        .1      ADDS     r1,r1,#0x1d
        0x0000342c:    0209        ..      LSLS     r1,r1,#8
        0x0000342e:    31b7        .1      ADDS     r1,r1,#0xb7
        0x00003430:    4048        H@      EORS     r0,r0,r1
        0x00003432:    4604        .F      MOV      r4,r0
        0x00003434:    e000        ..      B        0x3438 ; crc32c + 56
        0x00003436:    0064        d.      LSLS     r4,r4,#1
        0x00003438:    0076        v.      LSLS     r6,r6,#1
        0x0000343a:    1c7f        ..      ADDS     r7,r7,#1
        0x0000343c:    2f07        ./      CMP      r7,#7
        0x0000343e:    ddeb        ..      BLE      0x3418 ; crc32c + 24
        0x00003440:    1c6d        m.      ADDS     r5,r5,#1
        0x00003442:    9801        ..      LDR      r0,[sp,#4]
        0x00003444:    4285        .B      CMP      r5,r0
        0x00003446:    d3df        ..      BCC      0x3408 ; crc32c + 8
        0x00003448:    43e0        .C      MVNS     r0,r4
        0x0000344a:    f7ffff8e    ....    BL       reverse ; 0x336a
        0x0000344e:    bdfc        ..      POP      {r2-r7,pc}
    crc_check
        0x00003450:    b510        ..      PUSH     {r4,lr}
        0x00003452:    2000        .       MOVS     r0,#0
        0x00003454:    0200        ..      LSLS     r0,r0,#8
        0x00003456:    3000        .0      ADDS     r0,#0
        0x00003458:    0200        ..      LSLS     r0,r0,#8
        0x0000345a:    305b        [0      ADDS     r0,r0,#0x5b
        0x0000345c:    0200        ..      LSLS     r0,r0,#8
        0x0000345e:    3098        .0      ADDS     r0,r0,#0x98
        0x00003460:    f001fc70    ..p.    BL       __2printf ; 0x4d44
        0x00003464:    2000        .       MOVS     r0,#0
        0x00003466:    0200        ..      LSLS     r0,r0,#8
        0x00003468:    3000        .0      ADDS     r0,#0
        0x0000346a:    0200        ..      LSLS     r0,r0,#8
        0x0000346c:    305b        [0      ADDS     r0,r0,#0x5b
        0x0000346e:    0200        ..      LSLS     r0,r0,#8
        0x00003470:    30b0        .0      ADDS     r0,r0,#0xb0
        0x00003472:    f001fc67    ..g.    BL       __2printf ; 0x4d44
        0x00003476:    20ff        .       MOVS     r0,#0xff
        0x00003478:    0200        ..      LSLS     r0,r0,#8
        0x0000347a:    30c0        .0      ADDS     r0,r0,#0xc0
        0x0000347c:    6b81        .k      LDR      r1,[r0,#0x38]
        0x0000347e:    2000        .       MOVS     r0,#0
        0x00003480:    f7ffffbe    ....    BL       crc32c ; 0x3400
        0x00003484:    4604        .F      MOV      r4,r0
        0x00003486:    20ff        .       MOVS     r0,#0xff
        0x00003488:    0200        ..      LSLS     r0,r0,#8
        0x0000348a:    30c0        .0      ADDS     r0,r0,#0xc0
        0x0000348c:    6bc0        .k      LDR      r0,[r0,#0x3c]
        0x0000348e:    42a0        .B      CMP      r0,r4
        0x00003490:    d109        ..      BNE      0x34a6 ; crc_check + 86
        0x00003492:    2000        .       MOVS     r0,#0
        0x00003494:    0200        ..      LSLS     r0,r0,#8
        0x00003496:    3000        .0      ADDS     r0,#0
        0x00003498:    0200        ..      LSLS     r0,r0,#8
        0x0000349a:    305b        [0      ADDS     r0,r0,#0x5b
        0x0000349c:    0200        ..      LSLS     r0,r0,#8
        0x0000349e:    30d0        .0      ADDS     r0,r0,#0xd0
        0x000034a0:    f001fc50    ..P.    BL       __2printf ; 0x4d44
        0x000034a4:    e00a        ..      B        0x34bc ; crc_check + 108
        0x000034a6:    2000        .       MOVS     r0,#0
        0x000034a8:    0200        ..      LSLS     r0,r0,#8
        0x000034aa:    3000        .0      ADDS     r0,#0
        0x000034ac:    0200        ..      LSLS     r0,r0,#8
        0x000034ae:    305b        [0      ADDS     r0,r0,#0x5b
        0x000034b0:    0200        ..      LSLS     r0,r0,#8
        0x000034b2:    30dc        .0      ADDS     r0,r0,#0xdc
        0x000034b4:    f001fc46    ..F.    BL       __2printf ; 0x4d44
        0x000034b8:    bf00        ..      NOP      
        0x000034ba:    e7fe        ..      B        0x34ba ; crc_check + 106
        0x000034bc:    bd10        ..      POP      {r4,pc}
    flipChar
        0x000034be:    21f0        .!      MOVS     r1,#0xf0
        0x000034c0:    4001        .@      ANDS     r1,r1,r0
        0x000034c2:    1109        ..      ASRS     r1,r1,#4
        0x000034c4:    0702        ..      LSLS     r2,r0,#28
        0x000034c6:    0e12        ..      LSRS     r2,r2,#24
        0x000034c8:    4311        .C      ORRS     r1,r1,r2
        0x000034ca:    4608        .F      MOV      r0,r1
        0x000034cc:    21cc        .!      MOVS     r1,#0xcc
        0x000034ce:    4001        .@      ANDS     r1,r1,r0
        0x000034d0:    1089        ..      ASRS     r1,r1,#2
        0x000034d2:    2233        3"      MOVS     r2,#0x33
        0x000034d4:    4002        .@      ANDS     r2,r2,r0
        0x000034d6:    0092        ..      LSLS     r2,r2,#2
        0x000034d8:    4311        .C      ORRS     r1,r1,r2
        0x000034da:    4608        .F      MOV      r0,r1
        0x000034dc:    21aa        .!      MOVS     r1,#0xaa
        0x000034de:    4001        .@      ANDS     r1,r1,r0
        0x000034e0:    1049        I.      ASRS     r1,r1,#1
        0x000034e2:    2255        U"      MOVS     r2,#0x55
        0x000034e4:    4002        .@      ANDS     r2,r2,r0
        0x000034e6:    0052        R.      LSLS     r2,r2,#1
        0x000034e8:    4311        .C      ORRS     r1,r1,r2
        0x000034ea:    4608        .F      MOV      r0,r1
        0x000034ec:    4770        pG      BX       lr
    clear_asc_bit
        0x000034ee:    b510        ..      PUSH     {r4,lr}
        0x000034f0:    0941        A.      LSRS     r1,r0,#5
        0x000034f2:    008a        ..      LSLS     r2,r1,#2
        0x000034f4:    2320         #      MOVS     r3,#0x20
        0x000034f6:    021b        ..      LSLS     r3,r3,#8
        0x000034f8:    3300        .3      ADDS     r3,#0
        0x000034fa:    021b        ..      LSLS     r3,r3,#8
        0x000034fc:    3306        .3      ADDS     r3,#6
        0x000034fe:    021b        ..      LSLS     r3,r3,#8
        0x00003500:    337c        |3      ADDS     r3,r3,#0x7c
        0x00003502:    589a        .X      LDR      r2,[r3,r2]
        0x00003504:    014b        K.      LSLS     r3,r1,#5
        0x00003506:    1ac4        ..      SUBS     r4,r0,r3
        0x00003508:    2301        .#      MOVS     r3,#1
        0x0000350a:    07db        ..      LSLS     r3,r3,#31
        0x0000350c:    40e3        .@      LSRS     r3,r3,r4
        0x0000350e:    439a        .C      BICS     r2,r2,r3
        0x00003510:    008b        ..      LSLS     r3,r1,#2
        0x00003512:    2420         $      MOVS     r4,#0x20
        0x00003514:    0224        $.      LSLS     r4,r4,#8
        0x00003516:    3400        .4      ADDS     r4,#0
        0x00003518:    0224        $.      LSLS     r4,r4,#8
        0x0000351a:    3406        .4      ADDS     r4,#6
        0x0000351c:    0224        $.      LSLS     r4,r4,#8
        0x0000351e:    347c        |4      ADDS     r4,r4,#0x7c
        0x00003520:    50e2        .P      STR      r2,[r4,r3]
        0x00003522:    bf00        ..      NOP      
        0x00003524:    bd10        ..      POP      {r4,pc}
    set_asc_bit
        0x00003526:    b510        ..      PUSH     {r4,lr}
        0x00003528:    0941        A.      LSRS     r1,r0,#5
        0x0000352a:    008a        ..      LSLS     r2,r1,#2
        0x0000352c:    2320         #      MOVS     r3,#0x20
        0x0000352e:    021b        ..      LSLS     r3,r3,#8
        0x00003530:    3300        .3      ADDS     r3,#0
        0x00003532:    021b        ..      LSLS     r3,r3,#8
        0x00003534:    3306        .3      ADDS     r3,#6
        0x00003536:    021b        ..      LSLS     r3,r3,#8
        0x00003538:    337c        |3      ADDS     r3,r3,#0x7c
        0x0000353a:    589a        .X      LDR      r2,[r3,r2]
        0x0000353c:    014b        K.      LSLS     r3,r1,#5
        0x0000353e:    1ac4        ..      SUBS     r4,r0,r3
        0x00003540:    2301        .#      MOVS     r3,#1
        0x00003542:    07db        ..      LSLS     r3,r3,#31
        0x00003544:    40e3        .@      LSRS     r3,r3,r4
        0x00003546:    431a        .C      ORRS     r2,r2,r3
        0x00003548:    008b        ..      LSLS     r3,r1,#2
        0x0000354a:    2420         $      MOVS     r4,#0x20
        0x0000354c:    0224        $.      LSLS     r4,r4,#8
        0x0000354e:    3400        .4      ADDS     r4,#0
        0x00003550:    0224        $.      LSLS     r4,r4,#8
        0x00003552:    3406        .4      ADDS     r4,#6
        0x00003554:    0224        $.      LSLS     r4,r4,#8
        0x00003556:    347c        |4      ADDS     r4,r4,#0x7c
        0x00003558:    50e2        .P      STR      r2,[r4,r3]
        0x0000355a:    bf00        ..      NOP      
        0x0000355c:    bd10        ..      POP      {r4,pc}
    GPO_control
        0x0000355e:    b5ff        ..      PUSH     {r0-r7,lr}
        0x00003560:    4605        .F      MOV      r5,r0
        0x00003562:    460e        .F      MOV      r6,r1
        0x00003564:    4617        .F      MOV      r7,r2
        0x00003566:    2400        .$      MOVS     r4,#0
        0x00003568:    e00f        ..      B        0x358a ; GPO_control + 44
        0x0000356a:    4628        (F      MOV      r0,r5
        0x0000356c:    4120         A      ASRS     r0,r0,r4
        0x0000356e:    07c0        ..      LSLS     r0,r0,#31
        0x00003570:    0fc0        ..      LSRS     r0,r0,#31
        0x00003572:    2800        .(      CMP      r0,#0
        0x00003574:    d004        ..      BEQ      0x3580 ; GPO_control + 34
        0x00003576:    4620         F      MOV      r0,r4
        0x00003578:    30f5        .0      ADDS     r0,r0,#0xf5
        0x0000357a:    f7ffffd4    ....    BL       set_asc_bit ; 0x3526
        0x0000357e:    e003        ..      B        0x3588 ; GPO_control + 42
        0x00003580:    4620         F      MOV      r0,r4
        0x00003582:    30f5        .0      ADDS     r0,r0,#0xf5
        0x00003584:    f7ffffb3    ....    BL       clear_asc_bit ; 0x34ee
        0x00003588:    1c64        d.      ADDS     r4,r4,#1
        0x0000358a:    2c03        .,      CMP      r4,#3
        0x0000358c:    dded        ..      BLE      0x356a ; GPO_control + 12
        0x0000358e:    2400        .$      MOVS     r4,#0
        0x00003590:    e00f        ..      B        0x35b2 ; GPO_control + 84
        0x00003592:    4630        0F      MOV      r0,r6
        0x00003594:    4120         A      ASRS     r0,r0,r4
        0x00003596:    07c0        ..      LSLS     r0,r0,#31
        0x00003598:    0fc0        ..      LSRS     r0,r0,#31
        0x0000359a:    2800        .(      CMP      r0,#0
        0x0000359c:    d004        ..      BEQ      0x35a8 ; GPO_control + 74
        0x0000359e:    4620         F      MOV      r0,r4
        0x000035a0:    30f9        .0      ADDS     r0,r0,#0xf9
        0x000035a2:    f7ffffc0    ....    BL       set_asc_bit ; 0x3526
        0x000035a6:    e003        ..      B        0x35b0 ; GPO_control + 82
        0x000035a8:    4620         F      MOV      r0,r4
        0x000035aa:    30f9        .0      ADDS     r0,r0,#0xf9
        0x000035ac:    f7ffff9f    ....    BL       clear_asc_bit ; 0x34ee
        0x000035b0:    1c64        d.      ADDS     r4,r4,#1
        0x000035b2:    2c03        .,      CMP      r4,#3
        0x000035b4:    dded        ..      BLE      0x3592 ; GPO_control + 52
        0x000035b6:    2400        .$      MOVS     r4,#0
        0x000035b8:    e00f        ..      B        0x35da ; GPO_control + 124
        0x000035ba:    4638        8F      MOV      r0,r7
        0x000035bc:    4120         A      ASRS     r0,r0,r4
        0x000035be:    07c0        ..      LSLS     r0,r0,#31
        0x000035c0:    0fc0        ..      LSRS     r0,r0,#31
        0x000035c2:    2800        .(      CMP      r0,#0
        0x000035c4:    d004        ..      BEQ      0x35d0 ; GPO_control + 114
        0x000035c6:    4620         F      MOV      r0,r4
        0x000035c8:    30fd        .0      ADDS     r0,r0,#0xfd
        0x000035ca:    f7ffffac    ....    BL       set_asc_bit ; 0x3526
        0x000035ce:    e003        ..      B        0x35d8 ; GPO_control + 122
        0x000035d0:    4620         F      MOV      r0,r4
        0x000035d2:    30fd        .0      ADDS     r0,r0,#0xfd
        0x000035d4:    f7ffff8b    ....    BL       clear_asc_bit ; 0x34ee
        0x000035d8:    1c64        d.      ADDS     r4,r4,#1
        0x000035da:    2c03        .,      CMP      r4,#3
        0x000035dc:    dded        ..      BLE      0x35ba ; GPO_control + 92
        0x000035de:    2400        .$      MOVS     r4,#0
        0x000035e0:    e00f        ..      B        0x3602 ; GPO_control + 164
        0x000035e2:    9803        ..      LDR      r0,[sp,#0xc]
        0x000035e4:    4120         A      ASRS     r0,r0,r4
        0x000035e6:    07c0        ..      LSLS     r0,r0,#31
        0x000035e8:    0fc0        ..      LSRS     r0,r0,#31
        0x000035ea:    2800        .(      CMP      r0,#0
        0x000035ec:    d004        ..      BEQ      0x35f8 ; GPO_control + 154
        0x000035ee:    1de0        ..      ADDS     r0,r4,#7
        0x000035f0:    30fa        .0      ADDS     r0,r0,#0xfa
        0x000035f2:    f7ffff98    ....    BL       set_asc_bit ; 0x3526
        0x000035f6:    e003        ..      B        0x3600 ; GPO_control + 162
        0x000035f8:    1de0        ..      ADDS     r0,r4,#7
        0x000035fa:    30fa        .0      ADDS     r0,r0,#0xfa
        0x000035fc:    f7ffff77    ..w.    BL       clear_asc_bit ; 0x34ee
        0x00003600:    1c64        d.      ADDS     r4,r4,#1
        0x00003602:    2c03        .,      CMP      r4,#3
        0x00003604:    dded        ..      BLE      0x35e2 ; GPO_control + 132
        0x00003606:    bdff        ..      POP      {r0-r7,pc}
    GPI_control
        0x00003608:    b5ff        ..      PUSH     {r0-r7,lr}
        0x0000360a:    4605        .F      MOV      r5,r0
        0x0000360c:    460e        .F      MOV      r6,r1
        0x0000360e:    4617        .F      MOV      r7,r2
        0x00003610:    2400        .$      MOVS     r4,#0
        0x00003612:    e00f        ..      B        0x3634 ; GPI_control + 44
        0x00003614:    4628        (F      MOV      r0,r5
        0x00003616:    4120         A      ASRS     r0,r0,r4
        0x00003618:    07c0        ..      LSLS     r0,r0,#31
        0x0000361a:    0fc0        ..      LSRS     r0,r0,#31
        0x0000361c:    2800        .(      CMP      r0,#0
        0x0000361e:    d004        ..      BEQ      0x362a ; GPI_control + 34
        0x00003620:    1de0        ..      ADDS     r0,r4,#7
        0x00003622:    30fe        .0      ADDS     r0,r0,#0xfe
        0x00003624:    f7ffff7f    ....    BL       set_asc_bit ; 0x3526
        0x00003628:    e003        ..      B        0x3632 ; GPI_control + 42
        0x0000362a:    1de0        ..      ADDS     r0,r4,#7
        0x0000362c:    30fe        .0      ADDS     r0,r0,#0xfe
        0x0000362e:    f7ffff5e    ..^.    BL       clear_asc_bit ; 0x34ee
        0x00003632:    1c64        d.      ADDS     r4,r4,#1
        0x00003634:    2c01        .,      CMP      r4,#1
        0x00003636:    dded        ..      BLE      0x3614 ; GPI_control + 12
        0x00003638:    2400        .$      MOVS     r4,#0
        0x0000363a:    e011        ..      B        0x3660 ; GPI_control + 88
        0x0000363c:    4630        0F      MOV      r0,r6
        0x0000363e:    4120         A      ASRS     r0,r0,r4
        0x00003640:    07c0        ..      LSLS     r0,r0,#31
        0x00003642:    0fc0        ..      LSRS     r0,r0,#31
        0x00003644:    2800        .(      CMP      r0,#0
        0x00003646:    d005        ..      BEQ      0x3654 ; GPI_control + 76
        0x00003648:    4620         F      MOV      r0,r4
        0x0000364a:    30ff        .0      ADDS     r0,r0,#0xff
        0x0000364c:    3008        .0      ADDS     r0,r0,#8
        0x0000364e:    f7ffff6a    ..j.    BL       set_asc_bit ; 0x3526
        0x00003652:    e004        ..      B        0x365e ; GPI_control + 86
        0x00003654:    4620         F      MOV      r0,r4
        0x00003656:    30ff        .0      ADDS     r0,r0,#0xff
        0x00003658:    3008        .0      ADDS     r0,r0,#8
        0x0000365a:    f7ffff48    ..H.    BL       clear_asc_bit ; 0x34ee
        0x0000365e:    1c64        d.      ADDS     r4,r4,#1
        0x00003660:    2c01        .,      CMP      r4,#1
        0x00003662:    ddeb        ..      BLE      0x363c ; GPI_control + 52
        0x00003664:    2400        .$      MOVS     r4,#0
        0x00003666:    e011        ..      B        0x368c ; GPI_control + 132
        0x00003668:    4638        8F      MOV      r0,r7
        0x0000366a:    4120         A      ASRS     r0,r0,r4
        0x0000366c:    07c0        ..      LSLS     r0,r0,#31
        0x0000366e:    0fc0        ..      LSRS     r0,r0,#31
        0x00003670:    2800        .(      CMP      r0,#0
        0x00003672:    d005        ..      BEQ      0x3680 ; GPI_control + 120
        0x00003674:    4620         F      MOV      r0,r4
        0x00003676:    30ff        .0      ADDS     r0,r0,#0xff
        0x00003678:    300a        .0      ADDS     r0,r0,#0xa
        0x0000367a:    f7ffff54    ..T.    BL       set_asc_bit ; 0x3526
        0x0000367e:    e004        ..      B        0x368a ; GPI_control + 130
        0x00003680:    4620         F      MOV      r0,r4
        0x00003682:    30ff        .0      ADDS     r0,r0,#0xff
        0x00003684:    300a        .0      ADDS     r0,r0,#0xa
        0x00003686:    f7ffff32    ..2.    BL       clear_asc_bit ; 0x34ee
        0x0000368a:    1c64        d.      ADDS     r4,r4,#1
        0x0000368c:    2c01        .,      CMP      r4,#1
        0x0000368e:    ddeb        ..      BLE      0x3668 ; GPI_control + 96
        0x00003690:    2400        .$      MOVS     r4,#0
        0x00003692:    e011        ..      B        0x36b8 ; GPI_control + 176
        0x00003694:    9803        ..      LDR      r0,[sp,#0xc]
        0x00003696:    4120         A      ASRS     r0,r0,r4
        0x00003698:    07c0        ..      LSLS     r0,r0,#31
        0x0000369a:    0fc0        ..      LSRS     r0,r0,#31
        0x0000369c:    2800        .(      CMP      r0,#0
        0x0000369e:    d005        ..      BEQ      0x36ac ; GPI_control + 164
        0x000036a0:    4620         F      MOV      r0,r4
        0x000036a2:    30ff        .0      ADDS     r0,r0,#0xff
        0x000036a4:    300c        .0      ADDS     r0,r0,#0xc
        0x000036a6:    f7ffff3e    ..>.    BL       set_asc_bit ; 0x3526
        0x000036aa:    e004        ..      B        0x36b6 ; GPI_control + 174
        0x000036ac:    4620         F      MOV      r0,r4
        0x000036ae:    30ff        .0      ADDS     r0,r0,#0xff
        0x000036b0:    300c        .0      ADDS     r0,r0,#0xc
        0x000036b2:    f7ffff1c    ....    BL       clear_asc_bit ; 0x34ee
        0x000036b6:    1c64        d.      ADDS     r4,r4,#1
        0x000036b8:    2c01        .,      CMP      r4,#1
        0x000036ba:    ddeb        ..      BLE      0x3694 ; GPI_control + 140
        0x000036bc:    bdff        ..      POP      {r0-r7,pc}
    GPO_enables
        0x000036be:    b530        0.      PUSH     {r4,r5,lr}
        0x000036c0:    b089        ..      SUB      sp,sp,#0x24
        0x000036c2:    4605        .F      MOV      r5,r0
        0x000036c4:    2220         "      MOVS     r2,#0x20
        0x000036c6:    2100        .!      MOVS     r1,#0
        0x000036c8:    0209        ..      LSLS     r1,r1,#8
        0x000036ca:    3100        .1      ADDS     r1,#0
        0x000036cc:    0209        ..      LSLS     r1,r1,#8
        0x000036ce:    3158        X1      ADDS     r1,r1,#0x58
        0x000036d0:    0209        ..      LSLS     r1,r1,#8
        0x000036d2:    31e8        .1      ADDS     r1,r1,#0xe8
        0x000036d4:    a801        ..      ADD      r0,sp,#4
        0x000036d6:    f7fcfd31    ..1.    BL       __aeabi_memcpy4 ; 0x13c
        0x000036da:    2400        .$      MOVS     r4,#0
        0x000036dc:    e011        ..      B        0x3702 ; GPO_enables + 68
        0x000036de:    4628        (F      MOV      r0,r5
        0x000036e0:    40e0        .@      LSRS     r0,r0,r4
        0x000036e2:    07c0        ..      LSLS     r0,r0,#31
        0x000036e4:    0fc0        ..      LSRS     r0,r0,#31
        0x000036e6:    2800        .(      CMP      r0,#0
        0x000036e8:    d005        ..      BEQ      0x36f6 ; GPO_enables + 56
        0x000036ea:    0061        a.      LSLS     r1,r4,#1
        0x000036ec:    aa01        ..      ADD      r2,sp,#4
        0x000036ee:    5a50        PZ      LDRH     r0,[r2,r1]
        0x000036f0:    f7fffefd    ....    BL       clear_asc_bit ; 0x34ee
        0x000036f4:    e004        ..      B        0x3700 ; GPO_enables + 66
        0x000036f6:    0061        a.      LSLS     r1,r4,#1
        0x000036f8:    aa01        ..      ADD      r2,sp,#4
        0x000036fa:    5a50        PZ      LDRH     r0,[r2,r1]
        0x000036fc:    f7ffff13    ....    BL       set_asc_bit ; 0x3526
        0x00003700:    1c64        d.      ADDS     r4,r4,#1
        0x00003702:    2c0f        .,      CMP      r4,#0xf
        0x00003704:    d9eb        ..      BLS      0x36de ; GPO_enables + 32
        0x00003706:    b009        ..      ADD      sp,sp,#0x24
        0x00003708:    bd30        0.      POP      {r4,r5,pc}
    GPI_enables
        0x0000370a:    b530        0.      PUSH     {r4,r5,lr}
        0x0000370c:    b089        ..      SUB      sp,sp,#0x24
        0x0000370e:    4605        .F      MOV      r5,r0
        0x00003710:    2220         "      MOVS     r2,#0x20
        0x00003712:    2100        .!      MOVS     r1,#0
        0x00003714:    0209        ..      LSLS     r1,r1,#8
        0x00003716:    3100        .1      ADDS     r1,#0
        0x00003718:    0209        ..      LSLS     r1,r1,#8
        0x0000371a:    3159        Y1      ADDS     r1,r1,#0x59
        0x0000371c:    0209        ..      LSLS     r1,r1,#8
        0x0000371e:    3108        .1      ADDS     r1,r1,#8
        0x00003720:    a801        ..      ADD      r0,sp,#4
        0x00003722:    f7fcfd0b    ....    BL       __aeabi_memcpy4 ; 0x13c
        0x00003726:    2400        .$      MOVS     r4,#0
        0x00003728:    e011        ..      B        0x374e ; GPI_enables + 68
        0x0000372a:    4628        (F      MOV      r0,r5
        0x0000372c:    40e0        .@      LSRS     r0,r0,r4
        0x0000372e:    07c0        ..      LSLS     r0,r0,#31
        0x00003730:    0fc0        ..      LSRS     r0,r0,#31
        0x00003732:    2800        .(      CMP      r0,#0
        0x00003734:    d005        ..      BEQ      0x3742 ; GPI_enables + 56
        0x00003736:    0061        a.      LSLS     r1,r4,#1
        0x00003738:    aa01        ..      ADD      r2,sp,#4
        0x0000373a:    5a50        PZ      LDRH     r0,[r2,r1]
        0x0000373c:    f7fffef3    ....    BL       set_asc_bit ; 0x3526
        0x00003740:    e004        ..      B        0x374c ; GPI_enables + 66
        0x00003742:    0061        a.      LSLS     r1,r4,#1
        0x00003744:    aa01        ..      ADD      r2,sp,#4
        0x00003746:    5a50        PZ      LDRH     r0,[r2,r1]
        0x00003748:    f7fffed1    ....    BL       clear_asc_bit ; 0x34ee
        0x0000374c:    1c64        d.      ADDS     r4,r4,#1
        0x0000374e:    2c0f        .,      CMP      r4,#0xf
        0x00003750:    d9eb        ..      BLS      0x372a ; GPI_enables + 32
        0x00003752:    b009        ..      ADD      sp,sp,#0x24
        0x00003754:    bd30        0.      POP      {r4,r5,pc}
    init_ldo_control
        0x00003756:    b500        ..      PUSH     {lr}
        0x00003758:    20ff        .       MOVS     r0,#0xff
        0x0000375a:    30f6        .0      ADDS     r0,r0,#0xf6
        0x0000375c:    f7fffec7    ....    BL       clear_asc_bit ; 0x34ee
        0x00003760:    20ff        .       MOVS     r0,#0xff
        0x00003762:    30f7        .0      ADDS     r0,r0,#0xf7
        0x00003764:    f7fffec3    ....    BL       clear_asc_bit ; 0x34ee
        0x00003768:    20ff        .       MOVS     r0,#0xff
        0x0000376a:    30f8        .0      ADDS     r0,r0,#0xf8
        0x0000376c:    f7fffebf    ....    BL       clear_asc_bit ; 0x34ee
        0x00003770:    20ff        .       MOVS     r0,#0xff
        0x00003772:    30f9        .0      ADDS     r0,r0,#0xf9
        0x00003774:    f7fffebb    ....    BL       clear_asc_bit ; 0x34ee
        0x00003778:    20ff        .       MOVS     r0,#0xff
        0x0000377a:    30fa        .0      ADDS     r0,r0,#0xfa
        0x0000377c:    f7fffed3    ....    BL       set_asc_bit ; 0x3526
        0x00003780:    20ff        .       MOVS     r0,#0xff
        0x00003782:    30fb        .0      ADDS     r0,r0,#0xfb
        0x00003784:    f7fffeb3    ....    BL       clear_asc_bit ; 0x34ee
        0x00003788:    20ff        .       MOVS     r0,#0xff
        0x0000378a:    30fc        .0      ADDS     r0,r0,#0xfc
        0x0000378c:    f7fffecb    ....    BL       set_asc_bit ; 0x3526
        0x00003790:    20ff        .       MOVS     r0,#0xff
        0x00003792:    30fd        .0      ADDS     r0,r0,#0xfd
        0x00003794:    f7fffeab    ....    BL       clear_asc_bit ; 0x34ee
        0x00003798:    20ff        .       MOVS     r0,#0xff
        0x0000379a:    30fe        .0      ADDS     r0,r0,#0xfe
        0x0000379c:    f7fffec3    ....    BL       set_asc_bit ; 0x3526
        0x000037a0:    20ff        .       MOVS     r0,#0xff
        0x000037a2:    30ff        .0      ADDS     r0,r0,#0xff
        0x000037a4:    f7fffebf    ....    BL       set_asc_bit ; 0x3526
        0x000037a8:    2001        .       MOVS     r0,#1
        0x000037aa:    0200        ..      LSLS     r0,r0,#8
        0x000037ac:    30ff        .0      ADDS     r0,r0,#0xff
        0x000037ae:    f7fffeba    ....    BL       set_asc_bit ; 0x3526
        0x000037b2:    2001        .       MOVS     r0,#1
        0x000037b4:    0240        @.      LSLS     r0,r0,#9
        0x000037b6:    f7fffeb6    ....    BL       set_asc_bit ; 0x3526
        0x000037ba:    2002        .       MOVS     r0,#2
        0x000037bc:    0200        ..      LSLS     r0,r0,#8
        0x000037be:    3001        .0      ADDS     r0,#1
        0x000037c0:    f7fffe95    ....    BL       clear_asc_bit ; 0x34ee
        0x000037c4:    2002        .       MOVS     r0,#2
        0x000037c6:    0200        ..      LSLS     r0,r0,#8
        0x000037c8:    3002        .0      ADDS     r0,#2
        0x000037ca:    f7fffe90    ....    BL       clear_asc_bit ; 0x34ee
        0x000037ce:    2002        .       MOVS     r0,#2
        0x000037d0:    0200        ..      LSLS     r0,r0,#8
        0x000037d2:    3003        .0      ADDS     r0,#3
        0x000037d4:    f7fffea7    ....    BL       set_asc_bit ; 0x3526
        0x000037d8:    2081        .       MOVS     r0,#0x81
        0x000037da:    0080        ..      LSLS     r0,r0,#2
        0x000037dc:    f7fffea3    ....    BL       set_asc_bit ; 0x3526
        0x000037e0:    2000        .       MOVS     r0,#0
        0x000037e2:    2152        R!      MOVS     r1,#0x52
        0x000037e4:    0209        ..      LSLS     r1,r1,#8
        0x000037e6:    3128        (1      ADDS     r1,r1,#0x28
        0x000037e8:    0409        ..      LSLS     r1,r1,#16
        0x000037ea:    6008        .`      STR      r0,[r1,#0]
        0x000037ec:    2003        .       MOVS     r0,#3
        0x000037ee:    0200        ..      LSLS     r0,r0,#8
        0x000037f0:    3092        .0      ADDS     r0,r0,#0x92
        0x000037f2:    f7fffe98    ....    BL       set_asc_bit ; 0x3526
        0x000037f6:    bd00        ..      POP      {pc}
    sram_test
        0x000037f8:    b5f3        ..      PUSH     {r0,r1,r4-r7,lr}
        0x000037fa:    b081        ..      SUB      sp,sp,#4
        0x000037fc:    460f        .F      MOV      r7,r1
        0x000037fe:    2000        .       MOVS     r0,#0
        0x00003800:    9000        ..      STR      r0,[sp,#0]
        0x00003802:    9e01        ..      LDR      r6,[sp,#4]
        0x00003804:    00b8        ..      LSLS     r0,r7,#2
        0x00003806:    9e01        ..      LDR      r6,[sp,#4]
        0x00003808:    1982        ..      ADDS     r2,r0,r6
        0x0000380a:    4631        1F      MOV      r1,r6
        0x0000380c:    2000        .       MOVS     r0,#0
        0x0000380e:    0200        ..      LSLS     r0,r0,#8
        0x00003810:    3000        .0      ADDS     r0,#0
        0x00003812:    0200        ..      LSLS     r0,r0,#8
        0x00003814:    305c        \0      ADDS     r0,r0,#0x5c
        0x00003816:    0200        ..      LSLS     r0,r0,#8
        0x00003818:    301c        .0      ADDS     r0,r0,#0x1c
        0x0000381a:    f001fa93    ....    BL       __2printf ; 0x4d44
        0x0000381e:    2000        .       MOVS     r0,#0
        0x00003820:    0200        ..      LSLS     r0,r0,#8
        0x00003822:    3000        .0      ADDS     r0,#0
        0x00003824:    0200        ..      LSLS     r0,r0,#8
        0x00003826:    305c        \0      ADDS     r0,r0,#0x5c
        0x00003828:    0200        ..      LSLS     r0,r0,#8
        0x0000382a:    304c        L0      ADDS     r0,r0,#0x4c
        0x0000382c:    f001fa8a    ....    BL       __2printf ; 0x4d44
        0x00003830:    2400        .$      MOVS     r4,#0
        0x00003832:    e00c        ..      B        0x384e ; sram_test + 86
        0x00003834:    2500        .%      MOVS     r5,#0
        0x00003836:    e007        ..      B        0x3848 ; sram_test + 80
        0x00003838:    00a0        ..      LSLS     r0,r4,#2
        0x0000383a:    5830        0X      LDR      r0,[r6,r0]
        0x0000383c:    2101        .!      MOVS     r1,#1
        0x0000383e:    40a9        .@      LSLS     r1,r1,r5
        0x00003840:    4388        .C      BICS     r0,r0,r1
        0x00003842:    00a1        ..      LSLS     r1,r4,#2
        0x00003844:    5070        pP      STR      r0,[r6,r1]
        0x00003846:    1c6d        m.      ADDS     r5,r5,#1
        0x00003848:    2d20         -      CMP      r5,#0x20
        0x0000384a:    dbf5        ..      BLT      0x3838 ; sram_test + 64
        0x0000384c:    1c64        d.      ADDS     r4,r4,#1
        0x0000384e:    42bc        .B      CMP      r4,r7
        0x00003850:    d3f0        ..      BCC      0x3834 ; sram_test + 60
        0x00003852:    2400        .$      MOVS     r4,#0
        0x00003854:    e023        #.      B        0x389e ; sram_test + 166
        0x00003856:    2500        .%      MOVS     r5,#0
        0x00003858:    e01e        ..      B        0x3898 ; sram_test + 160
        0x0000385a:    00a0        ..      LSLS     r0,r4,#2
        0x0000385c:    5830        0X      LDR      r0,[r6,r0]
        0x0000385e:    2101        .!      MOVS     r1,#1
        0x00003860:    40a9        .@      LSLS     r1,r1,r5
        0x00003862:    4008        .@      ANDS     r0,r0,r1
        0x00003864:    2800        .(      CMP      r0,#0
        0x00003866:    d00f        ..      BEQ      0x3888 ; sram_test + 144
        0x00003868:    00a0        ..      LSLS     r0,r4,#2
        0x0000386a:    5833        3X      LDR      r3,[r6,r0]
        0x0000386c:    462a        *F      MOV      r2,r5
        0x0000386e:    4621        !F      MOV      r1,r4
        0x00003870:    2000        .       MOVS     r0,#0
        0x00003872:    0200        ..      LSLS     r0,r0,#8
        0x00003874:    3000        .0      ADDS     r0,#0
        0x00003876:    0200        ..      LSLS     r0,r0,#8
        0x00003878:    305c        \0      ADDS     r0,r0,#0x5c
        0x0000387a:    0200        ..      LSLS     r0,r0,#8
        0x0000387c:    3064        d0      ADDS     r0,r0,#0x64
        0x0000387e:    f001fa61    ..a.    BL       __2printf ; 0x4d44
        0x00003882:    9800        ..      LDR      r0,[sp,#0]
        0x00003884:    1c40        @.      ADDS     r0,r0,#1
        0x00003886:    9000        ..      STR      r0,[sp,#0]
        0x00003888:    00a0        ..      LSLS     r0,r4,#2
        0x0000388a:    5830        0X      LDR      r0,[r6,r0]
        0x0000388c:    2101        .!      MOVS     r1,#1
        0x0000388e:    40a9        .@      LSLS     r1,r1,r5
        0x00003890:    4308        .C      ORRS     r0,r0,r1
        0x00003892:    00a1        ..      LSLS     r1,r4,#2
        0x00003894:    5070        pP      STR      r0,[r6,r1]
        0x00003896:    1c6d        m.      ADDS     r5,r5,#1
        0x00003898:    2d20         -      CMP      r5,#0x20
        0x0000389a:    dbde        ..      BLT      0x385a ; sram_test + 98
        0x0000389c:    1c64        d.      ADDS     r4,r4,#1
        0x0000389e:    42bc        .B      CMP      r4,r7
        0x000038a0:    d3d9        ..      BCC      0x3856 ; sram_test + 94
        0x000038a2:    2400        .$      MOVS     r4,#0
        0x000038a4:    e025        %.      B        0x38f2 ; sram_test + 250
        0x000038a6:    2500        .%      MOVS     r5,#0
        0x000038a8:    e020         .      B        0x38ec ; sram_test + 244
        0x000038aa:    00a0        ..      LSLS     r0,r4,#2
        0x000038ac:    5830        0X      LDR      r0,[r6,r0]
        0x000038ae:    2101        .!      MOVS     r1,#1
        0x000038b0:    40a9        .@      LSLS     r1,r1,r5
        0x000038b2:    4008        .@      ANDS     r0,r0,r1
        0x000038b4:    2101        .!      MOVS     r1,#1
        0x000038b6:    40a9        .@      LSLS     r1,r1,r5
        0x000038b8:    4288        .B      CMP      r0,r1
        0x000038ba:    d00f        ..      BEQ      0x38dc ; sram_test + 228
        0x000038bc:    00a0        ..      LSLS     r0,r4,#2
        0x000038be:    5833        3X      LDR      r3,[r6,r0]
        0x000038c0:    462a        *F      MOV      r2,r5
        0x000038c2:    4621        !F      MOV      r1,r4
        0x000038c4:    2000        .       MOVS     r0,#0
        0x000038c6:    0200        ..      LSLS     r0,r0,#8
        0x000038c8:    3000        .0      ADDS     r0,#0
        0x000038ca:    0200        ..      LSLS     r0,r0,#8
        0x000038cc:    305c        \0      ADDS     r0,r0,#0x5c
        0x000038ce:    0200        ..      LSLS     r0,r0,#8
        0x000038d0:    3094        .0      ADDS     r0,r0,#0x94
        0x000038d2:    f001fa37    ..7.    BL       __2printf ; 0x4d44
        0x000038d6:    9800        ..      LDR      r0,[sp,#0]
        0x000038d8:    1c40        @.      ADDS     r0,r0,#1
        0x000038da:    9000        ..      STR      r0,[sp,#0]
        0x000038dc:    00a0        ..      LSLS     r0,r4,#2
        0x000038de:    5830        0X      LDR      r0,[r6,r0]
        0x000038e0:    2101        .!      MOVS     r1,#1
        0x000038e2:    40a9        .@      LSLS     r1,r1,r5
        0x000038e4:    4388        .C      BICS     r0,r0,r1
        0x000038e6:    00a1        ..      LSLS     r1,r4,#2
        0x000038e8:    5070        pP      STR      r0,[r6,r1]
        0x000038ea:    1c6d        m.      ADDS     r5,r5,#1
        0x000038ec:    2d20         -      CMP      r5,#0x20
        0x000038ee:    dbdc        ..      BLT      0x38aa ; sram_test + 178
        0x000038f0:    1c64        d.      ADDS     r4,r4,#1
        0x000038f2:    42bc        .B      CMP      r4,r7
        0x000038f4:    d3d7        ..      BCC      0x38a6 ; sram_test + 174
        0x000038f6:    1e7c        |.      SUBS     r4,r7,#1
        0x000038f8:    e023        #.      B        0x3942 ; sram_test + 330
        0x000038fa:    251f        .%      MOVS     r5,#0x1f
        0x000038fc:    e01e        ..      B        0x393c ; sram_test + 324
        0x000038fe:    00a0        ..      LSLS     r0,r4,#2
        0x00003900:    5830        0X      LDR      r0,[r6,r0]
        0x00003902:    2101        .!      MOVS     r1,#1
        0x00003904:    40a9        .@      LSLS     r1,r1,r5
        0x00003906:    4008        .@      ANDS     r0,r0,r1
        0x00003908:    2800        .(      CMP      r0,#0
        0x0000390a:    d00f        ..      BEQ      0x392c ; sram_test + 308
        0x0000390c:    00a0        ..      LSLS     r0,r4,#2
        0x0000390e:    5833        3X      LDR      r3,[r6,r0]
        0x00003910:    462a        *F      MOV      r2,r5
        0x00003912:    4621        !F      MOV      r1,r4
        0x00003914:    2000        .       MOVS     r0,#0
        0x00003916:    0200        ..      LSLS     r0,r0,#8
        0x00003918:    3000        .0      ADDS     r0,#0
        0x0000391a:    0200        ..      LSLS     r0,r0,#8
        0x0000391c:    305c        \0      ADDS     r0,r0,#0x5c
        0x0000391e:    0200        ..      LSLS     r0,r0,#8
        0x00003920:    30c4        .0      ADDS     r0,r0,#0xc4
        0x00003922:    f001fa0f    ....    BL       __2printf ; 0x4d44
        0x00003926:    9800        ..      LDR      r0,[sp,#0]
        0x00003928:    1c40        @.      ADDS     r0,r0,#1
        0x0000392a:    9000        ..      STR      r0,[sp,#0]
        0x0000392c:    00a0        ..      LSLS     r0,r4,#2
        0x0000392e:    5830        0X      LDR      r0,[r6,r0]
        0x00003930:    2101        .!      MOVS     r1,#1
        0x00003932:    40a9        .@      LSLS     r1,r1,r5
        0x00003934:    4308        .C      ORRS     r0,r0,r1
        0x00003936:    00a1        ..      LSLS     r1,r4,#2
        0x00003938:    5070        pP      STR      r0,[r6,r1]
        0x0000393a:    1e6d        m.      SUBS     r5,r5,#1
        0x0000393c:    2d00        .-      CMP      r5,#0
        0x0000393e:    dade        ..      BGE      0x38fe ; sram_test + 262
        0x00003940:    1e64        d.      SUBS     r4,r4,#1
        0x00003942:    2c00        .,      CMP      r4,#0
        0x00003944:    dad9        ..      BGE      0x38fa ; sram_test + 258
        0x00003946:    1e7c        |.      SUBS     r4,r7,#1
        0x00003948:    e025        %.      B        0x3996 ; sram_test + 414
        0x0000394a:    251f        .%      MOVS     r5,#0x1f
        0x0000394c:    e020         .      B        0x3990 ; sram_test + 408
        0x0000394e:    00a0        ..      LSLS     r0,r4,#2
        0x00003950:    5830        0X      LDR      r0,[r6,r0]
        0x00003952:    2101        .!      MOVS     r1,#1
        0x00003954:    40a9        .@      LSLS     r1,r1,r5
        0x00003956:    4008        .@      ANDS     r0,r0,r1
        0x00003958:    2101        .!      MOVS     r1,#1
        0x0000395a:    40a9        .@      LSLS     r1,r1,r5
        0x0000395c:    4288        .B      CMP      r0,r1
        0x0000395e:    d00f        ..      BEQ      0x3980 ; sram_test + 392
        0x00003960:    00a0        ..      LSLS     r0,r4,#2
        0x00003962:    5833        3X      LDR      r3,[r6,r0]
        0x00003964:    462a        *F      MOV      r2,r5
        0x00003966:    4621        !F      MOV      r1,r4
        0x00003968:    2000        .       MOVS     r0,#0
        0x0000396a:    0200        ..      LSLS     r0,r0,#8
        0x0000396c:    3000        .0      ADDS     r0,#0
        0x0000396e:    0200        ..      LSLS     r0,r0,#8
        0x00003970:    305c        \0      ADDS     r0,r0,#0x5c
        0x00003972:    0200        ..      LSLS     r0,r0,#8
        0x00003974:    30f4        .0      ADDS     r0,r0,#0xf4
        0x00003976:    f001f9e5    ....    BL       __2printf ; 0x4d44
        0x0000397a:    9800        ..      LDR      r0,[sp,#0]
        0x0000397c:    1c40        @.      ADDS     r0,r0,#1
        0x0000397e:    9000        ..      STR      r0,[sp,#0]
        0x00003980:    00a0        ..      LSLS     r0,r4,#2
        0x00003982:    5830        0X      LDR      r0,[r6,r0]
        0x00003984:    2101        .!      MOVS     r1,#1
        0x00003986:    40a9        .@      LSLS     r1,r1,r5
        0x00003988:    4388        .C      BICS     r0,r0,r1
        0x0000398a:    00a1        ..      LSLS     r1,r4,#2
        0x0000398c:    5070        pP      STR      r0,[r6,r1]
        0x0000398e:    1e6d        m.      SUBS     r5,r5,#1
        0x00003990:    2d00        .-      CMP      r5,#0
        0x00003992:    dadc        ..      BGE      0x394e ; sram_test + 342
        0x00003994:    1e64        d.      SUBS     r4,r4,#1
        0x00003996:    2c00        .,      CMP      r4,#0
        0x00003998:    dad7        ..      BGE      0x394a ; sram_test + 338
        0x0000399a:    2400        .$      MOVS     r4,#0
        0x0000399c:    e01c        ..      B        0x39d8 ; sram_test + 480
        0x0000399e:    2500        .%      MOVS     r5,#0
        0x000039a0:    e017        ..      B        0x39d2 ; sram_test + 474
        0x000039a2:    00a0        ..      LSLS     r0,r4,#2
        0x000039a4:    5830        0X      LDR      r0,[r6,r0]
        0x000039a6:    2101        .!      MOVS     r1,#1
        0x000039a8:    40a9        .@      LSLS     r1,r1,r5
        0x000039aa:    4008        .@      ANDS     r0,r0,r1
        0x000039ac:    2800        .(      CMP      r0,#0
        0x000039ae:    d00f        ..      BEQ      0x39d0 ; sram_test + 472
        0x000039b0:    00a0        ..      LSLS     r0,r4,#2
        0x000039b2:    5833        3X      LDR      r3,[r6,r0]
        0x000039b4:    462a        *F      MOV      r2,r5
        0x000039b6:    4621        !F      MOV      r1,r4
        0x000039b8:    2000        .       MOVS     r0,#0
        0x000039ba:    0200        ..      LSLS     r0,r0,#8
        0x000039bc:    3000        .0      ADDS     r0,#0
        0x000039be:    0200        ..      LSLS     r0,r0,#8
        0x000039c0:    305d        ]0      ADDS     r0,r0,#0x5d
        0x000039c2:    0200        ..      LSLS     r0,r0,#8
        0x000039c4:    3024        $0      ADDS     r0,r0,#0x24
        0x000039c6:    f001f9bd    ....    BL       __2printf ; 0x4d44
        0x000039ca:    9800        ..      LDR      r0,[sp,#0]
        0x000039cc:    1c40        @.      ADDS     r0,r0,#1
        0x000039ce:    9000        ..      STR      r0,[sp,#0]
        0x000039d0:    1c6d        m.      ADDS     r5,r5,#1
        0x000039d2:    2d20         -      CMP      r5,#0x20
        0x000039d4:    dbe5        ..      BLT      0x39a2 ; sram_test + 426
        0x000039d6:    1c64        d.      ADDS     r4,r4,#1
        0x000039d8:    42bc        .B      CMP      r4,r7
        0x000039da:    d3e0        ..      BCC      0x399e ; sram_test + 422
        0x000039dc:    2000        .       MOVS     r0,#0
        0x000039de:    0200        ..      LSLS     r0,r0,#8
        0x000039e0:    3000        .0      ADDS     r0,#0
        0x000039e2:    0200        ..      LSLS     r0,r0,#8
        0x000039e4:    305d        ]0      ADDS     r0,r0,#0x5d
        0x000039e6:    0200        ..      LSLS     r0,r0,#8
        0x000039e8:    3054        T0      ADDS     r0,r0,#0x54
        0x000039ea:    9900        ..      LDR      r1,[sp,#0]
        0x000039ec:    f001f9aa    ....    BL       __2printf ; 0x4d44
        0x000039f0:    9800        ..      LDR      r0,[sp,#0]
        0x000039f2:    bdfe        ..      POP      {r1-r7,pc}
    set_IF_LDO_voltage
        0x000039f4:    b530        0.      PUSH     {r4,r5,lr}
        0x000039f6:    4605        .F      MOV      r5,r0
        0x000039f8:    2400        .$      MOVS     r4,#0
        0x000039fa:    e011        ..      B        0x3a20 ; set_IF_LDO_voltage + 44
        0x000039fc:    4628        (F      MOV      r0,r5
        0x000039fe:    4120         A      ASRS     r0,r0,r4
        0x00003a00:    07c0        ..      LSLS     r0,r0,#31
        0x00003a02:    0fc0        ..      LSRS     r0,r0,#31
        0x00003a04:    2800        .(      CMP      r0,#0
        0x00003a06:    d005        ..      BEQ      0x3a14 ; set_IF_LDO_voltage + 32
        0x00003a08:    4620         F      MOV      r0,r4
        0x00003a0a:    30ff        .0      ADDS     r0,r0,#0xff
        0x00003a0c:    30ed        .0      ADDS     r0,r0,#0xed
        0x00003a0e:    f7fffd8a    ....    BL       set_asc_bit ; 0x3526
        0x00003a12:    e004        ..      B        0x3a1e ; set_IF_LDO_voltage + 42
        0x00003a14:    4620         F      MOV      r0,r4
        0x00003a16:    30ff        .0      ADDS     r0,r0,#0xff
        0x00003a18:    30ed        .0      ADDS     r0,r0,#0xed
        0x00003a1a:    f7fffd68    ..h.    BL       clear_asc_bit ; 0x34ee
        0x00003a1e:    1c64        d.      ADDS     r4,r4,#1
        0x00003a20:    2c06        .,      CMP      r4,#6
        0x00003a22:    d9eb        ..      BLS      0x39fc ; set_IF_LDO_voltage + 8
        0x00003a24:    bd30        0.      POP      {r4,r5,pc}
    set_VDDD_LDO_voltage
        0x00003a26:    b530        0.      PUSH     {r4,r5,lr}
        0x00003a28:    4605        .F      MOV      r5,r0
        0x00003a2a:    2400        .$      MOVS     r4,#0
        0x00003a2c:    e013        ..      B        0x3a56 ; set_VDDD_LDO_voltage + 48
        0x00003a2e:    4628        (F      MOV      r0,r5
        0x00003a30:    4120         A      ASRS     r0,r0,r4
        0x00003a32:    07c0        ..      LSLS     r0,r0,#31
        0x00003a34:    0fc0        ..      LSRS     r0,r0,#31
        0x00003a36:    2800        .(      CMP      r0,#0
        0x00003a38:    d006        ..      BEQ      0x3a48 ; set_VDDD_LDO_voltage + 34
        0x00003a3a:    2103        .!      MOVS     r1,#3
        0x00003a3c:    0209        ..      LSLS     r1,r1,#8
        0x00003a3e:    311d        .1      ADDS     r1,r1,#0x1d
        0x00003a40:    1b08        ..      SUBS     r0,r1,r4
        0x00003a42:    f7fffd70    ..p.    BL       set_asc_bit ; 0x3526
        0x00003a46:    e005        ..      B        0x3a54 ; set_VDDD_LDO_voltage + 46
        0x00003a48:    2103        .!      MOVS     r1,#3
        0x00003a4a:    0209        ..      LSLS     r1,r1,#8
        0x00003a4c:    311d        .1      ADDS     r1,r1,#0x1d
        0x00003a4e:    1b08        ..      SUBS     r0,r1,r4
        0x00003a50:    f7fffd4d    ..M.    BL       clear_asc_bit ; 0x34ee
        0x00003a54:    1c64        d.      ADDS     r4,r4,#1
        0x00003a56:    2c04        .,      CMP      r4,#4
        0x00003a58:    d9e9        ..      BLS      0x3a2e ; set_VDDD_LDO_voltage + 8
        0x00003a5a:    2405        .$      MOVS     r4,#5
        0x00003a5c:    e013        ..      B        0x3a86 ; set_VDDD_LDO_voltage + 96
        0x00003a5e:    4628        (F      MOV      r0,r5
        0x00003a60:    4120         A      ASRS     r0,r0,r4
        0x00003a62:    07c0        ..      LSLS     r0,r0,#31
        0x00003a64:    0fc0        ..      LSRS     r0,r0,#31
        0x00003a66:    2800        .(      CMP      r0,#0
        0x00003a68:    d006        ..      BEQ      0x3a78 ; set_VDDD_LDO_voltage + 82
        0x00003a6a:    2103        .!      MOVS     r1,#3
        0x00003a6c:    0209        ..      LSLS     r1,r1,#8
        0x00003a6e:    311d        .1      ADDS     r1,r1,#0x1d
        0x00003a70:    1b08        ..      SUBS     r0,r1,r4
        0x00003a72:    f7fffd3c    ..<.    BL       clear_asc_bit ; 0x34ee
        0x00003a76:    e005        ..      B        0x3a84 ; set_VDDD_LDO_voltage + 94
        0x00003a78:    2103        .!      MOVS     r1,#3
        0x00003a7a:    0209        ..      LSLS     r1,r1,#8
        0x00003a7c:    311d        .1      ADDS     r1,r1,#0x1d
        0x00003a7e:    1b08        ..      SUBS     r0,r1,r4
        0x00003a80:    f7fffd51    ..Q.    BL       set_asc_bit ; 0x3526
        0x00003a84:    1c64        d.      ADDS     r4,r4,#1
        0x00003a86:    2c06        .,      CMP      r4,#6
        0x00003a88:    d9e9        ..      BLS      0x3a5e ; set_VDDD_LDO_voltage + 56
        0x00003a8a:    bd30        0.      POP      {r4,r5,pc}
    set_AUX_LDO_voltage
        0x00003a8c:    b530        0.      PUSH     {r4,r5,lr}
        0x00003a8e:    4605        .F      MOV      r5,r0
        0x00003a90:    2400        .$      MOVS     r4,#0
        0x00003a92:    e013        ..      B        0x3abc ; set_AUX_LDO_voltage + 48
        0x00003a94:    4628        (F      MOV      r0,r5
        0x00003a96:    4120         A      ASRS     r0,r0,r4
        0x00003a98:    07c0        ..      LSLS     r0,r0,#31
        0x00003a9a:    0fc0        ..      LSRS     r0,r0,#31
        0x00003a9c:    2800        .(      CMP      r0,#0
        0x00003a9e:    d006        ..      BEQ      0x3aae ; set_AUX_LDO_voltage + 34
        0x00003aa0:    2103        .!      MOVS     r1,#3
        0x00003aa2:    0209        ..      LSLS     r1,r1,#8
        0x00003aa4:    3195        .1      ADDS     r1,r1,#0x95
        0x00003aa6:    1860        `.      ADDS     r0,r4,r1
        0x00003aa8:    f7fffd3d    ..=.    BL       set_asc_bit ; 0x3526
        0x00003aac:    e005        ..      B        0x3aba ; set_AUX_LDO_voltage + 46
        0x00003aae:    2103        .!      MOVS     r1,#3
        0x00003ab0:    0209        ..      LSLS     r1,r1,#8
        0x00003ab2:    3195        .1      ADDS     r1,r1,#0x95
        0x00003ab4:    1860        `.      ADDS     r0,r4,r1
        0x00003ab6:    f7fffd1a    ....    BL       clear_asc_bit ; 0x34ee
        0x00003aba:    1c64        d.      ADDS     r4,r4,#1
        0x00003abc:    2c04        .,      CMP      r4,#4
        0x00003abe:    d9e9        ..      BLS      0x3a94 ; set_AUX_LDO_voltage + 8
        0x00003ac0:    2405        .$      MOVS     r4,#5
        0x00003ac2:    e013        ..      B        0x3aec ; set_AUX_LDO_voltage + 96
        0x00003ac4:    4628        (F      MOV      r0,r5
        0x00003ac6:    4120         A      ASRS     r0,r0,r4
        0x00003ac8:    07c0        ..      LSLS     r0,r0,#31
        0x00003aca:    0fc0        ..      LSRS     r0,r0,#31
        0x00003acc:    2800        .(      CMP      r0,#0
        0x00003ace:    d006        ..      BEQ      0x3ade ; set_AUX_LDO_voltage + 82
        0x00003ad0:    2103        .!      MOVS     r1,#3
        0x00003ad2:    0209        ..      LSLS     r1,r1,#8
        0x00003ad4:    3195        .1      ADDS     r1,r1,#0x95
        0x00003ad6:    1860        `.      ADDS     r0,r4,r1
        0x00003ad8:    f7fffd09    ....    BL       clear_asc_bit ; 0x34ee
        0x00003adc:    e005        ..      B        0x3aea ; set_AUX_LDO_voltage + 94
        0x00003ade:    2103        .!      MOVS     r1,#3
        0x00003ae0:    0209        ..      LSLS     r1,r1,#8
        0x00003ae2:    3195        .1      ADDS     r1,r1,#0x95
        0x00003ae4:    1860        `.      ADDS     r0,r4,r1
        0x00003ae6:    f7fffd1e    ....    BL       set_asc_bit ; 0x3526
        0x00003aea:    1c64        d.      ADDS     r4,r4,#1
        0x00003aec:    2c06        .,      CMP      r4,#6
        0x00003aee:    d9e9        ..      BLS      0x3ac4 ; set_AUX_LDO_voltage + 56
        0x00003af0:    bd30        0.      POP      {r4,r5,pc}
    set_ALWAYSON_LDO_voltage
        0x00003af2:    b530        0.      PUSH     {r4,r5,lr}
        0x00003af4:    4605        .F      MOV      r5,r0
        0x00003af6:    2400        .$      MOVS     r4,#0
        0x00003af8:    e013        ..      B        0x3b22 ; set_ALWAYSON_LDO_voltage + 48
        0x00003afa:    4628        (F      MOV      r0,r5
        0x00003afc:    4120         A      ASRS     r0,r0,r4
        0x00003afe:    07c0        ..      LSLS     r0,r0,#31
        0x00003b00:    0fc0        ..      LSRS     r0,r0,#31
        0x00003b02:    2800        .(      CMP      r0,#0
        0x00003b04:    d006        ..      BEQ      0x3b14 ; set_ALWAYSON_LDO_voltage + 34
        0x00003b06:    2103        .!      MOVS     r1,#3
        0x00003b08:    0209        ..      LSLS     r1,r1,#8
        0x00003b0a:    31a1        .1      ADDS     r1,r1,#0xa1
        0x00003b0c:    1b08        ..      SUBS     r0,r1,r4
        0x00003b0e:    f7fffd0a    ....    BL       set_asc_bit ; 0x3526
        0x00003b12:    e005        ..      B        0x3b20 ; set_ALWAYSON_LDO_voltage + 46
        0x00003b14:    2103        .!      MOVS     r1,#3
        0x00003b16:    0209        ..      LSLS     r1,r1,#8
        0x00003b18:    31a1        .1      ADDS     r1,r1,#0xa1
        0x00003b1a:    1b08        ..      SUBS     r0,r1,r4
        0x00003b1c:    f7fffce7    ....    BL       clear_asc_bit ; 0x34ee
        0x00003b20:    1c64        d.      ADDS     r4,r4,#1
        0x00003b22:    2c04        .,      CMP      r4,#4
        0x00003b24:    d9e9        ..      BLS      0x3afa ; set_ALWAYSON_LDO_voltage + 8
        0x00003b26:    06a8        ..      LSLS     r0,r5,#26
        0x00003b28:    0fc0        ..      LSRS     r0,r0,#31
        0x00003b2a:    2800        .(      CMP      r0,#0
        0x00003b2c:    d004        ..      BEQ      0x3b38 ; set_ALWAYSON_LDO_voltage + 70
        0x00003b2e:    20e7        .       MOVS     r0,#0xe7
        0x00003b30:    0080        ..      LSLS     r0,r0,#2
        0x00003b32:    f7fffcdc    ....    BL       clear_asc_bit ; 0x34ee
        0x00003b36:    e003        ..      B        0x3b40 ; set_ALWAYSON_LDO_voltage + 78
        0x00003b38:    20e7        .       MOVS     r0,#0xe7
        0x00003b3a:    0080        ..      LSLS     r0,r0,#2
        0x00003b3c:    f7fffcf3    ....    BL       set_asc_bit ; 0x3526
        0x00003b40:    0668        h.      LSLS     r0,r5,#25
        0x00003b42:    0fc0        ..      LSRS     r0,r0,#31
        0x00003b44:    2800        .(      CMP      r0,#0
        0x00003b46:    d005        ..      BEQ      0x3b54 ; set_ALWAYSON_LDO_voltage + 98
        0x00003b48:    2002        .       MOVS     r0,#2
        0x00003b4a:    0200        ..      LSLS     r0,r0,#8
        0x00003b4c:    302d        -0      ADDS     r0,r0,#0x2d
        0x00003b4e:    f7fffcce    ....    BL       clear_asc_bit ; 0x34ee
        0x00003b52:    e004        ..      B        0x3b5e ; set_ALWAYSON_LDO_voltage + 108
        0x00003b54:    2002        .       MOVS     r0,#2
        0x00003b56:    0200        ..      LSLS     r0,r0,#8
        0x00003b58:    302d        -0      ADDS     r0,r0,#0x2d
        0x00003b5a:    f7fffce4    ....    BL       set_asc_bit ; 0x3526
        0x00003b5e:    bd30        0.      POP      {r4,r5,pc}
    set_zcc_demod_threshold
        0x00003b60:    b530        0.      PUSH     {r4,r5,lr}
        0x00003b62:    4605        .F      MOV      r5,r0
        0x00003b64:    2400        .$      MOVS     r4,#0
        0x00003b66:    e00f        ..      B        0x3b88 ; set_zcc_demod_threshold + 40
        0x00003b68:    4628        (F      MOV      r0,r5
        0x00003b6a:    40e0        .@      LSRS     r0,r0,r4
        0x00003b6c:    07c0        ..      LSLS     r0,r0,#31
        0x00003b6e:    0fc0        ..      LSRS     r0,r0,#31
        0x00003b70:    2800        .(      CMP      r0,#0
        0x00003b72:    d004        ..      BEQ      0x3b7e ; set_zcc_demod_threshold + 30
        0x00003b74:    4620         F      MOV      r0,r4
        0x00003b76:    306b        k0      ADDS     r0,r0,#0x6b
        0x00003b78:    f7fffcd5    ....    BL       set_asc_bit ; 0x3526
        0x00003b7c:    e003        ..      B        0x3b86 ; set_zcc_demod_threshold + 38
        0x00003b7e:    4620         F      MOV      r0,r4
        0x00003b80:    306b        k0      ADDS     r0,r0,#0x6b
        0x00003b82:    f7fffcb4    ....    BL       clear_asc_bit ; 0x34ee
        0x00003b86:    1c64        d.      ADDS     r4,r4,#1
        0x00003b88:    2c0f        .,      CMP      r4,#0xf
        0x00003b8a:    dded        ..      BLE      0x3b68 ; set_zcc_demod_threshold + 8
        0x00003b8c:    bd30        0.      POP      {r4,r5,pc}
    set_IF_ZCC_clkdiv
        0x00003b8e:    b530        0.      PUSH     {r4,r5,lr}
        0x00003b90:    4605        .F      MOV      r5,r0
        0x00003b92:    2400        .$      MOVS     r4,#0
        0x00003b94:    e00f        ..      B        0x3bb6 ; set_IF_ZCC_clkdiv + 40
        0x00003b96:    4628        (F      MOV      r0,r5
        0x00003b98:    40e0        .@      LSRS     r0,r0,r4
        0x00003b9a:    07c0        ..      LSLS     r0,r0,#31
        0x00003b9c:    0fc0        ..      LSRS     r0,r0,#31
        0x00003b9e:    2800        .(      CMP      r0,#0
        0x00003ba0:    d004        ..      BEQ      0x3bac ; set_IF_ZCC_clkdiv + 30
        0x00003ba2:    4620         F      MOV      r0,r4
        0x00003ba4:    307c        |0      ADDS     r0,r0,#0x7c
        0x00003ba6:    f7fffcbe    ....    BL       set_asc_bit ; 0x3526
        0x00003baa:    e003        ..      B        0x3bb4 ; set_IF_ZCC_clkdiv + 38
        0x00003bac:    4620         F      MOV      r0,r4
        0x00003bae:    307c        |0      ADDS     r0,r0,#0x7c
        0x00003bb0:    f7fffc9d    ....    BL       clear_asc_bit ; 0x34ee
        0x00003bb4:    1c64        d.      ADDS     r4,r4,#1
        0x00003bb6:    2c07        .,      CMP      r4,#7
        0x00003bb8:    dded        ..      BLE      0x3b96 ; set_IF_ZCC_clkdiv + 8
        0x00003bba:    bd30        0.      POP      {r4,r5,pc}
    set_IF_ZCC_early
        0x00003bbc:    b530        0.      PUSH     {r4,r5,lr}
        0x00003bbe:    4605        .F      MOV      r5,r0
        0x00003bc0:    2400        .$      MOVS     r4,#0
        0x00003bc2:    e00f        ..      B        0x3be4 ; set_IF_ZCC_early + 40
        0x00003bc4:    4628        (F      MOV      r0,r5
        0x00003bc6:    40e0        .@      LSRS     r0,r0,r4
        0x00003bc8:    07c0        ..      LSLS     r0,r0,#31
        0x00003bca:    0fc0        ..      LSRS     r0,r0,#31
        0x00003bcc:    2800        .(      CMP      r0,#0
        0x00003bce:    d004        ..      BEQ      0x3bda ; set_IF_ZCC_early + 30
        0x00003bd0:    4620         F      MOV      r0,r4
        0x00003bd2:    30d1        .0      ADDS     r0,r0,#0xd1
        0x00003bd4:    f7fffca7    ....    BL       set_asc_bit ; 0x3526
        0x00003bd8:    e003        ..      B        0x3be2 ; set_IF_ZCC_early + 38
        0x00003bda:    4620         F      MOV      r0,r4
        0x00003bdc:    30d1        .0      ADDS     r0,r0,#0xd1
        0x00003bde:    f7fffc86    ....    BL       clear_asc_bit ; 0x34ee
        0x00003be2:    1c64        d.      ADDS     r4,r4,#1
        0x00003be4:    2c0f        .,      CMP      r4,#0xf
        0x00003be6:    dded        ..      BLE      0x3bc4 ; set_IF_ZCC_early + 8
        0x00003be8:    bd30        0.      POP      {r4,r5,pc}
    set_IF_stg3gm_ASC
        0x00003bea:    b570        p.      PUSH     {r4-r6,lr}
        0x00003bec:    4605        .F      MOV      r5,r0
        0x00003bee:    460e        .F      MOV      r6,r1
        0x00003bf0:    2400        .$      MOVS     r4,#0
        0x00003bf2:    e00a        ..      B        0x3c0a ; set_IF_stg3gm_ASC + 32
        0x00003bf4:    4620         F      MOV      r0,r4
        0x00003bf6:    30ff        .0      ADDS     r0,r0,#0xff
        0x00003bf8:    30d9        .0      ADDS     r0,r0,#0xd9
        0x00003bfa:    f7fffc78    ..x.    BL       clear_asc_bit ; 0x34ee
        0x00003bfe:    4620         F      MOV      r0,r4
        0x00003c00:    30ff        .0      ADDS     r0,r0,#0xff
        0x00003c02:    3017        .0      ADDS     r0,r0,#0x17
        0x00003c04:    f7fffc73    ..s.    BL       clear_asc_bit ; 0x34ee
        0x00003c08:    1c64        d.      ADDS     r4,r4,#1
        0x00003c0a:    2c0d        .,      CMP      r4,#0xd
        0x00003c0c:    dbf2        ..      BLT      0x3bf4 ; set_IF_stg3gm_ASC + 10
        0x00003c0e:    2400        .$      MOVS     r4,#0
        0x00003c10:    e005        ..      B        0x3c1e ; set_IF_stg3gm_ASC + 52
        0x00003c12:    21ff        .!      MOVS     r1,#0xff
        0x00003c14:    31e5        .1      ADDS     r1,r1,#0xe5
        0x00003c16:    1b08        ..      SUBS     r0,r1,r4
        0x00003c18:    f7fffc85    ....    BL       set_asc_bit ; 0x3526
        0x00003c1c:    1c64        d.      ADDS     r4,r4,#1
        0x00003c1e:    42ac        .B      CMP      r4,r5
        0x00003c20:    d9f7        ..      BLS      0x3c12 ; set_IF_stg3gm_ASC + 40
        0x00003c22:    2400        .$      MOVS     r4,#0
        0x00003c24:    e005        ..      B        0x3c32 ; set_IF_stg3gm_ASC + 72
        0x00003c26:    4620         F      MOV      r0,r4
        0x00003c28:    30ff        .0      ADDS     r0,r0,#0xff
        0x00003c2a:    3017        .0      ADDS     r0,r0,#0x17
        0x00003c2c:    f7fffc5f    .._.    BL       clear_asc_bit ; 0x34ee
        0x00003c30:    1c64        d.      ADDS     r4,r4,#1
        0x00003c32:    42b4        .B      CMP      r4,r6
        0x00003c34:    d9f7        ..      BLS      0x3c26 ; set_IF_stg3gm_ASC + 60
        0x00003c36:    bd70        p.      POP      {r4-r6,pc}
    set_IF_comparator_trim_I
        0x00003c38:    b570        p.      PUSH     {r4-r6,lr}
        0x00003c3a:    4605        .F      MOV      r5,r0
        0x00003c3c:    460e        .F      MOV      r6,r1
        0x00003c3e:    2400        .$      MOVS     r4,#0
        0x00003c40:    e011        ..      B        0x3c66 ; set_IF_comparator_trim_I + 46
        0x00003c42:    4630        0F      MOV      r0,r6
        0x00003c44:    40e0        .@      LSRS     r0,r0,r4
        0x00003c46:    07c0        ..      LSLS     r0,r0,#31
        0x00003c48:    0fc0        ..      LSRS     r0,r0,#31
        0x00003c4a:    2800        .(      CMP      r0,#0
        0x00003c4c:    d005        ..      BEQ      0x3c5a ; set_IF_comparator_trim_I + 34
        0x00003c4e:    4620         F      MOV      r0,r4
        0x00003c50:    30ff        .0      ADDS     r0,r0,#0xff
        0x00003c52:    30c5        .0      ADDS     r0,r0,#0xc5
        0x00003c54:    f7fffc67    ..g.    BL       set_asc_bit ; 0x3526
        0x00003c58:    e004        ..      B        0x3c64 ; set_IF_comparator_trim_I + 44
        0x00003c5a:    4620         F      MOV      r0,r4
        0x00003c5c:    30ff        .0      ADDS     r0,r0,#0xff
        0x00003c5e:    30c5        .0      ADDS     r0,r0,#0xc5
        0x00003c60:    f7fffc45    ..E.    BL       clear_asc_bit ; 0x34ee
        0x00003c64:    1c64        d.      ADDS     r4,r4,#1
        0x00003c66:    2c04        .,      CMP      r4,#4
        0x00003c68:    ddeb        ..      BLE      0x3c42 ; set_IF_comparator_trim_I + 10
        0x00003c6a:    2400        .$      MOVS     r4,#0
        0x00003c6c:    e011        ..      B        0x3c92 ; set_IF_comparator_trim_I + 90
        0x00003c6e:    4628        (F      MOV      r0,r5
        0x00003c70:    40e0        .@      LSRS     r0,r0,r4
        0x00003c72:    07c0        ..      LSLS     r0,r0,#31
        0x00003c74:    0fc0        ..      LSRS     r0,r0,#31
        0x00003c76:    2800        .(      CMP      r0,#0
        0x00003c78:    d005        ..      BEQ      0x3c86 ; set_IF_comparator_trim_I + 78
        0x00003c7a:    4620         F      MOV      r0,r4
        0x00003c7c:    30ff        .0      ADDS     r0,r0,#0xff
        0x00003c7e:    30ca        .0      ADDS     r0,r0,#0xca
        0x00003c80:    f7fffc51    ..Q.    BL       set_asc_bit ; 0x3526
        0x00003c84:    e004        ..      B        0x3c90 ; set_IF_comparator_trim_I + 88
        0x00003c86:    4620         F      MOV      r0,r4
        0x00003c88:    30ff        .0      ADDS     r0,r0,#0xff
        0x00003c8a:    30ca        .0      ADDS     r0,r0,#0xca
        0x00003c8c:    f7fffc2f    ../.    BL       clear_asc_bit ; 0x34ee
        0x00003c90:    1c64        d.      ADDS     r4,r4,#1
        0x00003c92:    2c04        .,      CMP      r4,#4
        0x00003c94:    ddeb        ..      BLE      0x3c6e ; set_IF_comparator_trim_I + 54
        0x00003c96:    bd70        p.      POP      {r4-r6,pc}
    set_IF_comparator_trim_Q
        0x00003c98:    b570        p.      PUSH     {r4-r6,lr}
        0x00003c9a:    4605        .F      MOV      r5,r0
        0x00003c9c:    460e        .F      MOV      r6,r1
        0x00003c9e:    2400        .$      MOVS     r4,#0
        0x00003ca0:    e011        ..      B        0x3cc6 ; set_IF_comparator_trim_Q + 46
        0x00003ca2:    4630        0F      MOV      r0,r6
        0x00003ca4:    40e0        .@      LSRS     r0,r0,r4
        0x00003ca6:    07c0        ..      LSLS     r0,r0,#31
        0x00003ca8:    0fc0        ..      LSRS     r0,r0,#31
        0x00003caa:    2800        .(      CMP      r0,#0
        0x00003cac:    d005        ..      BEQ      0x3cba ; set_IF_comparator_trim_Q + 34
        0x00003cae:    21ff        .!      MOVS     r1,#0xff
        0x00003cb0:    3159        Y1      ADDS     r1,r1,#0x59
        0x00003cb2:    1b08        ..      SUBS     r0,r1,r4
        0x00003cb4:    f7fffc37    ..7.    BL       set_asc_bit ; 0x3526
        0x00003cb8:    e004        ..      B        0x3cc4 ; set_IF_comparator_trim_Q + 44
        0x00003cba:    21ff        .!      MOVS     r1,#0xff
        0x00003cbc:    3159        Y1      ADDS     r1,r1,#0x59
        0x00003cbe:    1b08        ..      SUBS     r0,r1,r4
        0x00003cc0:    f7fffc15    ....    BL       clear_asc_bit ; 0x34ee
        0x00003cc4:    1c64        d.      ADDS     r4,r4,#1
        0x00003cc6:    2c04        .,      CMP      r4,#4
        0x00003cc8:    ddeb        ..      BLE      0x3ca2 ; set_IF_comparator_trim_Q + 10
        0x00003cca:    2400        .$      MOVS     r4,#0
        0x00003ccc:    e011        ..      B        0x3cf2 ; set_IF_comparator_trim_Q + 90
        0x00003cce:    4628        (F      MOV      r0,r5
        0x00003cd0:    40e0        .@      LSRS     r0,r0,r4
        0x00003cd2:    07c0        ..      LSLS     r0,r0,#31
        0x00003cd4:    0fc0        ..      LSRS     r0,r0,#31
        0x00003cd6:    2800        .(      CMP      r0,#0
        0x00003cd8:    d005        ..      BEQ      0x3ce6 ; set_IF_comparator_trim_Q + 78
        0x00003cda:    21ff        .!      MOVS     r1,#0xff
        0x00003cdc:    3154        T1      ADDS     r1,r1,#0x54
        0x00003cde:    1b08        ..      SUBS     r0,r1,r4
        0x00003ce0:    f7fffc21    ..!.    BL       set_asc_bit ; 0x3526
        0x00003ce4:    e004        ..      B        0x3cf0 ; set_IF_comparator_trim_Q + 88
        0x00003ce6:    21ff        .!      MOVS     r1,#0xff
        0x00003ce8:    3154        T1      ADDS     r1,r1,#0x54
        0x00003cea:    1b08        ..      SUBS     r0,r1,r4
        0x00003cec:    f7fffbff    ....    BL       clear_asc_bit ; 0x34ee
        0x00003cf0:    1c64        d.      ADDS     r4,r4,#1
        0x00003cf2:    2c04        .,      CMP      r4,#4
        0x00003cf4:    ddeb        ..      BLE      0x3cce ; set_IF_comparator_trim_Q + 54
        0x00003cf6:    bd70        p.      POP      {r4-r6,pc}
    set_IF_gain_ASC
        0x00003cf8:    b570        p.      PUSH     {r4-r6,lr}
        0x00003cfa:    4605        .F      MOV      r5,r0
        0x00003cfc:    460e        .F      MOV      r6,r1
        0x00003cfe:    2400        .$      MOVS     r4,#0
        0x00003d00:    e011        ..      B        0x3d26 ; set_IF_gain_ASC + 46
        0x00003d02:    4628        (F      MOV      r0,r5
        0x00003d04:    40e0        .@      LSRS     r0,r0,r4
        0x00003d06:    07c0        ..      LSLS     r0,r0,#31
        0x00003d08:    0fc0        ..      LSRS     r0,r0,#31
        0x00003d0a:    2800        .(      CMP      r0,#0
        0x00003d0c:    d005        ..      BEQ      0x3d1a ; set_IF_gain_ASC + 34
        0x00003d0e:    4620         F      MOV      r0,r4
        0x00003d10:    30ff        .0      ADDS     r0,r0,#0xff
        0x00003d12:    30e6        .0      ADDS     r0,r0,#0xe6
        0x00003d14:    f7fffc07    ....    BL       set_asc_bit ; 0x3526
        0x00003d18:    e004        ..      B        0x3d24 ; set_IF_gain_ASC + 44
        0x00003d1a:    4620         F      MOV      r0,r4
        0x00003d1c:    30ff        .0      ADDS     r0,r0,#0xff
        0x00003d1e:    30e6        .0      ADDS     r0,r0,#0xe6
        0x00003d20:    f7fffbe5    ....    BL       clear_asc_bit ; 0x34ee
        0x00003d24:    1c64        d.      ADDS     r4,r4,#1
        0x00003d26:    2c04        .,      CMP      r4,#4
        0x00003d28:    ddeb        ..      BLE      0x3d02 ; set_IF_gain_ASC + 10
        0x00003d2a:    2400        .$      MOVS     r4,#0
        0x00003d2c:    e011        ..      B        0x3d52 ; set_IF_gain_ASC + 90
        0x00003d2e:    4630        0F      MOV      r0,r6
        0x00003d30:    40e0        .@      LSRS     r0,r0,r4
        0x00003d32:    07c0        ..      LSLS     r0,r0,#31
        0x00003d34:    0fc0        ..      LSRS     r0,r0,#31
        0x00003d36:    2800        .(      CMP      r0,#0
        0x00003d38:    d005        ..      BEQ      0x3d46 ; set_IF_gain_ASC + 78
        0x00003d3a:    21ff        .!      MOVS     r1,#0xff
        0x00003d3c:    3116        .1      ADDS     r1,r1,#0x16
        0x00003d3e:    1b08        ..      SUBS     r0,r1,r4
        0x00003d40:    f7fffbf1    ....    BL       set_asc_bit ; 0x3526
        0x00003d44:    e004        ..      B        0x3d50 ; set_IF_gain_ASC + 88
        0x00003d46:    21ff        .!      MOVS     r1,#0xff
        0x00003d48:    3116        .1      ADDS     r1,r1,#0x16
        0x00003d4a:    1b08        ..      SUBS     r0,r1,r4
        0x00003d4c:    f7fffbcf    ....    BL       clear_asc_bit ; 0x34ee
        0x00003d50:    1c64        d.      ADDS     r4,r4,#1
        0x00003d52:    2c05        .,      CMP      r4,#5
        0x00003d54:    ddeb        ..      BLE      0x3d2e ; set_IF_gain_ASC + 54
        0x00003d56:    bd70        p.      POP      {r4-r6,pc}
    radio_init_rx_MF
        0x00003d58:    b5f8        ..      PUSH     {r3-r7,lr}
        0x00003d5a:    24ff        .$      MOVS     r4,#0xff
        0x00003d5c:    0224        $.      LSLS     r4,r4,#8
        0x00003d5e:    34fc        .4      ADDS     r4,r4,#0xfc
        0x00003d60:    0424        $.      LSLS     r4,r4,#16
        0x00003d62:    0d65        e.      LSRS     r5,r4,#21
        0x00003d64:    2020                MOVS     r0,#0x20
        0x00003d66:    0200        ..      LSLS     r0,r0,#8
        0x00003d68:    3000        .0      ADDS     r0,#0
        0x00003d6a:    0200        ..      LSLS     r0,r0,#8
        0x00003d6c:    3006        .0      ADDS     r0,#6
        0x00003d6e:    0200        ..      LSLS     r0,r0,#8
        0x00003d70:    307c        |0      ADDS     r0,r0,#0x7c
        0x00003d72:    6a00        .j      LDR      r0,[r0,#0x20]
        0x00003d74:    4020         @      ANDS     r0,r0,r4
        0x00003d76:    2120         !      MOVS     r1,#0x20
        0x00003d78:    0209        ..      LSLS     r1,r1,#8
        0x00003d7a:    3100        .1      ADDS     r1,#0
        0x00003d7c:    0209        ..      LSLS     r1,r1,#8
        0x00003d7e:    3106        .1      ADDS     r1,#6
        0x00003d80:    0209        ..      LSLS     r1,r1,#8
        0x00003d82:    317c        |1      ADDS     r1,r1,#0x7c
        0x00003d84:    6208        .b      STR      r0,[r1,#0x20]
        0x00003d86:    4608        .F      MOV      r0,r1
        0x00003d88:    6bc0        .k      LDR      r0,[r0,#0x3c]
        0x00003d8a:    4028        (@      ANDS     r0,r0,r5
        0x00003d8c:    63c8        .c      STR      r0,[r1,#0x3c]
        0x00003d8e:    4608        .F      MOV      r0,r1
        0x00003d90:    6a00        .j      LDR      r0,[r0,#0x20]
        0x00003d92:    2140        @!      MOVS     r1,#0x40
        0x00003d94:    0209        ..      LSLS     r1,r1,#8
        0x00003d96:    3150        P1      ADDS     r1,r1,#0x50
        0x00003d98:    0209        ..      LSLS     r1,r1,#8
        0x00003d9a:    31ff        .1      ADDS     r1,r1,#0xff
        0x00003d9c:    0209        ..      LSLS     r1,r1,#8
        0x00003d9e:    31e0        .1      ADDS     r1,r1,#0xe0
        0x00003da0:    43a1        .C      BICS     r1,r1,r4
        0x00003da2:    4308        .C      ORRS     r0,r0,r1
        0x00003da4:    2120         !      MOVS     r1,#0x20
        0x00003da6:    0209        ..      LSLS     r1,r1,#8
        0x00003da8:    3100        .1      ADDS     r1,#0
        0x00003daa:    0209        ..      LSLS     r1,r1,#8
        0x00003dac:    3106        .1      ADDS     r1,#6
        0x00003dae:    0209        ..      LSLS     r1,r1,#8
        0x00003db0:    317c        |1      ADDS     r1,r1,#0x7c
        0x00003db2:    6208        .b      STR      r0,[r1,#0x20]
        0x00003db4:    2042        B       MOVS     r0,#0x42
        0x00003db6:    0200        ..      LSLS     r0,r0,#8
        0x00003db8:    3021        !0      ADDS     r0,r0,#0x21
        0x00003dba:    0200        ..      LSLS     r0,r0,#8
        0x00003dbc:    3088        .0      ADDS     r0,r0,#0x88
        0x00003dbe:    6248        Hb      STR      r0,[r1,#0x24]
        0x00003dc0:    2088        .       MOVS     r0,#0x88
        0x00003dc2:    0200        ..      LSLS     r0,r0,#8
        0x00003dc4:    3004        .0      ADDS     r0,#4
        0x00003dc6:    0400        ..      LSLS     r0,r0,#16
        0x00003dc8:    3031        10      ADDS     r0,r0,#0x31
        0x00003dca:    6288        .b      STR      r0,[r1,#0x28]
        0x00003dcc:    2011        .       MOVS     r0,#0x11
        0x00003dce:    0200        ..      LSLS     r0,r0,#8
        0x00003dd0:    303b        ;0      ADDS     r0,r0,#0x3b
        0x00003dd2:    0200        ..      LSLS     r0,r0,#8
        0x00003dd4:    3040        @0      ADDS     r0,r0,#0x40
        0x00003dd6:    0200        ..      LSLS     r0,r0,#8
        0x00003dd8:    3081        .0      ADDS     r0,r0,#0x81
        0x00003dda:    62c8        .b      STR      r0,[r1,#0x2c]
        0x00003ddc:    2002        .       MOVS     r0,#2
        0x00003dde:    0200        ..      LSLS     r0,r0,#8
        0x00003de0:    307e        ~0      ADDS     r0,r0,#0x7e
        0x00003de2:    0200        ..      LSLS     r0,r0,#8
        0x00003de4:    3081        .0      ADDS     r0,r0,#0x81
        0x00003de6:    0200        ..      LSLS     r0,r0,#8
        0x00003de8:    3002        .0      ADDS     r0,#2
        0x00003dea:    6308        .c      STR      r0,[r1,#0x30]
        0x00003dec:    2003        .       MOVS     r0,#3
        0x00003dee:    0200        ..      LSLS     r0,r0,#8
        0x00003df0:    30ed        .0      ADDS     r0,r0,#0xed
        0x00003df2:    0200        ..      LSLS     r0,r0,#8
        0x00003df4:    3048        H0      ADDS     r0,r0,#0x48
        0x00003df6:    0200        ..      LSLS     r0,r0,#8
        0x00003df8:    3044        D0      ADDS     r0,r0,#0x44
        0x00003dfa:    6348        Hc      STR      r0,[r1,#0x34]
        0x00003dfc:    2060        `       MOVS     r0,#0x60
        0x00003dfe:    0200        ..      LSLS     r0,r0,#8
        0x00003e00:    3001        .0      ADDS     r0,#1
        0x00003e02:    0400        ..      LSLS     r0,r0,#16
        0x00003e04:    6388        .c      STR      r0,[r1,#0x38]
        0x00003e06:    4608        .F      MOV      r0,r1
        0x00003e08:    6bc0        .k      LDR      r0,[r0,#0x3c]
        0x00003e0a:    21ff        .!      MOVS     r1,#0xff
        0x00003e0c:    0209        ..      LSLS     r1,r1,#8
        0x00003e0e:    31e0        .1      ADDS     r1,r1,#0xe0
        0x00003e10:    0209        ..      LSLS     r1,r1,#8
        0x00003e12:    312e        .1      ADDS     r1,r1,#0x2e
        0x00003e14:    0209        ..      LSLS     r1,r1,#8
        0x00003e16:    3103        .1      ADDS     r1,#3
        0x00003e18:    43a9        .C      BICS     r1,r1,r5
        0x00003e1a:    4308        .C      ORRS     r0,r0,r1
        0x00003e1c:    2120         !      MOVS     r1,#0x20
        0x00003e1e:    0209        ..      LSLS     r1,r1,#8
        0x00003e20:    3100        .1      ADDS     r1,#0
        0x00003e22:    0209        ..      LSLS     r1,r1,#8
        0x00003e24:    3106        .1      ADDS     r1,#6
        0x00003e26:    0209        ..      LSLS     r1,r1,#8
        0x00003e28:    317c        |1      ADDS     r1,r1,#0x7c
        0x00003e2a:    63c8        .c      STR      r0,[r1,#0x3c]
        0x00003e2c:    20ff        .       MOVS     r0,#0xff
        0x00003e2e:    30a9        .0      ADDS     r0,r0,#0xa9
        0x00003e30:    f7fffb5d    ..].    BL       clear_asc_bit ; 0x34ee
        0x00003e34:    20ff        .       MOVS     r0,#0xff
        0x00003e36:    30aa        .0      ADDS     r0,r0,#0xaa
        0x00003e38:    f7fffb75    ..u.    BL       set_asc_bit ; 0x3526
        0x00003e3c:    213f        ?!      MOVS     r1,#0x3f
        0x00003e3e:    4608        .F      MOV      r0,r1
        0x00003e40:    f7ffff5a    ..Z.    BL       set_IF_gain_ASC ; 0x3cf8
        0x00003e44:    2107        .!      MOVS     r1,#7
        0x00003e46:    4608        .F      MOV      r0,r1
        0x00003e48:    f7fffecf    ....    BL       set_IF_stg3gm_ASC ; 0x3bea
        0x00003e4c:    2100        .!      MOVS     r1,#0
        0x00003e4e:    4608        .F      MOV      r0,r1
        0x00003e50:    f7fffef2    ....    BL       set_IF_comparator_trim_I ; 0x3c38
        0x00003e54:    2100        .!      MOVS     r1,#0
        0x00003e56:    4608        .F      MOV      r0,r1
        0x00003e58:    f7ffff1e    ....    BL       set_IF_comparator_trim_Q ; 0x3c98
        0x00003e5c:    2000        .       MOVS     r0,#0
        0x00003e5e:    f7fffb46    ..F.    BL       clear_asc_bit ; 0x34ee
        0x00003e62:    2001        .       MOVS     r0,#1
        0x00003e64:    f7fffb43    ..C.    BL       clear_asc_bit ; 0x34ee
        0x00003e68:    2060        `       MOVS     r0,#0x60
        0x00003e6a:    f7fffb40    ..@.    BL       clear_asc_bit ; 0x34ee
        0x00003e6e:    20ff        .       MOVS     r0,#0xff
        0x00003e70:    3010        .0      ADDS     r0,r0,#0x10
        0x00003e72:    f7fffb3c    ..<.    BL       clear_asc_bit ; 0x34ee
        0x00003e76:    20ff        .       MOVS     r0,#0xff
        0x00003e78:    30ec        .0      ADDS     r0,r0,#0xec
        0x00003e7a:    f7fffb38    ..8.    BL       clear_asc_bit ; 0x34ee
        0x00003e7e:    2064        d       MOVS     r0,#0x64
        0x00003e80:    f7fffb35    ..5.    BL       clear_asc_bit ; 0x34ee
        0x00003e84:    2065        e       MOVS     r0,#0x65
        0x00003e86:    f7fffb32    ..2.    BL       clear_asc_bit ; 0x34ee
        0x00003e8a:    2066        f       MOVS     r0,#0x66
        0x00003e8c:    f7fffb2f    ../.    BL       clear_asc_bit ; 0x34ee
        0x00003e90:    2061        a       MOVS     r0,#0x61
        0x00003e92:    f7fffb48    ..H.    BL       set_asc_bit ; 0x3526
        0x00003e96:    2000        .       MOVS     r0,#0
        0x00003e98:    2152        R!      MOVS     r1,#0x52
        0x00003e9a:    0209        ..      LSLS     r1,r1,#8
        0x00003e9c:    3138        81      ADDS     r1,r1,#0x38
        0x00003e9e:    0409        ..      LSLS     r1,r1,#16
        0x00003ea0:    6008        .`      STR      r0,[r1,#0]
        0x00003ea2:    20a0        .       MOVS     r0,#0xa0
        0x00003ea4:    0200        ..      LSLS     r0,r0,#8
        0x00003ea6:    300f        .0      ADDS     r0,r0,#0xf
        0x00003ea8:    2152        R!      MOVS     r1,#0x52
        0x00003eaa:    0209        ..      LSLS     r1,r1,#8
        0x00003eac:    313c        <1      ADDS     r1,r1,#0x3c
        0x00003eae:    0409        ..      LSLS     r1,r1,#16
        0x00003eb0:    6008        .`      STR      r0,[r1,#0]
        0x00003eb2:    2067        g       MOVS     r0,#0x67
        0x00003eb4:    f7fffb37    ..7.    BL       set_asc_bit ; 0x3526
        0x00003eb8:    260b        .&      MOVS     r6,#0xb
        0x00003eba:    2702        .'      MOVS     r7,#2
        0x00003ebc:    02f0        ..      LSLS     r0,r6,#11
        0x00003ebe:    01f9        ..      LSLS     r1,r7,#7
        0x00003ec0:    4308        .C      ORRS     r0,r0,r1
        0x00003ec2:    2152        R!      MOVS     r1,#0x52
        0x00003ec4:    0209        ..      LSLS     r1,r1,#8
        0x00003ec6:    310c        .1      ADDS     r1,r1,#0xc
        0x00003ec8:    0409        ..      LSLS     r1,r1,#16
        0x00003eca:    6008        .`      STR      r0,[r1,#0]
        0x00003ecc:    2005        .       MOVS     r0,#5
        0x00003ece:    9000        ..      STR      r0,[sp,#0]
        0x00003ed0:    2152        R!      MOVS     r1,#0x52
        0x00003ed2:    0209        ..      LSLS     r1,r1,#8
        0x00003ed4:    3124        $1      ADDS     r1,r1,#0x24
        0x00003ed6:    0409        ..      LSLS     r1,r1,#16
        0x00003ed8:    9800        ..      LDR      r0,[sp,#0]
        0x00003eda:    6008        .`      STR      r0,[r1,#0]
        0x00003edc:    20ff        .       MOVS     r0,#0xff
        0x00003ede:    300e        .0      ADDS     r0,r0,#0xe
        0x00003ee0:    f7fffb05    ....    BL       clear_asc_bit ; 0x34ee
        0x00003ee4:    20ff        .       MOVS     r0,#0xff
        0x00003ee6:    300f        .0      ADDS     r0,r0,#0xf
        0x00003ee8:    f7fffb01    ....    BL       clear_asc_bit ; 0x34ee
        0x00003eec:    2000        .       MOVS     r0,#0
        0x00003eee:    f7fffd81    ....    BL       set_IF_LDO_voltage ; 0x39f4
        0x00003ef2:    20f0        .       MOVS     r0,#0xf0
        0x00003ef4:    f7fffb17    ....    BL       set_asc_bit ; 0x3526
        0x00003ef8:    205d        ]       MOVS     r0,#0x5d
        0x00003efa:    00c0        ..      LSLS     r0,r0,#3
        0x00003efc:    f7fffb13    ....    BL       set_asc_bit ; 0x3526
        0x00003f00:    2002        .       MOVS     r0,#2
        0x00003f02:    0200        ..      LSLS     r0,r0,#8
        0x00003f04:    30e9        .0      ADDS     r0,r0,#0xe9
        0x00003f06:    f7fffb0e    ....    BL       set_asc_bit ; 0x3526
        0x00003f0a:    2002        .       MOVS     r0,#2
        0x00003f0c:    0200        ..      LSLS     r0,r0,#8
        0x00003f0e:    30ea        .0      ADDS     r0,r0,#0xea
        0x00003f10:    f7fffb09    ....    BL       set_asc_bit ; 0x3526
        0x00003f14:    2001        .       MOVS     r0,#1
        0x00003f16:    2152        R!      MOVS     r1,#0x52
        0x00003f18:    0209        ..      LSLS     r1,r1,#8
        0x00003f1a:    3140        @1      ADDS     r1,r1,#0x40
        0x00003f1c:    0409        ..      LSLS     r1,r1,#16
        0x00003f1e:    6008        .`      STR      r0,[r1,#0]
        0x00003f20:    bdf8        ..      POP      {r3-r7,pc}
    radio_init_rx_ZCC
        0x00003f22:    b570        p.      PUSH     {r4-r6,lr}
        0x00003f24:    24ff        .$      MOVS     r4,#0xff
        0x00003f26:    0224        $.      LSLS     r4,r4,#8
        0x00003f28:    34fe        .4      ADDS     r4,r4,#0xfe
        0x00003f2a:    0424        $.      LSLS     r4,r4,#16
        0x00003f2c:    0d65        e.      LSRS     r5,r4,#21
        0x00003f2e:    2020                MOVS     r0,#0x20
        0x00003f30:    0200        ..      LSLS     r0,r0,#8
        0x00003f32:    3000        .0      ADDS     r0,#0
        0x00003f34:    0200        ..      LSLS     r0,r0,#8
        0x00003f36:    3006        .0      ADDS     r0,#6
        0x00003f38:    0200        ..      LSLS     r0,r0,#8
        0x00003f3a:    307c        |0      ADDS     r0,r0,#0x7c
        0x00003f3c:    6a00        .j      LDR      r0,[r0,#0x20]
        0x00003f3e:    4020         @      ANDS     r0,r0,r4
        0x00003f40:    2120         !      MOVS     r1,#0x20
        0x00003f42:    0209        ..      LSLS     r1,r1,#8
        0x00003f44:    3100        .1      ADDS     r1,#0
        0x00003f46:    0209        ..      LSLS     r1,r1,#8
        0x00003f48:    3106        .1      ADDS     r1,#6
        0x00003f4a:    0209        ..      LSLS     r1,r1,#8
        0x00003f4c:    317c        |1      ADDS     r1,r1,#0x7c
        0x00003f4e:    6208        .b      STR      r0,[r1,#0x20]
        0x00003f50:    4608        .F      MOV      r0,r1
        0x00003f52:    6bc0        .k      LDR      r0,[r0,#0x3c]
        0x00003f54:    4028        (@      ANDS     r0,r0,r5
        0x00003f56:    63c8        .c      STR      r0,[r1,#0x3c]
        0x00003f58:    4608        .F      MOV      r0,r1
        0x00003f5a:    6a00        .j      LDR      r0,[r0,#0x20]
        0x00003f5c:    21ff        .!      MOVS     r1,#0xff
        0x00003f5e:    0209        ..      LSLS     r1,r1,#8
        0x00003f60:    31f0        .1      ADDS     r1,r1,#0xf0
        0x00003f62:    43a1        .C      BICS     r1,r1,r4
        0x00003f64:    4308        .C      ORRS     r0,r0,r1
        0x00003f66:    2120         !      MOVS     r1,#0x20
        0x00003f68:    0209        ..      LSLS     r1,r1,#8
        0x00003f6a:    3100        .1      ADDS     r1,#0
        0x00003f6c:    0209        ..      LSLS     r1,r1,#8
        0x00003f6e:    3106        .1      ADDS     r1,#6
        0x00003f70:    0209        ..      LSLS     r1,r1,#8
        0x00003f72:    317c        |1      ADDS     r1,r1,#0x7c
        0x00003f74:    6208        .b      STR      r0,[r1,#0x20]
        0x00003f76:    2042        B       MOVS     r0,#0x42
        0x00003f78:    0200        ..      LSLS     r0,r0,#8
        0x00003f7a:    3021        !0      ADDS     r0,r0,#0x21
        0x00003f7c:    0200        ..      LSLS     r0,r0,#8
        0x00003f7e:    3088        .0      ADDS     r0,r0,#0x88
        0x00003f80:    6248        Hb      STR      r0,[r1,#0x24]
        0x00003f82:    2088        .       MOVS     r0,#0x88
        0x00003f84:    0200        ..      LSLS     r0,r0,#8
        0x00003f86:    3004        .0      ADDS     r0,#4
        0x00003f88:    0400        ..      LSLS     r0,r0,#16
        0x00003f8a:    3071        q0      ADDS     r0,r0,#0x71
        0x00003f8c:    6288        .b      STR      r0,[r1,#0x28]
        0x00003f8e:    2010        .       MOVS     r0,#0x10
        0x00003f90:    0200        ..      LSLS     r0,r0,#8
        0x00003f92:    300c        .0      ADDS     r0,r0,#0xc
        0x00003f94:    0200        ..      LSLS     r0,r0,#8
        0x00003f96:    3040        @0      ADDS     r0,r0,#0x40
        0x00003f98:    0200        ..      LSLS     r0,r0,#8
        0x00003f9a:    3081        .0      ADDS     r0,r0,#0x81
        0x00003f9c:    62c8        .b      STR      r0,[r1,#0x2c]
        0x00003f9e:    2018        .       MOVS     r0,#0x18
        0x00003fa0:    0200        ..      LSLS     r0,r0,#8
        0x00003fa2:    3081        .0      ADDS     r0,r0,#0x81
        0x00003fa4:    0200        ..      LSLS     r0,r0,#8
        0x00003fa6:    3002        .0      ADDS     r0,#2
        0x00003fa8:    6308        .c      STR      r0,[r1,#0x30]
        0x00003faa:    2001        .       MOVS     r0,#1
        0x00003fac:    0200        ..      LSLS     r0,r0,#8
        0x00003fae:    307f        .0      ADDS     r0,r0,#0x7f
        0x00003fb0:    0200        ..      LSLS     r0,r0,#8
        0x00003fb2:    30c8        .0      ADDS     r0,r0,#0xc8
        0x00003fb4:    0200        ..      LSLS     r0,r0,#8
        0x00003fb6:    3044        D0      ADDS     r0,r0,#0x44
        0x00003fb8:    6348        Hc      STR      r0,[r1,#0x34]
        0x00003fba:    2070        p       MOVS     r0,#0x70
        0x00003fbc:    0200        ..      LSLS     r0,r0,#8
        0x00003fbe:    3001        .0      ADDS     r0,#1
        0x00003fc0:    0400        ..      LSLS     r0,r0,#16
        0x00003fc2:    3001        .0      ADDS     r0,#1
        0x00003fc4:    6388        .c      STR      r0,[r1,#0x38]
        0x00003fc6:    4608        .F      MOV      r0,r1
        0x00003fc8:    6bc0        .k      LDR      r0,[r0,#0x3c]
        0x00003fca:    21ff        .!      MOVS     r1,#0xff
        0x00003fcc:    0209        ..      LSLS     r1,r1,#8
        0x00003fce:    31e0        .1      ADDS     r1,r1,#0xe0
        0x00003fd0:    0209        ..      LSLS     r1,r1,#8
        0x00003fd2:    3108        .1      ADDS     r1,r1,#8
        0x00003fd4:    0209        ..      LSLS     r1,r1,#8
        0x00003fd6:    43a9        .C      BICS     r1,r1,r5
        0x00003fd8:    4308        .C      ORRS     r0,r0,r1
        0x00003fda:    2120         !      MOVS     r1,#0x20
        0x00003fdc:    0209        ..      LSLS     r1,r1,#8
        0x00003fde:    3100        .1      ADDS     r1,#0
        0x00003fe0:    0209        ..      LSLS     r1,r1,#8
        0x00003fe2:    3106        .1      ADDS     r1,#6
        0x00003fe4:    0209        ..      LSLS     r1,r1,#8
        0x00003fe6:    317c        |1      ADDS     r1,r1,#0x7c
        0x00003fe8:    63c8        .c      STR      r0,[r1,#0x3c]
        0x00003fea:    2000        .       MOVS     r0,#0
        0x00003fec:    f7fffa9b    ....    BL       set_asc_bit ; 0x3526
        0x00003ff0:    2001        .       MOVS     r0,#1
        0x00003ff2:    f7fffa98    ....    BL       set_asc_bit ; 0x3526
        0x00003ff6:    200d        .       MOVS     r0,#0xd
        0x00003ff8:    f7fffdb2    ....    BL       set_zcc_demod_threshold ; 0x3b60
        0x00003ffc:    2026        &       MOVS     r0,#0x26
        0x00003ffe:    f7fffdc6    ....    BL       set_IF_ZCC_clkdiv ; 0x3b8e
        0x00004002:    2050        P       MOVS     r0,#0x50
        0x00004004:    f7fffdda    ....    BL       set_IF_ZCC_early ; 0x3bbc
        0x00004008:    20ee        .       MOVS     r0,#0xee
        0x0000400a:    f7fffa8c    ....    BL       set_asc_bit ; 0x3526
        0x0000400e:    20ef        .       MOVS     r0,#0xef
        0x00004010:    f7fffa89    ....    BL       set_asc_bit ; 0x3526
        0x00004014:    20ff        .       MOVS     r0,#0xff
        0x00004016:    300e        .0      ADDS     r0,r0,#0xe
        0x00004018:    f7fffa69    ..i.    BL       clear_asc_bit ; 0x34ee
        0x0000401c:    20ff        .       MOVS     r0,#0xff
        0x0000401e:    300f        .0      ADDS     r0,r0,#0xf
        0x00004020:    f7fffa65    ..e.    BL       clear_asc_bit ; 0x34ee
        0x00004024:    2084        .       MOVS     r0,#0x84
        0x00004026:    f7fffa7e    ..~.    BL       set_asc_bit ; 0x3526
        0x0000402a:    2605        .&      MOVS     r6,#5
        0x0000402c:    2052        R       MOVS     r0,#0x52
        0x0000402e:    0200        ..      LSLS     r0,r0,#8
        0x00004030:    3024        $0      ADDS     r0,r0,#0x24
        0x00004032:    0400        ..      LSLS     r0,r0,#16
        0x00004034:    6006        .`      STR      r6,[r0,#0]
        0x00004036:    210a        .!      MOVS     r1,#0xa
        0x00004038:    2000        .       MOVS     r0,#0
        0x0000403a:    f7fffdfd    ....    BL       set_IF_comparator_trim_I ; 0x3c38
        0x0000403e:    2000        .       MOVS     r0,#0
        0x00004040:    f7fffcd8    ....    BL       set_IF_LDO_voltage ; 0x39f4
        0x00004044:    20f0        .       MOVS     r0,#0xf0
        0x00004046:    f7fffa6e    ..n.    BL       set_asc_bit ; 0x3526
        0x0000404a:    2001        .       MOVS     r0,#1
        0x0000404c:    0340        @.      LSLS     r0,r0,#13
        0x0000404e:    2152        R!      MOVS     r1,#0x52
        0x00004050:    0209        ..      LSLS     r1,r1,#8
        0x00004052:    3110        .1      ADDS     r1,r1,#0x10
        0x00004054:    0409        ..      LSLS     r1,r1,#16
        0x00004056:    6008        .`      STR      r0,[r1,#0]
        0x00004058:    02f0        ..      LSLS     r0,r6,#11
        0x0000405a:    6008        .`      STR      r0,[r1,#0]
        0x0000405c:    bd70        p.      POP      {r4-r6,pc}
    set_LO_supply
        0x0000405e:    b510        ..      PUSH     {r4,lr}
        0x00004060:    460a        .F      MOV      r2,r1
        0x00004062:    237f        .#      MOVS     r3,#0x7f
        0x00004064:    4383        .C      BICS     r3,r3,r0
        0x00004066:    0159        Y.      LSLS     r1,r3,#5
        0x00004068:    2320         #      MOVS     r3,#0x20
        0x0000406a:    021b        ..      LSLS     r3,r3,#8
        0x0000406c:    3300        .3      ADDS     r3,#0
        0x0000406e:    021b        ..      LSLS     r3,r3,#8
        0x00004070:    3306        .3      ADDS     r3,#6
        0x00004072:    021b        ..      LSLS     r3,r3,#8
        0x00004074:    337c        |3      ADDS     r3,r3,#0x7c
        0x00004076:    6f9b        .o      LDR      r3,[r3,#0x78]
        0x00004078:    240f        .$      MOVS     r4,#0xf
        0x0000407a:    0224        $.      LSLS     r4,r4,#8
        0x0000407c:    34e8        .4      ADDS     r4,r4,#0xe8
        0x0000407e:    43a3        .C      BICS     r3,r3,r4
        0x00004080:    2420         $      MOVS     r4,#0x20
        0x00004082:    0224        $.      LSLS     r4,r4,#8
        0x00004084:    3400        .4      ADDS     r4,#0
        0x00004086:    0224        $.      LSLS     r4,r4,#8
        0x00004088:    3406        .4      ADDS     r4,#6
        0x0000408a:    0224        $.      LSLS     r4,r4,#8
        0x0000408c:    347c        |4      ADDS     r4,r4,#0x7c
        0x0000408e:    67a3        .g      STR      r3,[r4,#0x78]
        0x00004090:    4623        #F      MOV      r3,r4
        0x00004092:    6f9b        .o      LDR      r3,[r3,#0x78]
        0x00004094:    430b        .C      ORRS     r3,r3,r1
        0x00004096:    67a3        .g      STR      r3,[r4,#0x78]
        0x00004098:    bd10        ..      POP      {r4,pc}
    set_PA_supply
        0x0000409a:    227f        ."      MOVS     r2,#0x7f
        0x0000409c:    4382        .C      BICS     r2,r2,r0
        0x0000409e:    0351        Q.      LSLS     r1,r2,#13
        0x000040a0:    2220         "      MOVS     r2,#0x20
        0x000040a2:    0212        ..      LSLS     r2,r2,#8
        0x000040a4:    3200        .2      ADDS     r2,#0
        0x000040a6:    0212        ..      LSLS     r2,r2,#8
        0x000040a8:    3206        .2      ADDS     r2,#6
        0x000040aa:    0212        ..      LSLS     r2,r2,#8
        0x000040ac:    327c        |2      ADDS     r2,r2,#0x7c
        0x000040ae:    6f92        .o      LDR      r2,[r2,#0x78]
        0x000040b0:    237f        .#      MOVS     r3,#0x7f
        0x000040b2:    035b        [.      LSLS     r3,r3,#13
        0x000040b4:    439a        .C      BICS     r2,r2,r3
        0x000040b6:    2320         #      MOVS     r3,#0x20
        0x000040b8:    021b        ..      LSLS     r3,r3,#8
        0x000040ba:    3300        .3      ADDS     r3,#0
        0x000040bc:    021b        ..      LSLS     r3,r3,#8
        0x000040be:    3306        .3      ADDS     r3,#6
        0x000040c0:    021b        ..      LSLS     r3,r3,#8
        0x000040c2:    337c        |3      ADDS     r3,r3,#0x7c
        0x000040c4:    679a        .g      STR      r2,[r3,#0x78]
        0x000040c6:    461a        .F      MOV      r2,r3
        0x000040c8:    6f92        .o      LDR      r2,[r2,#0x78]
        0x000040ca:    430a        .C      ORRS     r2,r2,r1
        0x000040cc:    679a        .g      STR      r2,[r3,#0x78]
        0x000040ce:    4770        pG      BX       lr
    set_LC_current
        0x000040d0:    b510        ..      PUSH     {r4,lr}
        0x000040d2:    23f0        .#      MOVS     r3,#0xf0
        0x000040d4:    4003        .@      ANDS     r3,r3,r0
        0x000040d6:    0919        ..      LSRS     r1,r3,#4
        0x000040d8:    0702        ..      LSLS     r2,r0,#28
        0x000040da:    2320         #      MOVS     r3,#0x20
        0x000040dc:    021b        ..      LSLS     r3,r3,#8
        0x000040de:    3300        .3      ADDS     r3,#0
        0x000040e0:    021b        ..      LSLS     r3,r3,#8
        0x000040e2:    3306        .3      ADDS     r3,#6
        0x000040e4:    021b        ..      LSLS     r3,r3,#8
        0x000040e6:    337c        |3      ADDS     r3,r3,#0x7c
        0x000040e8:    6f9b        .o      LDR      r3,[r3,#0x78]
        0x000040ea:    091b        ..      LSRS     r3,r3,#4
        0x000040ec:    011b        ..      LSLS     r3,r3,#4
        0x000040ee:    2420         $      MOVS     r4,#0x20
        0x000040f0:    0224        $.      LSLS     r4,r4,#8
        0x000040f2:    3400        .4      ADDS     r4,#0
        0x000040f4:    0224        $.      LSLS     r4,r4,#8
        0x000040f6:    3406        .4      ADDS     r4,#6
        0x000040f8:    0224        $.      LSLS     r4,r4,#8
        0x000040fa:    347c        |4      ADDS     r4,r4,#0x7c
        0x000040fc:    67a3        .g      STR      r3,[r4,#0x78]
        0x000040fe:    4623        #F      MOV      r3,r4
        0x00004100:    6f9b        .o      LDR      r3,[r3,#0x78]
        0x00004102:    430b        .C      ORRS     r3,r3,r1
        0x00004104:    67a3        .g      STR      r3,[r4,#0x78]
        0x00004106:    4623        #F      MOV      r3,r4
        0x00004108:    6fdb        .o      LDR      r3,[r3,#0x7c]
        0x0000410a:    011b        ..      LSLS     r3,r3,#4
        0x0000410c:    091b        ..      LSRS     r3,r3,#4
        0x0000410e:    67e3        .g      STR      r3,[r4,#0x7c]
        0x00004110:    4623        #F      MOV      r3,r4
        0x00004112:    6fdb        .o      LDR      r3,[r3,#0x7c]
        0x00004114:    4313        .C      ORRS     r3,r3,r2
        0x00004116:    67e3        .g      STR      r3,[r4,#0x7c]
        0x00004118:    bd10        ..      POP      {r4,pc}
    radio_init_tx
        0x0000411a:    b500        ..      PUSH     {lr}
        0x0000411c:    207d        }       MOVS     r0,#0x7d
        0x0000411e:    00c0        ..      LSLS     r0,r0,#3
        0x00004120:    f7fffa01    ....    BL       set_asc_bit ; 0x3526
        0x00004124:    2003        .       MOVS     r0,#3
        0x00004126:    0200        ..      LSLS     r0,r0,#8
        0x00004128:    30e9        .0      ADDS     r0,r0,#0xe9
        0x0000412a:    f7fff9fc    ....    BL       set_asc_bit ; 0x3526
        0x0000412e:    2003        .       MOVS     r0,#3
        0x00004130:    0200        ..      LSLS     r0,r0,#8
        0x00004132:    30ea        .0      ADDS     r0,r0,#0xea
        0x00004134:    f7fff9f7    ....    BL       set_asc_bit ; 0x3526
        0x00004138:    2003        .       MOVS     r0,#3
        0x0000413a:    0200        ..      LSLS     r0,r0,#8
        0x0000413c:    30eb        .0      ADDS     r0,r0,#0xeb
        0x0000413e:    f7fff9f2    ....    BL       set_asc_bit ; 0x3526
        0x00004142:    2080        .       MOVS     r0,#0x80
        0x00004144:    2152        R!      MOVS     r1,#0x52
        0x00004146:    0209        ..      LSLS     r1,r1,#8
        0x00004148:    312c        ,1      ADDS     r1,r1,#0x2c
        0x0000414a:    0409        ..      LSLS     r1,r1,#16
        0x0000414c:    6008        .`      STR      r0,[r1,#0]
        0x0000414e:    207f        .       MOVS     r0,#0x7f
        0x00004150:    f7ffffbe    ....    BL       set_LC_current ; 0x40d0
        0x00004154:    203f        ?       MOVS     r0,#0x3f
        0x00004156:    f7ffffa0    ....    BL       set_PA_supply ; 0x409a
        0x0000415a:    2100        .!      MOVS     r1,#0
        0x0000415c:    207f        .       MOVS     r0,#0x7f
        0x0000415e:    f7ffff7e    ..~.    BL       set_LO_supply ; 0x405e
        0x00004162:    bd00        ..      POP      {pc}
    divProgram
        0x00004164:    b570        p.      PUSH     {r4-r6,lr}
        0x00004166:    4603        .F      MOV      r3,r0
        0x00004168:    2400        .$      MOVS     r4,#0
        0x0000416a:    2000        .       MOVS     r0,#0
        0x0000416c:    2503        .%      MOVS     r5,#3
        0x0000416e:    02ad        ..      LSLS     r5,r5,#10
        0x00004170:    401d        .@      ANDS     r5,r5,r3
        0x00004172:    012c        ,.      LSLS     r4,r5,#4
        0x00004174:    250f        .%      MOVS     r5,#0xf
        0x00004176:    032d        -.      LSLS     r5,r5,#12
        0x00004178:    401d        .@      ANDS     r5,r5,r3
        0x0000417a:    0b2d        -.      LSRS     r5,r5,#12
        0x0000417c:    4328        (C      ORRS     r0,r0,r5
        0x0000417e:    253f        ?%      MOVS     r5,#0x3f
        0x00004180:    012d        -.      LSLS     r5,r5,#4
        0x00004182:    401d        .@      ANDS     r5,r5,r3
        0x00004184:    4328        (C      ORRS     r0,r0,r5
        0x00004186:    0295        ..      LSLS     r5,r2,#10
        0x00004188:    4328        (C      ORRS     r0,r0,r5
        0x0000418a:    02cd        ..      LSLS     r5,r1,#11
        0x0000418c:    4328        (C      ORRS     r0,r0,r5
        0x0000418e:    071d        ..      LSLS     r5,r3,#28
        0x00004190:    0c2d        -.      LSRS     r5,r5,#16
        0x00004192:    4328        (C      ORRS     r0,r0,r5
        0x00004194:    43e5        .C      MVNS     r5,r4
        0x00004196:    2652        R&      MOVS     r6,#0x52
        0x00004198:    0236        6.      LSLS     r6,r6,#8
        0x0000419a:    3614        .6      ADDS     r6,r6,#0x14
        0x0000419c:    0436        6.      LSLS     r6,r6,#16
        0x0000419e:    6035        5`      STR      r5,[r6,#0]
        0x000041a0:    43c5        .C      MVNS     r5,r0
        0x000041a2:    2652        R&      MOVS     r6,#0x52
        0x000041a4:    0236        6.      LSLS     r6,r6,#8
        0x000041a6:    3618        .6      ADDS     r6,r6,#0x18
        0x000041a8:    0436        6.      LSLS     r6,r6,#16
        0x000041aa:    6035        5`      STR      r5,[r6,#0]
        0x000041ac:    bd70        p.      POP      {r4-r6,pc}
    prescaler
        0x000041ae:    2800        .(      CMP      r0,#0
        0x000041b0:    d141        A.      BNE      0x4236 ; prescaler + 136
        0x000041b2:    2120         !      MOVS     r1,#0x20
        0x000041b4:    0209        ..      LSLS     r1,r1,#8
        0x000041b6:    3100        .1      ADDS     r1,#0
        0x000041b8:    0209        ..      LSLS     r1,r1,#8
        0x000041ba:    3106        .1      ADDS     r1,#6
        0x000041bc:    0209        ..      LSLS     r1,r1,#8
        0x000041be:    317c        |1      ADDS     r1,r1,#0x7c
        0x000041c0:    6fc9        .o      LDR      r1,[r1,#0x7c]
        0x000041c2:    2204        ."      MOVS     r2,#4
        0x000041c4:    4311        .C      ORRS     r1,r1,r2
        0x000041c6:    2220         "      MOVS     r2,#0x20
        0x000041c8:    0212        ..      LSLS     r2,r2,#8
        0x000041ca:    3200        .2      ADDS     r2,#0
        0x000041cc:    0212        ..      LSLS     r2,r2,#8
        0x000041ce:    3206        .2      ADDS     r2,#6
        0x000041d0:    0212        ..      LSLS     r2,r2,#8
        0x000041d2:    327c        |2      ADDS     r2,r2,#0x7c
        0x000041d4:    67d1        .g      STR      r1,[r2,#0x7c]
        0x000041d6:    4611        .F      MOV      r1,r2
        0x000041d8:    6fc9        .o      LDR      r1,[r1,#0x7c]
        0x000041da:    2202        ."      MOVS     r2,#2
        0x000041dc:    4391        .C      BICS     r1,r1,r2
        0x000041de:    2220         "      MOVS     r2,#0x20
        0x000041e0:    0212        ..      LSLS     r2,r2,#8
        0x000041e2:    3200        .2      ADDS     r2,#0
        0x000041e4:    0212        ..      LSLS     r2,r2,#8
        0x000041e6:    3206        .2      ADDS     r2,#6
        0x000041e8:    0212        ..      LSLS     r2,r2,#8
        0x000041ea:    327c        |2      ADDS     r2,r2,#0x7c
        0x000041ec:    67d1        .g      STR      r1,[r2,#0x7c]
        0x000041ee:    4611        .F      MOV      r1,r2
        0x000041f0:    3180        .1      ADDS     r1,r1,#0x80
        0x000041f2:    6809        .h      LDR      r1,[r1,#0]
        0x000041f4:    2201        ."      MOVS     r2,#1
        0x000041f6:    07d2        ..      LSLS     r2,r2,#31
        0x000041f8:    4311        .C      ORRS     r1,r1,r2
        0x000041fa:    2220         "      MOVS     r2,#0x20
        0x000041fc:    0212        ..      LSLS     r2,r2,#8
        0x000041fe:    3200        .2      ADDS     r2,#0
        0x00004200:    0212        ..      LSLS     r2,r2,#8
        0x00004202:    3206        .2      ADDS     r2,#6
        0x00004204:    0212        ..      LSLS     r2,r2,#8
        0x00004206:    32fc        .2      ADDS     r2,r2,#0xfc
        0x00004208:    6011        .`      STR      r1,[r2,#0]
        0x0000420a:    4611        .F      MOV      r1,r2
        0x0000420c:    3980        .9      SUBS     r1,r1,#0x80
        0x0000420e:    6fc9        .o      LDR      r1,[r1,#0x7c]
        0x00004210:    0849        I.      LSRS     r1,r1,#1
        0x00004212:    0049        I.      LSLS     r1,r1,#1
        0x00004214:    3a80        .:      SUBS     r2,r2,#0x80
        0x00004216:    67d1        .g      STR      r1,[r2,#0x7c]
        0x00004218:    4611        .F      MOV      r1,r2
        0x0000421a:    3180        .1      ADDS     r1,r1,#0x80
        0x0000421c:    6809        .h      LDR      r1,[r1,#0]
        0x0000421e:    2207        ."      MOVS     r2,#7
        0x00004220:    0712        ..      LSLS     r2,r2,#28
        0x00004222:    4311        .C      ORRS     r1,r1,r2
        0x00004224:    2220         "      MOVS     r2,#0x20
        0x00004226:    0212        ..      LSLS     r2,r2,#8
        0x00004228:    3200        .2      ADDS     r2,#0
        0x0000422a:    0212        ..      LSLS     r2,r2,#8
        0x0000422c:    3206        .2      ADDS     r2,#6
        0x0000422e:    0212        ..      LSLS     r2,r2,#8
        0x00004230:    32fc        .2      ADDS     r2,r2,#0xfc
        0x00004232:    6011        .`      STR      r1,[r2,#0]
        0x00004234:    e150        P.      B        0x44d8 ; prescaler + 810
        0x00004236:    2801        .(      CMP      r0,#1
        0x00004238:    d13f        ?.      BNE      0x42ba ; prescaler + 268
        0x0000423a:    2120         !      MOVS     r1,#0x20
        0x0000423c:    0209        ..      LSLS     r1,r1,#8
        0x0000423e:    3100        .1      ADDS     r1,#0
        0x00004240:    0209        ..      LSLS     r1,r1,#8
        0x00004242:    3106        .1      ADDS     r1,#6
        0x00004244:    0209        ..      LSLS     r1,r1,#8
        0x00004246:    317c        |1      ADDS     r1,r1,#0x7c
        0x00004248:    6fc9        .o      LDR      r1,[r1,#0x7c]
        0x0000424a:    2202        ."      MOVS     r2,#2
        0x0000424c:    4311        .C      ORRS     r1,r1,r2
        0x0000424e:    2220         "      MOVS     r2,#0x20
        0x00004250:    0212        ..      LSLS     r2,r2,#8
        0x00004252:    3200        .2      ADDS     r2,#0
        0x00004254:    0212        ..      LSLS     r2,r2,#8
        0x00004256:    3206        .2      ADDS     r2,#6
        0x00004258:    0212        ..      LSLS     r2,r2,#8
        0x0000425a:    327c        |2      ADDS     r2,r2,#0x7c
        0x0000425c:    67d1        .g      STR      r1,[r2,#0x7c]
        0x0000425e:    4611        .F      MOV      r1,r2
        0x00004260:    6fc9        .o      LDR      r1,[r1,#0x7c]
        0x00004262:    2204        ."      MOVS     r2,#4
        0x00004264:    4391        .C      BICS     r1,r1,r2
        0x00004266:    2220         "      MOVS     r2,#0x20
        0x00004268:    0212        ..      LSLS     r2,r2,#8
        0x0000426a:    3200        .2      ADDS     r2,#0
        0x0000426c:    0212        ..      LSLS     r2,r2,#8
        0x0000426e:    3206        .2      ADDS     r2,#6
        0x00004270:    0212        ..      LSLS     r2,r2,#8
        0x00004272:    327c        |2      ADDS     r2,r2,#0x7c
        0x00004274:    67d1        .g      STR      r1,[r2,#0x7c]
        0x00004276:    4611        .F      MOV      r1,r2
        0x00004278:    3180        .1      ADDS     r1,r1,#0x80
        0x0000427a:    6809        .h      LDR      r1,[r1,#0]
        0x0000427c:    07c2        ..      LSLS     r2,r0,#31
        0x0000427e:    4311        .C      ORRS     r1,r1,r2
        0x00004280:    2220         "      MOVS     r2,#0x20
        0x00004282:    0212        ..      LSLS     r2,r2,#8
        0x00004284:    3200        .2      ADDS     r2,#0
        0x00004286:    0212        ..      LSLS     r2,r2,#8
        0x00004288:    3206        .2      ADDS     r2,#6
        0x0000428a:    0212        ..      LSLS     r2,r2,#8
        0x0000428c:    32fc        .2      ADDS     r2,r2,#0xfc
        0x0000428e:    6011        .`      STR      r1,[r2,#0]
        0x00004290:    4611        .F      MOV      r1,r2
        0x00004292:    3980        .9      SUBS     r1,r1,#0x80
        0x00004294:    6fc9        .o      LDR      r1,[r1,#0x7c]
        0x00004296:    4381        .C      BICS     r1,r1,r0
        0x00004298:    3a80        .:      SUBS     r2,r2,#0x80
        0x0000429a:    67d1        .g      STR      r1,[r2,#0x7c]
        0x0000429c:    4611        .F      MOV      r1,r2
        0x0000429e:    3180        .1      ADDS     r1,r1,#0x80
        0x000042a0:    6809        .h      LDR      r1,[r1,#0]
        0x000042a2:    2207        ."      MOVS     r2,#7
        0x000042a4:    0712        ..      LSLS     r2,r2,#28
        0x000042a6:    4311        .C      ORRS     r1,r1,r2
        0x000042a8:    2220         "      MOVS     r2,#0x20
        0x000042aa:    0212        ..      LSLS     r2,r2,#8
        0x000042ac:    3200        .2      ADDS     r2,#0
        0x000042ae:    0212        ..      LSLS     r2,r2,#8
        0x000042b0:    3206        .2      ADDS     r2,#6
        0x000042b2:    0212        ..      LSLS     r2,r2,#8
        0x000042b4:    32fc        .2      ADDS     r2,r2,#0xfc
        0x000042b6:    6011        .`      STR      r1,[r2,#0]
        0x000042b8:    e10e        ..      B        0x44d8 ; prescaler + 810
        0x000042ba:    2802        .(      CMP      r0,#2
        0x000042bc:    d145        E.      BNE      0x434a ; prescaler + 412
        0x000042be:    2120         !      MOVS     r1,#0x20
        0x000042c0:    0209        ..      LSLS     r1,r1,#8
        0x000042c2:    3100        .1      ADDS     r1,#0
        0x000042c4:    0209        ..      LSLS     r1,r1,#8
        0x000042c6:    3106        .1      ADDS     r1,#6
        0x000042c8:    0209        ..      LSLS     r1,r1,#8
        0x000042ca:    317c        |1      ADDS     r1,r1,#0x7c
        0x000042cc:    6fc9        .o      LDR      r1,[r1,#0x7c]
        0x000042ce:    2204        ."      MOVS     r2,#4
        0x000042d0:    4311        .C      ORRS     r1,r1,r2
        0x000042d2:    2220         "      MOVS     r2,#0x20
        0x000042d4:    0212        ..      LSLS     r2,r2,#8
        0x000042d6:    3200        .2      ADDS     r2,#0
        0x000042d8:    0212        ..      LSLS     r2,r2,#8
        0x000042da:    3206        .2      ADDS     r2,#6
        0x000042dc:    0212        ..      LSLS     r2,r2,#8
        0x000042de:    327c        |2      ADDS     r2,r2,#0x7c
        0x000042e0:    67d1        .g      STR      r1,[r2,#0x7c]
        0x000042e2:    4611        .F      MOV      r1,r2
        0x000042e4:    6fc9        .o      LDR      r1,[r1,#0x7c]
        0x000042e6:    2202        ."      MOVS     r2,#2
        0x000042e8:    4391        .C      BICS     r1,r1,r2
        0x000042ea:    2220         "      MOVS     r2,#0x20
        0x000042ec:    0212        ..      LSLS     r2,r2,#8
        0x000042ee:    3200        .2      ADDS     r2,#0
        0x000042f0:    0212        ..      LSLS     r2,r2,#8
        0x000042f2:    3206        .2      ADDS     r2,#6
        0x000042f4:    0212        ..      LSLS     r2,r2,#8
        0x000042f6:    327c        |2      ADDS     r2,r2,#0x7c
        0x000042f8:    67d1        .g      STR      r1,[r2,#0x7c]
        0x000042fa:    4611        .F      MOV      r1,r2
        0x000042fc:    3180        .1      ADDS     r1,r1,#0x80
        0x000042fe:    6809        .h      LDR      r1,[r1,#0]
        0x00004300:    004a        J.      LSLS     r2,r1,#1
        0x00004302:    0852        R.      LSRS     r2,r2,#1
        0x00004304:    2120         !      MOVS     r1,#0x20
        0x00004306:    0209        ..      LSLS     r1,r1,#8
        0x00004308:    3100        .1      ADDS     r1,#0
        0x0000430a:    0209        ..      LSLS     r1,r1,#8
        0x0000430c:    3106        .1      ADDS     r1,#6
        0x0000430e:    0209        ..      LSLS     r1,r1,#8
        0x00004310:    31fc        .1      ADDS     r1,r1,#0xfc
        0x00004312:    600a        .`      STR      r2,[r1,#0]
        0x00004314:    3980        .9      SUBS     r1,r1,#0x80
        0x00004316:    6fc9        .o      LDR      r1,[r1,#0x7c]
        0x00004318:    2201        ."      MOVS     r2,#1
        0x0000431a:    4311        .C      ORRS     r1,r1,r2
        0x0000431c:    2220         "      MOVS     r2,#0x20
        0x0000431e:    0212        ..      LSLS     r2,r2,#8
        0x00004320:    3200        .2      ADDS     r2,#0
        0x00004322:    0212        ..      LSLS     r2,r2,#8
        0x00004324:    3206        .2      ADDS     r2,#6
        0x00004326:    0212        ..      LSLS     r2,r2,#8
        0x00004328:    327c        |2      ADDS     r2,r2,#0x7c
        0x0000432a:    67d1        .g      STR      r1,[r2,#0x7c]
        0x0000432c:    4611        .F      MOV      r1,r2
        0x0000432e:    3180        .1      ADDS     r1,r1,#0x80
        0x00004330:    6809        .h      LDR      r1,[r1,#0]
        0x00004332:    2207        ."      MOVS     r2,#7
        0x00004334:    0712        ..      LSLS     r2,r2,#28
        0x00004336:    4311        .C      ORRS     r1,r1,r2
        0x00004338:    2220         "      MOVS     r2,#0x20
        0x0000433a:    0212        ..      LSLS     r2,r2,#8
        0x0000433c:    3200        .2      ADDS     r2,#0
        0x0000433e:    0212        ..      LSLS     r2,r2,#8
        0x00004340:    3206        .2      ADDS     r2,#6
        0x00004342:    0212        ..      LSLS     r2,r2,#8
        0x00004344:    32fc        .2      ADDS     r2,r2,#0xfc
        0x00004346:    6011        .`      STR      r1,[r2,#0]
        0x00004348:    e0c6        ..      B        0x44d8 ; prescaler + 810
        0x0000434a:    2803        .(      CMP      r0,#3
        0x0000434c:    d140        @.      BNE      0x43d0 ; prescaler + 546
        0x0000434e:    2120         !      MOVS     r1,#0x20
        0x00004350:    0209        ..      LSLS     r1,r1,#8
        0x00004352:    3100        .1      ADDS     r1,#0
        0x00004354:    0209        ..      LSLS     r1,r1,#8
        0x00004356:    3106        .1      ADDS     r1,#6
        0x00004358:    0209        ..      LSLS     r1,r1,#8
        0x0000435a:    317c        |1      ADDS     r1,r1,#0x7c
        0x0000435c:    6fc9        .o      LDR      r1,[r1,#0x7c]
        0x0000435e:    2204        ."      MOVS     r2,#4
        0x00004360:    4311        .C      ORRS     r1,r1,r2
        0x00004362:    2220         "      MOVS     r2,#0x20
        0x00004364:    0212        ..      LSLS     r2,r2,#8
        0x00004366:    3200        .2      ADDS     r2,#0
        0x00004368:    0212        ..      LSLS     r2,r2,#8
        0x0000436a:    3206        .2      ADDS     r2,#6
        0x0000436c:    0212        ..      LSLS     r2,r2,#8
        0x0000436e:    327c        |2      ADDS     r2,r2,#0x7c
        0x00004370:    67d1        .g      STR      r1,[r2,#0x7c]
        0x00004372:    4611        .F      MOV      r1,r2
        0x00004374:    6fc9        .o      LDR      r1,[r1,#0x7c]
        0x00004376:    2202        ."      MOVS     r2,#2
        0x00004378:    4391        .C      BICS     r1,r1,r2
        0x0000437a:    2220         "      MOVS     r2,#0x20
        0x0000437c:    0212        ..      LSLS     r2,r2,#8
        0x0000437e:    3200        .2      ADDS     r2,#0
        0x00004380:    0212        ..      LSLS     r2,r2,#8
        0x00004382:    3206        .2      ADDS     r2,#6
        0x00004384:    0212        ..      LSLS     r2,r2,#8
        0x00004386:    327c        |2      ADDS     r2,r2,#0x7c
        0x00004388:    67d1        .g      STR      r1,[r2,#0x7c]
        0x0000438a:    4611        .F      MOV      r1,r2
        0x0000438c:    3180        .1      ADDS     r1,r1,#0x80
        0x0000438e:    6809        .h      LDR      r1,[r1,#0]
        0x00004390:    07c2        ..      LSLS     r2,r0,#31
        0x00004392:    4311        .C      ORRS     r1,r1,r2
        0x00004394:    2220         "      MOVS     r2,#0x20
        0x00004396:    0212        ..      LSLS     r2,r2,#8
        0x00004398:    3200        .2      ADDS     r2,#0
        0x0000439a:    0212        ..      LSLS     r2,r2,#8
        0x0000439c:    3206        .2      ADDS     r2,#6
        0x0000439e:    0212        ..      LSLS     r2,r2,#8
        0x000043a0:    32fc        .2      ADDS     r2,r2,#0xfc
        0x000043a2:    6011        .`      STR      r1,[r2,#0]
        0x000043a4:    4611        .F      MOV      r1,r2
        0x000043a6:    3980        .9      SUBS     r1,r1,#0x80
        0x000043a8:    6fc9        .o      LDR      r1,[r1,#0x7c]
        0x000043aa:    0849        I.      LSRS     r1,r1,#1
        0x000043ac:    0049        I.      LSLS     r1,r1,#1
        0x000043ae:    3a80        .:      SUBS     r2,r2,#0x80
        0x000043b0:    67d1        .g      STR      r1,[r2,#0x7c]
        0x000043b2:    4611        .F      MOV      r1,r2
        0x000043b4:    3180        .1      ADDS     r1,r1,#0x80
        0x000043b6:    6809        .h      LDR      r1,[r1,#0]
        0x000043b8:    2201        ."      MOVS     r2,#1
        0x000043ba:    0792        ..      LSLS     r2,r2,#30
        0x000043bc:    4391        .C      BICS     r1,r1,r2
        0x000043be:    2220         "      MOVS     r2,#0x20
        0x000043c0:    0212        ..      LSLS     r2,r2,#8
        0x000043c2:    3200        .2      ADDS     r2,#0
        0x000043c4:    0212        ..      LSLS     r2,r2,#8
        0x000043c6:    3206        .2      ADDS     r2,#6
        0x000043c8:    0212        ..      LSLS     r2,r2,#8
        0x000043ca:    32fc        .2      ADDS     r2,r2,#0xfc
        0x000043cc:    6011        .`      STR      r1,[r2,#0]
        0x000043ce:    e083        ..      B        0x44d8 ; prescaler + 810
        0x000043d0:    2804        .(      CMP      r0,#4
        0x000043d2:    d13f        ?.      BNE      0x4454 ; prescaler + 678
        0x000043d4:    2120         !      MOVS     r1,#0x20
        0x000043d6:    0209        ..      LSLS     r1,r1,#8
        0x000043d8:    3100        .1      ADDS     r1,#0
        0x000043da:    0209        ..      LSLS     r1,r1,#8
        0x000043dc:    3106        .1      ADDS     r1,#6
        0x000043de:    0209        ..      LSLS     r1,r1,#8
        0x000043e0:    317c        |1      ADDS     r1,r1,#0x7c
        0x000043e2:    6fc9        .o      LDR      r1,[r1,#0x7c]
        0x000043e4:    2204        ."      MOVS     r2,#4
        0x000043e6:    4311        .C      ORRS     r1,r1,r2
        0x000043e8:    2220         "      MOVS     r2,#0x20
        0x000043ea:    0212        ..      LSLS     r2,r2,#8
        0x000043ec:    3200        .2      ADDS     r2,#0
        0x000043ee:    0212        ..      LSLS     r2,r2,#8
        0x000043f0:    3206        .2      ADDS     r2,#6
        0x000043f2:    0212        ..      LSLS     r2,r2,#8
        0x000043f4:    327c        |2      ADDS     r2,r2,#0x7c
        0x000043f6:    67d1        .g      STR      r1,[r2,#0x7c]
        0x000043f8:    4611        .F      MOV      r1,r2
        0x000043fa:    6fc9        .o      LDR      r1,[r1,#0x7c]
        0x000043fc:    2202        ."      MOVS     r2,#2
        0x000043fe:    4391        .C      BICS     r1,r1,r2
        0x00004400:    2220         "      MOVS     r2,#0x20
        0x00004402:    0212        ..      LSLS     r2,r2,#8
        0x00004404:    3200        .2      ADDS     r2,#0
        0x00004406:    0212        ..      LSLS     r2,r2,#8
        0x00004408:    3206        .2      ADDS     r2,#6
        0x0000440a:    0212        ..      LSLS     r2,r2,#8
        0x0000440c:    327c        |2      ADDS     r2,r2,#0x7c
        0x0000440e:    67d1        .g      STR      r1,[r2,#0x7c]
        0x00004410:    4611        .F      MOV      r1,r2
        0x00004412:    3180        .1      ADDS     r1,r1,#0x80
        0x00004414:    6809        .h      LDR      r1,[r1,#0]
        0x00004416:    0742        B.      LSLS     r2,r0,#29
        0x00004418:    4311        .C      ORRS     r1,r1,r2
        0x0000441a:    2220         "      MOVS     r2,#0x20
        0x0000441c:    0212        ..      LSLS     r2,r2,#8
        0x0000441e:    3200        .2      ADDS     r2,#0
        0x00004420:    0212        ..      LSLS     r2,r2,#8
        0x00004422:    3206        .2      ADDS     r2,#6
        0x00004424:    0212        ..      LSLS     r2,r2,#8
        0x00004426:    32fc        .2      ADDS     r2,r2,#0xfc
        0x00004428:    6011        .`      STR      r1,[r2,#0]
        0x0000442a:    4611        .F      MOV      r1,r2
        0x0000442c:    3980        .9      SUBS     r1,r1,#0x80
        0x0000442e:    6fc9        .o      LDR      r1,[r1,#0x7c]
        0x00004430:    0849        I.      LSRS     r1,r1,#1
        0x00004432:    0049        I.      LSLS     r1,r1,#1
        0x00004434:    3a80        .:      SUBS     r2,r2,#0x80
        0x00004436:    67d1        .g      STR      r1,[r2,#0x7c]
        0x00004438:    4611        .F      MOV      r1,r2
        0x0000443a:    3180        .1      ADDS     r1,r1,#0x80
        0x0000443c:    6809        .h      LDR      r1,[r1,#0]
        0x0000443e:    06c2        ..      LSLS     r2,r0,#27
        0x00004440:    4391        .C      BICS     r1,r1,r2
        0x00004442:    2220         "      MOVS     r2,#0x20
        0x00004444:    0212        ..      LSLS     r2,r2,#8
        0x00004446:    3200        .2      ADDS     r2,#0
        0x00004448:    0212        ..      LSLS     r2,r2,#8
        0x0000444a:    3206        .2      ADDS     r2,#6
        0x0000444c:    0212        ..      LSLS     r2,r2,#8
        0x0000444e:    32fc        .2      ADDS     r2,r2,#0xfc
        0x00004450:    6011        .`      STR      r1,[r2,#0]
        0x00004452:    e041        A.      B        0x44d8 ; prescaler + 810
        0x00004454:    2805        .(      CMP      r0,#5
        0x00004456:    d13f        ?.      BNE      0x44d8 ; prescaler + 810
        0x00004458:    2120         !      MOVS     r1,#0x20
        0x0000445a:    0209        ..      LSLS     r1,r1,#8
        0x0000445c:    3100        .1      ADDS     r1,#0
        0x0000445e:    0209        ..      LSLS     r1,r1,#8
        0x00004460:    3106        .1      ADDS     r1,#6
        0x00004462:    0209        ..      LSLS     r1,r1,#8
        0x00004464:    317c        |1      ADDS     r1,r1,#0x7c
        0x00004466:    6fc9        .o      LDR      r1,[r1,#0x7c]
        0x00004468:    2204        ."      MOVS     r2,#4
        0x0000446a:    4311        .C      ORRS     r1,r1,r2
        0x0000446c:    2220         "      MOVS     r2,#0x20
        0x0000446e:    0212        ..      LSLS     r2,r2,#8
        0x00004470:    3200        .2      ADDS     r2,#0
        0x00004472:    0212        ..      LSLS     r2,r2,#8
        0x00004474:    3206        .2      ADDS     r2,#6
        0x00004476:    0212        ..      LSLS     r2,r2,#8
        0x00004478:    327c        |2      ADDS     r2,r2,#0x7c
        0x0000447a:    67d1        .g      STR      r1,[r2,#0x7c]
        0x0000447c:    4611        .F      MOV      r1,r2
        0x0000447e:    6fc9        .o      LDR      r1,[r1,#0x7c]
        0x00004480:    2202        ."      MOVS     r2,#2
        0x00004482:    4391        .C      BICS     r1,r1,r2
        0x00004484:    2220         "      MOVS     r2,#0x20
        0x00004486:    0212        ..      LSLS     r2,r2,#8
        0x00004488:    3200        .2      ADDS     r2,#0
        0x0000448a:    0212        ..      LSLS     r2,r2,#8
        0x0000448c:    3206        .2      ADDS     r2,#6
        0x0000448e:    0212        ..      LSLS     r2,r2,#8
        0x00004490:    327c        |2      ADDS     r2,r2,#0x7c
        0x00004492:    67d1        .g      STR      r1,[r2,#0x7c]
        0x00004494:    4611        .F      MOV      r1,r2
        0x00004496:    3180        .1      ADDS     r1,r1,#0x80
        0x00004498:    6809        .h      LDR      r1,[r1,#0]
        0x0000449a:    07c2        ..      LSLS     r2,r0,#31
        0x0000449c:    4311        .C      ORRS     r1,r1,r2
        0x0000449e:    2220         "      MOVS     r2,#0x20
        0x000044a0:    0212        ..      LSLS     r2,r2,#8
        0x000044a2:    3200        .2      ADDS     r2,#0
        0x000044a4:    0212        ..      LSLS     r2,r2,#8
        0x000044a6:    3206        .2      ADDS     r2,#6
        0x000044a8:    0212        ..      LSLS     r2,r2,#8
        0x000044aa:    32fc        .2      ADDS     r2,r2,#0xfc
        0x000044ac:    6011        .`      STR      r1,[r2,#0]
        0x000044ae:    4611        .F      MOV      r1,r2
        0x000044b0:    3980        .9      SUBS     r1,r1,#0x80
        0x000044b2:    6fc9        .o      LDR      r1,[r1,#0x7c]
        0x000044b4:    0849        I.      LSRS     r1,r1,#1
        0x000044b6:    0049        I.      LSLS     r1,r1,#1
        0x000044b8:    3a80        .:      SUBS     r2,r2,#0x80
        0x000044ba:    67d1        .g      STR      r1,[r2,#0x7c]
        0x000044bc:    4611        .F      MOV      r1,r2
        0x000044be:    3180        .1      ADDS     r1,r1,#0x80
        0x000044c0:    6809        .h      LDR      r1,[r1,#0]
        0x000044c2:    2203        ."      MOVS     r2,#3
        0x000044c4:    0752        R.      LSLS     r2,r2,#29
        0x000044c6:    4391        .C      BICS     r1,r1,r2
        0x000044c8:    2220         "      MOVS     r2,#0x20
        0x000044ca:    0212        ..      LSLS     r2,r2,#8
        0x000044cc:    3200        .2      ADDS     r2,#0
        0x000044ce:    0212        ..      LSLS     r2,r2,#8
        0x000044d0:    3206        .2      ADDS     r2,#6
        0x000044d2:    0212        ..      LSLS     r2,r2,#8
        0x000044d4:    32fc        .2      ADDS     r2,r2,#0xfc
        0x000044d6:    6011        .`      STR      r1,[r2,#0]
        0x000044d8:    4770        pG      BX       lr
    set_DIV_supply
        0x000044da:    b510        ..      PUSH     {r4,lr}
        0x000044dc:    460a        .F      MOV      r2,r1
        0x000044de:    237f        .#      MOVS     r3,#0x7f
        0x000044e0:    4383        .C      BICS     r3,r3,r0
        0x000044e2:    0159        Y.      LSLS     r1,r3,#5
        0x000044e4:    2320         #      MOVS     r3,#0x20
        0x000044e6:    021b        ..      LSLS     r3,r3,#8
        0x000044e8:    3300        .3      ADDS     r3,#0
        0x000044ea:    021b        ..      LSLS     r3,r3,#8
        0x000044ec:    3306        .3      ADDS     r3,#6
        0x000044ee:    021b        ..      LSLS     r3,r3,#8
        0x000044f0:    337c        |3      ADDS     r3,r3,#0x7c
        0x000044f2:    6f9b        .o      LDR      r3,[r3,#0x78]
        0x000044f4:    247f        .$      MOVS     r4,#0x7f
        0x000044f6:    0364        d.      LSLS     r4,r4,#13
        0x000044f8:    43a3        .C      BICS     r3,r3,r4
        0x000044fa:    2420         $      MOVS     r4,#0x20
        0x000044fc:    0224        $.      LSLS     r4,r4,#8
        0x000044fe:    3400        .4      ADDS     r4,#0
        0x00004500:    0224        $.      LSLS     r4,r4,#8
        0x00004502:    3406        .4      ADDS     r4,#6
        0x00004504:    0224        $.      LSLS     r4,r4,#8
        0x00004506:    347c        |4      ADDS     r4,r4,#0x7c
        0x00004508:    67a3        .g      STR      r3,[r4,#0x78]
        0x0000450a:    4623        #F      MOV      r3,r4
        0x0000450c:    6f9b        .o      LDR      r3,[r3,#0x78]
        0x0000450e:    430b        .C      ORRS     r3,r3,r1
        0x00004510:    67a3        .g      STR      r3,[r4,#0x78]
        0x00004512:    bd10        ..      POP      {r4,pc}
    radio_init_divider
        0x00004514:    b510        ..      PUSH     {r4,lr}
        0x00004516:    4604        .F      MOV      r4,r0
        0x00004518:    2100        .!      MOVS     r1,#0
        0x0000451a:    203f        ?       MOVS     r0,#0x3f
        0x0000451c:    f7ffffdd    ....    BL       set_DIV_supply ; 0x44da
        0x00004520:    2004        .       MOVS     r0,#4
        0x00004522:    f7fffe44    ..D.    BL       prescaler ; 0x41ae
        0x00004526:    2201        ."      MOVS     r2,#1
        0x00004528:    4611        .F      MOV      r1,r2
        0x0000452a:    20ff        .       MOVS     r0,#0xff
        0x0000452c:    30e1        .0      ADDS     r0,r0,#0xe1
        0x0000452e:    f7fffe19    ....    BL       divProgram ; 0x4164
        0x00004532:    20fd        .       MOVS     r0,#0xfd
        0x00004534:    0080        ..      LSLS     r0,r0,#2
        0x00004536:    f7fefff6    ....    BL       set_asc_bit ; 0x3526
        0x0000453a:    bd10        ..      POP      {r4,pc}
    read_counters_3B
        0x0000453c:    b570        p.      PUSH     {r4-r6,lr}
        0x0000453e:    4603        .F      MOV      r3,r0
        0x00004540:    460c        .F      MOV      r4,r1
        0x00004542:    257f        .%      MOVS     r5,#0x7f
        0x00004544:    2629        )&      MOVS     r6,#0x29
        0x00004546:    0676        v.      LSLS     r6,r6,#25
        0x00004548:    6035        5`      STR      r5,[r6,#0]
        0x0000454a:    2552        R%      MOVS     r5,#0x52
        0x0000454c:    022d        -.      LSLS     r5,r5,#8
        0x0000454e:    3518        .5      ADDS     r5,r5,#0x18
        0x00004550:    042d        -.      LSLS     r5,r5,#16
        0x00004552:    6828        (h      LDR      r0,[r5,#0]
        0x00004554:    2552        R%      MOVS     r5,#0x52
        0x00004556:    022d        -.      LSLS     r5,r5,#8
        0x00004558:    351c        .5      ADDS     r5,r5,#0x1c
        0x0000455a:    042d        -.      LSLS     r5,r5,#16
        0x0000455c:    6829        )h      LDR      r1,[r5,#0]
        0x0000455e:    040d        ..      LSLS     r5,r1,#16
        0x00004560:    182d        -.      ADDS     r5,r5,r0
        0x00004562:    601d        .`      STR      r5,[r3,#0]
        0x00004564:    2552        R%      MOVS     r5,#0x52
        0x00004566:    022d        -.      LSLS     r5,r5,#8
        0x00004568:    3528        (5      ADDS     r5,r5,#0x28
        0x0000456a:    042d        -.      LSLS     r5,r5,#16
        0x0000456c:    6828        (h      LDR      r0,[r5,#0]
        0x0000456e:    2552        R%      MOVS     r5,#0x52
        0x00004570:    022d        -.      LSLS     r5,r5,#8
        0x00004572:    352c        ,5      ADDS     r5,r5,#0x2c
        0x00004574:    042d        -.      LSLS     r5,r5,#16
        0x00004576:    6829        )h      LDR      r1,[r5,#0]
        0x00004578:    040d        ..      LSLS     r5,r1,#16
        0x0000457a:    182d        -.      ADDS     r5,r5,r0
        0x0000457c:    6025        %`      STR      r5,[r4,#0]
        0x0000457e:    2552        R%      MOVS     r5,#0x52
        0x00004580:    022d        -.      LSLS     r5,r5,#8
        0x00004582:    3530        05      ADDS     r5,r5,#0x30
        0x00004584:    042d        -.      LSLS     r5,r5,#16
        0x00004586:    6828        (h      LDR      r0,[r5,#0]
        0x00004588:    2552        R%      MOVS     r5,#0x52
        0x0000458a:    022d        -.      LSLS     r5,r5,#8
        0x0000458c:    3534        45      ADDS     r5,r5,#0x34
        0x0000458e:    042d        -.      LSLS     r5,r5,#16
        0x00004590:    6829        )h      LDR      r1,[r5,#0]
        0x00004592:    040d        ..      LSLS     r5,r1,#16
        0x00004594:    182d        -.      ADDS     r5,r5,r0
        0x00004596:    6015        .`      STR      r5,[r2,#0]
        0x00004598:    2500        .%      MOVS     r5,#0
        0x0000459a:    6035        5`      STR      r5,[r6,#0]
        0x0000459c:    253f        ?%      MOVS     r5,#0x3f
        0x0000459e:    022d        -.      LSLS     r5,r5,#8
        0x000045a0:    35ff        .5      ADDS     r5,r5,#0xff
        0x000045a2:    6035        5`      STR      r5,[r6,#0]
        0x000045a4:    bd70        p.      POP      {r4-r6,pc}
    read_IF_estimate
        0x000045a6:    2052        R       MOVS     r0,#0x52
        0x000045a8:    0200        ..      LSLS     r0,r0,#8
        0x000045aa:    3040        @0      ADDS     r0,r0,#0x40
        0x000045ac:    0400        ..      LSLS     r0,r0,#16
        0x000045ae:    6800        .h      LDR      r0,[r0,#0]
        0x000045b0:    2101        .!      MOVS     r1,#1
        0x000045b2:    0289        ..      LSLS     r1,r1,#10
        0x000045b4:    4008        .@      ANDS     r0,r0,r1
        0x000045b6:    2800        .(      CMP      r0,#0
        0x000045b8:    d007        ..      BEQ      0x45ca ; read_IF_estimate + 36
        0x000045ba:    2052        R       MOVS     r0,#0x52
        0x000045bc:    0200        ..      LSLS     r0,r0,#8
        0x000045be:    3040        @0      ADDS     r0,r0,#0x40
        0x000045c0:    0400        ..      LSLS     r0,r0,#16
        0x000045c2:    8800        ..      LDRH     r0,[r0,#0]
        0x000045c4:    0580        ..      LSLS     r0,r0,#22
        0x000045c6:    0d80        ..      LSRS     r0,r0,#22
        0x000045c8:    4770        pG      BX       lr
        0x000045ca:    2000        .       MOVS     r0,#0
        0x000045cc:    e7fc        ..      B        0x45c8 ; read_IF_estimate + 34
    read_LQI
        0x000045ce:    2052        R       MOVS     r0,#0x52
        0x000045d0:    0200        ..      LSLS     r0,r0,#8
        0x000045d2:    3054        T0      ADDS     r0,r0,#0x54
        0x000045d4:    0400        ..      LSLS     r0,r0,#16
        0x000045d6:    7800        .x      LDRB     r0,[r0,#0]
        0x000045d8:    4770        pG      BX       lr
    read_RSSI
        0x000045da:    2052        R       MOVS     r0,#0x52
        0x000045dc:    0200        ..      LSLS     r0,r0,#8
        0x000045de:    303c        <0      ADDS     r0,r0,#0x3c
        0x000045e0:    0400        ..      LSLS     r0,r0,#16
        0x000045e2:    7800        .x      LDRB     r0,[r0,#0]
        0x000045e4:    0700        ..      LSLS     r0,r0,#28
        0x000045e6:    0f00        ..      LSRS     r0,r0,#28
        0x000045e8:    4770        pG      BX       lr
    set_IF_clock_frequency
        0x000045ea:    b5f0        ..      PUSH     {r4-r7,lr}
        0x000045ec:    4605        .F      MOV      r5,r0
        0x000045ee:    460e        .F      MOV      r6,r1
        0x000045f0:    4617        .F      MOV      r7,r2
        0x000045f2:    2400        .$      MOVS     r4,#0
        0x000045f4:    e011        ..      B        0x461a ; set_IF_clock_frequency + 48
        0x000045f6:    4628        (F      MOV      r0,r5
        0x000045f8:    4120         A      ASRS     r0,r0,r4
        0x000045fa:    07c0        ..      LSLS     r0,r0,#31
        0x000045fc:    0fc0        ..      LSRS     r0,r0,#31
        0x000045fe:    2800        .(      CMP      r0,#0
        0x00004600:    d005        ..      BEQ      0x460e ; set_IF_clock_frequency + 36
        0x00004602:    21ff        .!      MOVS     r1,#0xff
        0x00004604:    31b0        .1      ADDS     r1,r1,#0xb0
        0x00004606:    1b08        ..      SUBS     r0,r1,r4
        0x00004608:    f7feff8d    ....    BL       set_asc_bit ; 0x3526
        0x0000460c:    e004        ..      B        0x4618 ; set_IF_clock_frequency + 46
        0x0000460e:    21ff        .!      MOVS     r1,#0xff
        0x00004610:    31b0        .1      ADDS     r1,r1,#0xb0
        0x00004612:    1b08        ..      SUBS     r0,r1,r4
        0x00004614:    f7feff6b    ..k.    BL       clear_asc_bit ; 0x34ee
        0x00004618:    1c64        d.      ADDS     r4,r4,#1
        0x0000461a:    2c04        .,      CMP      r4,#4
        0x0000461c:    d9eb        ..      BLS      0x45f6 ; set_IF_clock_frequency + 12
        0x0000461e:    2400        .$      MOVS     r4,#0
        0x00004620:    e011        ..      B        0x4646 ; set_IF_clock_frequency + 92
        0x00004622:    4630        0F      MOV      r0,r6
        0x00004624:    4120         A      ASRS     r0,r0,r4
        0x00004626:    07c0        ..      LSLS     r0,r0,#31
        0x00004628:    0fc0        ..      LSRS     r0,r0,#31
        0x0000462a:    2800        .(      CMP      r0,#0
        0x0000462c:    d005        ..      BEQ      0x463a ; set_IF_clock_frequency + 80
        0x0000462e:    21ff        .!      MOVS     r1,#0xff
        0x00004630:    31b6        .1      ADDS     r1,r1,#0xb6
        0x00004632:    1b08        ..      SUBS     r0,r1,r4
        0x00004634:    f7feff77    ..w.    BL       set_asc_bit ; 0x3526
        0x00004638:    e004        ..      B        0x4644 ; set_IF_clock_frequency + 90
        0x0000463a:    21ff        .!      MOVS     r1,#0xff
        0x0000463c:    31b6        .1      ADDS     r1,r1,#0xb6
        0x0000463e:    1b08        ..      SUBS     r0,r1,r4
        0x00004640:    f7feff55    ..U.    BL       clear_asc_bit ; 0x34ee
        0x00004644:    1c64        d.      ADDS     r4,r4,#1
        0x00004646:    2c04        .,      CMP      r4,#4
        0x00004648:    d9eb        ..      BLS      0x4622 ; set_IF_clock_frequency + 56
        0x0000464a:    2f01        ./      CMP      r7,#1
        0x0000464c:    d105        ..      BNE      0x465a ; set_IF_clock_frequency + 112
        0x0000464e:    2002        .       MOVS     r0,#2
        0x00004650:    0200        ..      LSLS     r0,r0,#8
        0x00004652:    30d6        .0      ADDS     r0,r0,#0xd6
        0x00004654:    f7feff67    ..g.    BL       set_asc_bit ; 0x3526
        0x00004658:    e004        ..      B        0x4664 ; set_IF_clock_frequency + 122
        0x0000465a:    2002        .       MOVS     r0,#2
        0x0000465c:    0200        ..      LSLS     r0,r0,#8
        0x0000465e:    30d6        .0      ADDS     r0,r0,#0xd6
        0x00004660:    f7feff45    ..E.    BL       clear_asc_bit ; 0x34ee
        0x00004664:    bdf0        ..      POP      {r4-r7,pc}
    set_sys_clk_secondary_freq
        0x00004666:    b570        p.      PUSH     {r4-r6,lr}
        0x00004668:    4605        .F      MOV      r5,r0
        0x0000466a:    460e        .F      MOV      r6,r1
        0x0000466c:    2400        .$      MOVS     r4,#0
        0x0000466e:    e013        ..      B        0x4698 ; set_sys_clk_secondary_freq + 50
        0x00004670:    4630        0F      MOV      r0,r6
        0x00004672:    40e0        .@      LSRS     r0,r0,r4
        0x00004674:    07c0        ..      LSLS     r0,r0,#31
        0x00004676:    0fc0        ..      LSRS     r0,r0,#31
        0x00004678:    2800        .(      CMP      r0,#0
        0x0000467a:    d006        ..      BEQ      0x468a ; set_sys_clk_secondary_freq + 36
        0x0000467c:    2103        .!      MOVS     r1,#3
        0x0000467e:    0209        ..      LSLS     r1,r1,#8
        0x00004680:    3166        f1      ADDS     r1,r1,#0x66
        0x00004682:    1860        `.      ADDS     r0,r4,r1
        0x00004684:    f7feff4f    ..O.    BL       set_asc_bit ; 0x3526
        0x00004688:    e005        ..      B        0x4696 ; set_sys_clk_secondary_freq + 48
        0x0000468a:    2103        .!      MOVS     r1,#3
        0x0000468c:    0209        ..      LSLS     r1,r1,#8
        0x0000468e:    3166        f1      ADDS     r1,r1,#0x66
        0x00004690:    1860        `.      ADDS     r0,r4,r1
        0x00004692:    f7feff2c    ..,.    BL       clear_asc_bit ; 0x34ee
        0x00004696:    1c64        d.      ADDS     r4,r4,#1
        0x00004698:    2c03        .,      CMP      r4,#3
        0x0000469a:    dde9        ..      BLE      0x4670 ; set_sys_clk_secondary_freq + 10
        0x0000469c:    06f0        ..      LSLS     r0,r6,#27
        0x0000469e:    0fc0        ..      LSRS     r0,r0,#31
        0x000046a0:    2800        .(      CMP      r0,#0
        0x000046a2:    d005        ..      BEQ      0x46b0 ; set_sys_clk_secondary_freq + 74
        0x000046a4:    2003        .       MOVS     r0,#3
        0x000046a6:    0200        ..      LSLS     r0,r0,#8
        0x000046a8:    306a        j0      ADDS     r0,r0,#0x6a
        0x000046aa:    f7feff20    .. .    BL       clear_asc_bit ; 0x34ee
        0x000046ae:    e004        ..      B        0x46ba ; set_sys_clk_secondary_freq + 84
        0x000046b0:    2003        .       MOVS     r0,#3
        0x000046b2:    0200        ..      LSLS     r0,r0,#8
        0x000046b4:    306a        j0      ADDS     r0,r0,#0x6a
        0x000046b6:    f7feff36    ..6.    BL       set_asc_bit ; 0x3526
        0x000046ba:    2400        .$      MOVS     r4,#0
        0x000046bc:    e011        ..      B        0x46e2 ; set_sys_clk_secondary_freq + 124
        0x000046be:    4628        (F      MOV      r0,r5
        0x000046c0:    40e0        .@      LSRS     r0,r0,r4
        0x000046c2:    07c0        ..      LSLS     r0,r0,#31
        0x000046c4:    0fc0        ..      LSRS     r0,r0,#31
        0x000046c6:    2800        .(      CMP      r0,#0
        0x000046c8:    d005        ..      BEQ      0x46d6 ; set_sys_clk_secondary_freq + 112
        0x000046ca:    21d7        .!      MOVS     r1,#0xd7
        0x000046cc:    0089        ..      LSLS     r1,r1,#2
        0x000046ce:    1860        `.      ADDS     r0,r4,r1
        0x000046d0:    f7feff29    ..).    BL       set_asc_bit ; 0x3526
        0x000046d4:    e004        ..      B        0x46e0 ; set_sys_clk_secondary_freq + 122
        0x000046d6:    21d7        .!      MOVS     r1,#0xd7
        0x000046d8:    0089        ..      LSLS     r1,r1,#2
        0x000046da:    1860        `.      ADDS     r0,r4,r1
        0x000046dc:    f7feff07    ....    BL       clear_asc_bit ; 0x34ee
        0x000046e0:    1c64        d.      ADDS     r4,r4,#1
        0x000046e2:    2c01        .,      CMP      r4,#1
        0x000046e4:    ddeb        ..      BLE      0x46be ; set_sys_clk_secondary_freq + 88
        0x000046e6:    2402        .$      MOVS     r4,#2
        0x000046e8:    e013        ..      B        0x4712 ; set_sys_clk_secondary_freq + 172
        0x000046ea:    4628        (F      MOV      r0,r5
        0x000046ec:    40e0        .@      LSRS     r0,r0,r4
        0x000046ee:    07c0        ..      LSLS     r0,r0,#31
        0x000046f0:    0fc0        ..      LSRS     r0,r0,#31
        0x000046f2:    2800        .(      CMP      r0,#0
        0x000046f4:    d006        ..      BEQ      0x4704 ; set_sys_clk_secondary_freq + 158
        0x000046f6:    2103        .!      MOVS     r1,#3
        0x000046f8:    0209        ..      LSLS     r1,r1,#8
        0x000046fa:    3169        i1      ADDS     r1,r1,#0x69
        0x000046fc:    1860        `.      ADDS     r0,r4,r1
        0x000046fe:    f7fefef6    ....    BL       clear_asc_bit ; 0x34ee
        0x00004702:    e005        ..      B        0x4710 ; set_sys_clk_secondary_freq + 170
        0x00004704:    2103        .!      MOVS     r1,#3
        0x00004706:    0209        ..      LSLS     r1,r1,#8
        0x00004708:    3169        i1      ADDS     r1,r1,#0x69
        0x0000470a:    1860        `.      ADDS     r0,r4,r1
        0x0000470c:    f7feff0b    ....    BL       set_asc_bit ; 0x3526
        0x00004710:    1c64        d.      ADDS     r4,r4,#1
        0x00004712:    2c04        .,      CMP      r4,#4
        0x00004714:    dde9        ..      BLE      0x46ea ; set_sys_clk_secondary_freq + 132
        0x00004716:    bd70        p.      POP      {r4-r6,pc}
    analog_scan_chain_load
        0x00004718:    2028        (       MOVS     r0,#0x28
        0x0000471a:    2152        R!      MOVS     r1,#0x52
        0x0000471c:    0209        ..      LSLS     r1,r1,#8
        0x0000471e:    3158        X1      ADDS     r1,r1,#0x58
        0x00004720:    0409        ..      LSLS     r1,r1,#16
        0x00004722:    6008        .`      STR      r0,[r1,#0]
        0x00004724:    2020                MOVS     r0,#0x20
        0x00004726:    6008        .`      STR      r0,[r1,#0]
        0x00004728:    4770        pG      BX       lr
    analog_scan_chain_write
        0x0000472a:    b510        ..      PUSH     {r4,lr}
        0x0000472c:    2100        .!      MOVS     r1,#0
        0x0000472e:    2200        ."      MOVS     r2,#0
        0x00004730:    2125        %!      MOVS     r1,#0x25
        0x00004732:    e03b        ;.      B        0x47ac ; analog_scan_chain_write + 130
        0x00004734:    2200        ."      MOVS     r2,#0
        0x00004736:    e036        6.      B        0x47a6 ; analog_scan_chain_write + 124
        0x00004738:    008b        ..      LSLS     r3,r1,#2
        0x0000473a:    2420         $      MOVS     r4,#0x20
        0x0000473c:    0224        $.      LSLS     r4,r4,#8
        0x0000473e:    3400        .4      ADDS     r4,#0
        0x00004740:    0224        $.      LSLS     r4,r4,#8
        0x00004742:    3406        .4      ADDS     r4,#6
        0x00004744:    0224        $.      LSLS     r4,r4,#8
        0x00004746:    347c        |4      ADDS     r4,r4,#0x7c
        0x00004748:    58e3        .X      LDR      r3,[r4,r3]
        0x0000474a:    2401        .$      MOVS     r4,#1
        0x0000474c:    4094        .@      LSLS     r4,r4,r2
        0x0000474e:    4023        #@      ANDS     r3,r3,r4
        0x00004750:    2b00        .+      CMP      r3,#0
        0x00004752:    d101        ..      BNE      0x4758 ; analog_scan_chain_write + 46
        0x00004754:    2021        !       MOVS     r0,#0x21
        0x00004756:    e000        ..      B        0x475a ; analog_scan_chain_write + 48
        0x00004758:    2020                MOVS     r0,#0x20
        0x0000475a:    2352        R#      MOVS     r3,#0x52
        0x0000475c:    021b        ..      LSLS     r3,r3,#8
        0x0000475e:    3358        X3      ADDS     r3,r3,#0x58
        0x00004760:    041b        ..      LSLS     r3,r3,#16
        0x00004762:    6018        .`      STR      r0,[r3,#0]
        0x00004764:    2402        .$      MOVS     r4,#2
        0x00004766:    4603        .F      MOV      r3,r0
        0x00004768:    43a3        .C      BICS     r3,r3,r4
        0x0000476a:    4618        .F      MOV      r0,r3
        0x0000476c:    2352        R#      MOVS     r3,#0x52
        0x0000476e:    021b        ..      LSLS     r3,r3,#8
        0x00004770:    3358        X3      ADDS     r3,r3,#0x58
        0x00004772:    041b        ..      LSLS     r3,r3,#16
        0x00004774:    6018        .`      STR      r0,[r3,#0]
        0x00004776:    2304        .#      MOVS     r3,#4
        0x00004778:    4318        .C      ORRS     r0,r0,r3
        0x0000477a:    2352        R#      MOVS     r3,#0x52
        0x0000477c:    021b        ..      LSLS     r3,r3,#8
        0x0000477e:    3358        X3      ADDS     r3,r3,#0x58
        0x00004780:    041b        ..      LSLS     r3,r3,#16
        0x00004782:    6018        .`      STR      r0,[r3,#0]
        0x00004784:    2404        .$      MOVS     r4,#4
        0x00004786:    4603        .F      MOV      r3,r0
        0x00004788:    43a3        .C      BICS     r3,r3,r4
        0x0000478a:    4618        .F      MOV      r0,r3
        0x0000478c:    2352        R#      MOVS     r3,#0x52
        0x0000478e:    021b        ..      LSLS     r3,r3,#8
        0x00004790:    3358        X3      ADDS     r3,r3,#0x58
        0x00004792:    041b        ..      LSLS     r3,r3,#16
        0x00004794:    6018        .`      STR      r0,[r3,#0]
        0x00004796:    2302        .#      MOVS     r3,#2
        0x00004798:    4318        .C      ORRS     r0,r0,r3
        0x0000479a:    2352        R#      MOVS     r3,#0x52
        0x0000479c:    021b        ..      LSLS     r3,r3,#8
        0x0000479e:    3358        X3      ADDS     r3,r3,#0x58
        0x000047a0:    041b        ..      LSLS     r3,r3,#16
        0x000047a2:    6018        .`      STR      r0,[r3,#0]
        0x000047a4:    1c52        R.      ADDS     r2,r2,#1
        0x000047a6:    2a20         *      CMP      r2,#0x20
        0x000047a8:    dbc6        ..      BLT      0x4738 ; analog_scan_chain_write + 14
        0x000047aa:    1e49        I.      SUBS     r1,r1,#1
        0x000047ac:    2900        .)      CMP      r1,#0
        0x000047ae:    dac1        ..      BGE      0x4734 ; analog_scan_chain_write + 10
        0x000047b0:    bd10        ..      POP      {r4,pc}
    LC_FREQCHANGE
        0x000047b2:    b5f7        ..      PUSH     {r0-r2,r4-r7,lr}
        0x000047b4:    b084        ..      SUB      sp,sp,#0x10
        0x000047b6:    4605        .F      MOV      r5,r0
        0x000047b8:    06e8        ..      LSLS     r0,r5,#27
        0x000047ba:    0ec0        ..      LSRS     r0,r0,#27
        0x000047bc:    9003        ..      STR      r0,[sp,#0xc]
        0x000047be:    bf00        ..      NOP      
        0x000047c0:    9805        ..      LDR      r0,[sp,#0x14]
        0x000047c2:    06c0        ..      LSLS     r0,r0,#27
        0x000047c4:    0ec0        ..      LSRS     r0,r0,#27
        0x000047c6:    9002        ..      STR      r0,[sp,#8]
        0x000047c8:    bf00        ..      NOP      
        0x000047ca:    9806        ..      LDR      r0,[sp,#0x18]
        0x000047cc:    06c0        ..      LSLS     r0,r0,#27
        0x000047ce:    0ec0        ..      LSRS     r0,r0,#27
        0x000047d0:    9001        ..      STR      r0,[sp,#4]
        0x000047d2:    bf00        ..      NOP      
        0x000047d4:    9803        ..      LDR      r0,[sp,#0xc]
        0x000047d6:    f7fefe72    ..r.    BL       flipChar ; 0x34be
        0x000047da:    9000        ..      STR      r0,[sp,#0]
        0x000047dc:    bf00        ..      NOP      
        0x000047de:    9802        ..      LDR      r0,[sp,#8]
        0x000047e0:    f7fefe6d    ..m.    BL       flipChar ; 0x34be
        0x000047e4:    4606        .F      MOV      r6,r0
        0x000047e6:    bf00        ..      NOP      
        0x000047e8:    9801        ..      LDR      r0,[sp,#4]
        0x000047ea:    f7fefe68    ..h.    BL       flipChar ; 0x34be
        0x000047ee:    4604        .F      MOV      r4,r0
        0x000047f0:    bf00        ..      NOP      
        0x000047f2:    2300        .#      MOVS     r3,#0
        0x000047f4:    2700        .'      MOVS     r7,#0
        0x000047f6:    bf00        ..      NOP      
        0x000047f8:    bf00        ..      NOP      
        0x000047fa:    9800        ..      LDR      r0,[sp,#0]
        0x000047fc:    9000        ..      STR      r0,[sp,#0]
        0x000047fe:    2078        x       MOVS     r0,#0x78
        0x00004800:    4020         @      ANDS     r0,r0,r4
        0x00004802:    0240        @.      LSLS     r0,r0,#9
        0x00004804:    4303        .C      ORRS     r3,r3,r0
        0x00004806:    00f0        ..      LSLS     r0,r6,#3
        0x00004808:    4303        .C      ORRS     r3,r3,r0
        0x0000480a:    9800        ..      LDR      r0,[sp,#0]
        0x0000480c:    08c0        ..      LSRS     r0,r0,#3
        0x0000480e:    4303        .C      ORRS     r3,r3,r0
        0x00004810:    2080        .       MOVS     r0,#0x80
        0x00004812:    4020         @      ANDS     r0,r0,r4
        0x00004814:    09c0        ..      LSRS     r0,r0,#7
        0x00004816:    4307        .C      ORRS     r7,r7,r0
        0x00004818:    2052        R       MOVS     r0,#0x52
        0x0000481a:    0200        ..      LSLS     r0,r0,#8
        0x0000481c:    301c        .0      ADDS     r0,r0,#0x1c
        0x0000481e:    0400        ..      LSLS     r0,r0,#16
        0x00004820:    6003        .`      STR      r3,[r0,#0]
        0x00004822:    2052        R       MOVS     r0,#0x52
        0x00004824:    0200        ..      LSLS     r0,r0,#8
        0x00004826:    3020         0      ADDS     r0,r0,#0x20
        0x00004828:    0400        ..      LSLS     r0,r0,#16
        0x0000482a:    6007        .`      STR      r7,[r0,#0]
        0x0000482c:    b007        ..      ADD      sp,sp,#0x1c
        0x0000482e:    bdf0        ..      POP      {r4-r7,pc}
    LC_monotonic
        0x00004830:    b5f1        ..      PUSH     {r0,r4-r7,lr}
        0x00004832:    b084        ..      SUB      sp,sp,#0x10
        0x00004834:    2700        .'      MOVS     r7,#0
        0x00004836:    2000        .       MOVS     r0,#0
        0x00004838:    9003        ..      STR      r0,[sp,#0xc]
        0x0000483a:    2017        .       MOVS     r0,#0x17
        0x0000483c:    9002        ..      STR      r0,[sp,#8]
        0x0000483e:    208c        .       MOVS     r0,#0x8c
        0x00004840:    9001        ..      STR      r0,[sp,#4]
        0x00004842:    9901        ..      LDR      r1,[sp,#4]
        0x00004844:    9804        ..      LDR      r0,[sp,#0x10]
        0x00004846:    f000fb8e    ....    BL       __aeabi_idiv ; 0x4f66
        0x0000484a:    3013        .0      ADDS     r0,r0,#0x13
        0x0000484c:    b2c6        ..      UXTB     r6,r0
        0x0000484e:    9901        ..      LDR      r1,[sp,#4]
        0x00004850:    9804        ..      LDR      r0,[sp,#0x10]
        0x00004852:    f000fb88    ....    BL       __aeabi_idiv ; 0x4f66
        0x00004856:    9104        ..      STR      r1,[sp,#0x10]
        0x00004858:    9902        ..      LDR      r1,[sp,#8]
        0x0000485a:    9804        ..      LDR      r0,[sp,#0x10]
        0x0000485c:    f000fb83    ....    BL       __aeabi_idiv ; 0x4f66
        0x00004860:    0041        A.      LSLS     r1,r0,#1
        0x00004862:    1841        A.      ADDS     r1,r0,r1
        0x00004864:    9803        ..      LDR      r0,[sp,#0xc]
        0x00004866:    1808        ..      ADDS     r0,r1,r0
        0x00004868:    b2c5        ..      UXTB     r5,r0
        0x0000486a:    9902        ..      LDR      r1,[sp,#8]
        0x0000486c:    9804        ..      LDR      r0,[sp,#0x10]
        0x0000486e:    f000fb7a    ..z.    BL       __aeabi_idiv ; 0x4f66
        0x00004872:    2802        .(      CMP      r0,#2
        0x00004874:    db00        ..      BLT      0x4878 ; LC_monotonic + 72
        0x00004876:    bf00        ..      NOP      
        0x00004878:    9902        ..      LDR      r1,[sp,#8]
        0x0000487a:    9804        ..      LDR      r0,[sp,#0x10]
        0x0000487c:    f000fb73    ..s.    BL       __aeabi_idiv ; 0x4f66
        0x00004880:    19c8        ..      ADDS     r0,r1,r7
        0x00004882:    b2c4        ..      UXTB     r4,r0
        0x00004884:    2c0f        .,      CMP      r4,#0xf
        0x00004886:    dd00        ..      BLE      0x488a ; LC_monotonic + 90
        0x00004888:    1c64        d.      ADDS     r4,r4,#1
        0x0000488a:    4622        "F      MOV      r2,r4
        0x0000488c:    4629        )F      MOV      r1,r5
        0x0000488e:    4630        0F      MOV      r0,r6
        0x00004890:    f7ffff8f    ....    BL       LC_FREQCHANGE ; 0x47b2
        0x00004894:    4623        #F      MOV      r3,r4
        0x00004896:    462a        *F      MOV      r2,r5
        0x00004898:    4631        1F      MOV      r1,r6
        0x0000489a:    2000        .       MOVS     r0,#0
        0x0000489c:    0200        ..      LSLS     r0,r0,#8
        0x0000489e:    3000        .0      ADDS     r0,#0
        0x000048a0:    0200        ..      LSLS     r0,r0,#8
        0x000048a2:    305d        ]0      ADDS     r0,r0,#0x5d
        0x000048a4:    0200        ..      LSLS     r0,r0,#8
        0x000048a6:    3078        x0      ADDS     r0,r0,#0x78
        0x000048a8:    f000fa4c    ..L.    BL       __2printf ; 0x4d44
        0x000048ac:    b005        ..      ADD      sp,sp,#0x14
        0x000048ae:    bdf0        ..      POP      {r4-r7,pc}
    flip_lsb8
        0x000048b0:    4601        .F      MOV      r1,r0
        0x000048b2:    2000        .       MOVS     r0,#0
        0x000048b4:    07ca        ..      LSLS     r2,r1,#31
        0x000048b6:    0e12        ..      LSRS     r2,r2,#24
        0x000048b8:    4310        .C      ORRS     r0,r0,r2
        0x000048ba:    2202        ."      MOVS     r2,#2
        0x000048bc:    400a        .@      ANDS     r2,r2,r1
        0x000048be:    0152        R.      LSLS     r2,r2,#5
        0x000048c0:    4310        .C      ORRS     r0,r0,r2
        0x000048c2:    2204        ."      MOVS     r2,#4
        0x000048c4:    400a        .@      ANDS     r2,r2,r1
        0x000048c6:    00d2        ..      LSLS     r2,r2,#3
        0x000048c8:    4310        .C      ORRS     r0,r0,r2
        0x000048ca:    2208        ."      MOVS     r2,#8
        0x000048cc:    400a        .@      ANDS     r2,r2,r1
        0x000048ce:    0052        R.      LSLS     r2,r2,#1
        0x000048d0:    4310        .C      ORRS     r0,r0,r2
        0x000048d2:    2210        ."      MOVS     r2,#0x10
        0x000048d4:    400a        .@      ANDS     r2,r2,r1
        0x000048d6:    0852        R.      LSRS     r2,r2,#1
        0x000048d8:    4310        .C      ORRS     r0,r0,r2
        0x000048da:    2220         "      MOVS     r2,#0x20
        0x000048dc:    400a        .@      ANDS     r2,r2,r1
        0x000048de:    08d2        ..      LSRS     r2,r2,#3
        0x000048e0:    4310        .C      ORRS     r0,r0,r2
        0x000048e2:    2240        @"      MOVS     r2,#0x40
        0x000048e4:    400a        .@      ANDS     r2,r2,r1
        0x000048e6:    0952        R.      LSRS     r2,r2,#5
        0x000048e8:    4310        .C      ORRS     r0,r0,r2
        0x000048ea:    2280        ."      MOVS     r2,#0x80
        0x000048ec:    400a        .@      ANDS     r2,r2,r1
        0x000048ee:    09d2        ..      LSRS     r2,r2,#7
        0x000048f0:    4310        .C      ORRS     r0,r0,r2
        0x000048f2:    4770        pG      BX       lr
    set_2M_RC_frequency
        0x000048f4:    b5f0        ..      PUSH     {r4-r7,lr}
        0x000048f6:    b085        ..      SUB      sp,sp,#0x14
        0x000048f8:    4606        .F      MOV      r6,r0
        0x000048fa:    460c        .F      MOV      r4,r1
        0x000048fc:    4615        .F      MOV      r5,r2
        0x000048fe:    461f        .F      MOV      r7,r3
        0x00004900:    2020                MOVS     r0,#0x20
        0x00004902:    0200        ..      LSLS     r0,r0,#8
        0x00004904:    3000        .0      ADDS     r0,#0
        0x00004906:    0200        ..      LSLS     r0,r0,#8
        0x00004908:    3006        .0      ADDS     r0,#6
        0x0000490a:    0200        ..      LSLS     r0,r0,#8
        0x0000490c:    30fc        .0      ADDS     r0,r0,#0xfc
        0x0000490e:    6186        .a      STR      r6,[r0,#0x18]
        0x00004910:    3018        .0      ADDS     r0,r0,#0x18
        0x00004912:    6044        D`      STR      r4,[r0,#4]
        0x00004914:    6085        .`      STR      r5,[r0,#8]
        0x00004916:    60c7        .`      STR      r7,[r0,#0xc]
        0x00004918:    2120         !      MOVS     r1,#0x20
        0x0000491a:    0209        ..      LSLS     r1,r1,#8
        0x0000491c:    3100        .1      ADDS     r1,#0
        0x0000491e:    0209        ..      LSLS     r1,r1,#8
        0x00004920:    3107        .1      ADDS     r1,#7
        0x00004922:    0209        ..      LSLS     r1,r1,#8
        0x00004924:    3114        .1      ADDS     r1,r1,#0x14
        0x00004926:    980a        ..      LDR      r0,[sp,#0x28]
        0x00004928:    6108        .a      STR      r0,[r1,#0x10]
        0x0000492a:    4608        .F      MOV      r0,r1
        0x0000492c:    3818        .8      SUBS     r0,r0,#0x18
        0x0000492e:    6880        .h      LDR      r0,[r0,#8]
        0x00004930:    2180        .!      MOVS     r1,#0x80
        0x00004932:    0609        ..      LSLS     r1,r1,#24
        0x00004934:    311f        .1      ADDS     r1,r1,#0x1f
        0x00004936:    4008        .@      ANDS     r0,r0,r1
        0x00004938:    4603        .F      MOV      r3,r0
        0x0000493a:    4630        0F      MOV      r0,r6
        0x0000493c:    f7ffffb8    ....    BL       flip_lsb8 ; 0x48b0
        0x00004940:    0600        ..      LSLS     r0,r0,#24
        0x00004942:    0ec0        ..      LSRS     r0,r0,#27
        0x00004944:    9004        ..      STR      r0,[sp,#0x10]
        0x00004946:    4620         F      MOV      r0,r4
        0x00004948:    f7ffffb2    ....    BL       flip_lsb8 ; 0x48b0
        0x0000494c:    0600        ..      LSLS     r0,r0,#24
        0x0000494e:    0ec0        ..      LSRS     r0,r0,#27
        0x00004950:    9003        ..      STR      r0,[sp,#0xc]
        0x00004952:    4628        (F      MOV      r0,r5
        0x00004954:    f7ffffac    ....    BL       flip_lsb8 ; 0x48b0
        0x00004958:    0600        ..      LSLS     r0,r0,#24
        0x0000495a:    0ec0        ..      LSRS     r0,r0,#27
        0x0000495c:    9002        ..      STR      r0,[sp,#8]
        0x0000495e:    4638        8F      MOV      r0,r7
        0x00004960:    f7ffffa6    ....    BL       flip_lsb8 ; 0x48b0
        0x00004964:    0600        ..      LSLS     r0,r0,#24
        0x00004966:    0ec0        ..      LSRS     r0,r0,#27
        0x00004968:    9001        ..      STR      r0,[sp,#4]
        0x0000496a:    980a        ..      LDR      r0,[sp,#0x28]
        0x0000496c:    f7ffffa0    ....    BL       flip_lsb8 ; 0x48b0
        0x00004970:    0600        ..      LSLS     r0,r0,#24
        0x00004972:    0ec0        ..      LSRS     r0,r0,#27
        0x00004974:    9000        ..      STR      r0,[sp,#0]
        0x00004976:    9804        ..      LDR      r0,[sp,#0x10]
        0x00004978:    0680        ..      LSLS     r0,r0,#26
        0x0000497a:    4303        .C      ORRS     r3,r3,r0
        0x0000497c:    9803        ..      LDR      r0,[sp,#0xc]
        0x0000497e:    0540        @.      LSLS     r0,r0,#21
        0x00004980:    4303        .C      ORRS     r3,r3,r0
        0x00004982:    9802        ..      LDR      r0,[sp,#8]
        0x00004984:    0400        ..      LSLS     r0,r0,#16
        0x00004986:    4303        .C      ORRS     r3,r3,r0
        0x00004988:    9801        ..      LDR      r0,[sp,#4]
        0x0000498a:    02c0        ..      LSLS     r0,r0,#11
        0x0000498c:    4303        .C      ORRS     r3,r3,r0
        0x0000498e:    9800        ..      LDR      r0,[sp,#0]
        0x00004990:    0180        ..      LSLS     r0,r0,#6
        0x00004992:    4303        .C      ORRS     r3,r3,r0
        0x00004994:    2020                MOVS     r0,#0x20
        0x00004996:    4303        .C      ORRS     r3,r3,r0
        0x00004998:    2020                MOVS     r0,#0x20
        0x0000499a:    0200        ..      LSLS     r0,r0,#8
        0x0000499c:    3000        .0      ADDS     r0,#0
        0x0000499e:    0200        ..      LSLS     r0,r0,#8
        0x000049a0:    3006        .0      ADDS     r0,#6
        0x000049a2:    0200        ..      LSLS     r0,r0,#8
        0x000049a4:    30fc        .0      ADDS     r0,r0,#0xfc
        0x000049a6:    6083        .`      STR      r3,[r0,#8]
        0x000049a8:    b005        ..      ADD      sp,sp,#0x14
        0x000049aa:    bdf0        ..      POP      {r4-r7,pc}
    initialize_mote
        0x000049ac:    b538        8.      PUSH     {r3-r5,lr}
        0x000049ae:    f7fefc0e    ....    BL       scm3c_hw_interface_init ; 0x31ce
        0x000049b2:    f7fcfbff    ....    BL       optical_init ; 0x11b4
        0x000049b6:    f7fdf904    ....    BL       radio_init ; 0x1bc2
        0x000049ba:    f7fefade    ....    BL       rftimer_init ; 0x2f7a
        0x000049be:    f7fefeca    ....    BL       init_ldo_control ; 0x3756
        0x000049c2:    2300        .#      MOVS     r3,#0
        0x000049c4:    2201        ."      MOVS     r2,#1
        0x000049c6:    4619        .F      MOV      r1,r3
        0x000049c8:    4618        .F      MOV      r0,r3
        0x000049ca:    f7fefe1d    ....    BL       GPI_control ; 0x3608
        0x000049ce:    2306        .#      MOVS     r3,#6
        0x000049d0:    2200        ."      MOVS     r2,#0
        0x000049d2:    4619        .F      MOV      r1,r3
        0x000049d4:    4618        .F      MOV      r0,r3
        0x000049d6:    f7fefdc2    ....    BL       GPO_control ; 0x355e
        0x000049da:    20ff        .       MOVS     r0,#0xff
        0x000049dc:    3001        .0      ADDS     r0,#1
        0x000049de:    f7fefe94    ....    BL       GPI_enables ; 0x370a
        0x000049e2:    20ff        .       MOVS     r0,#0xff
        0x000049e4:    0200        ..      LSLS     r0,r0,#8
        0x000049e6:    30ff        .0      ADDS     r0,r0,#0xff
        0x000049e8:    f7fefe69    ..i.    BL       GPO_enables ; 0x36be
        0x000049ec:    2004        .       MOVS     r0,#4
        0x000049ee:    0200        ..      LSLS     r0,r0,#8
        0x000049f0:    307b        {0      ADDS     r0,r0,#0x7b
        0x000049f2:    f7fefd98    ....    BL       set_asc_bit ; 0x3526
        0x000049f6:    2220         "      MOVS     r2,#0x20
        0x000049f8:    0212        ..      LSLS     r2,r2,#8
        0x000049fa:    3200        .2      ADDS     r2,#0
        0x000049fc:    0212        ..      LSLS     r2,r2,#8
        0x000049fe:    3206        .2      ADDS     r2,#6
        0x00004a00:    0212        ..      LSLS     r2,r2,#8
        0x00004a02:    32fc        .2      ADDS     r2,r2,#0xfc
        0x00004a04:    6ad1        .j      LDR      r1,[r2,#0x2c]
        0x00004a06:    6b10        .k      LDR      r0,[r2,#0x30]
        0x00004a08:    f7fffe2d    ..-.    BL       set_sys_clk_secondary_freq ; 0x4666
        0x00004a0c:    2004        .       MOVS     r0,#4
        0x00004a0e:    0200        ..      LSLS     r0,r0,#8
        0x00004a10:    307f        .0      ADDS     r0,r0,#0x7f
        0x00004a12:    f7fefd88    ....    BL       set_asc_bit ; 0x3526
        0x00004a16:    2002        .       MOVS     r0,#2
        0x00004a18:    0200        ..      LSLS     r0,r0,#8
        0x00004a1a:    3029        )0      ADDS     r0,r0,#0x29
        0x00004a1c:    f7fefd83    ....    BL       set_asc_bit ; 0x3526
        0x00004a20:    2031        1       MOVS     r0,#0x31
        0x00004a22:    f7fefd80    ....    BL       set_asc_bit ; 0x3526
        0x00004a26:    2030        0       MOVS     r0,#0x30
        0x00004a28:    f7fefd7d    ..}.    BL       set_asc_bit ; 0x3526
        0x00004a2c:    202f        /       MOVS     r0,#0x2f
        0x00004a2e:    f7fefd5e    ..^.    BL       clear_asc_bit ; 0x34ee
        0x00004a32:    202e        .       MOVS     r0,#0x2e
        0x00004a34:    f7fefd77    ..w.    BL       set_asc_bit ; 0x3526
        0x00004a38:    202d        -       MOVS     r0,#0x2d
        0x00004a3a:    f7fefd58    ..X.    BL       clear_asc_bit ; 0x34ee
        0x00004a3e:    202c        ,       MOVS     r0,#0x2c
        0x00004a40:    f7fefd71    ..q.    BL       set_asc_bit ; 0x3526
        0x00004a44:    202b        +       MOVS     r0,#0x2b
        0x00004a46:    f7fefd6e    ..n.    BL       set_asc_bit ; 0x3526
        0x00004a4a:    202a        *       MOVS     r0,#0x2a
        0x00004a4c:    f7fefd6b    ..k.    BL       set_asc_bit ; 0x3526
        0x00004a50:    2004        .       MOVS     r0,#4
        0x00004a52:    0200        ..      LSLS     r0,r0,#8
        0x00004a54:    3084        .0      ADDS     r0,r0,#0x84
        0x00004a56:    f7fefd66    ..f.    BL       set_asc_bit ; 0x3526
        0x00004a5a:    2002        .       MOVS     r0,#2
        0x00004a5c:    0200        ..      LSLS     r0,r0,#8
        0x00004a5e:    306f        o0      ADDS     r0,r0,#0x6f
        0x00004a60:    f7fefd61    ..a.    BL       set_asc_bit ; 0x3526
        0x00004a64:    2029        )       MOVS     r0,#0x29
        0x00004a66:    f7fefd5e    ..^.    BL       set_asc_bit ; 0x3526
        0x00004a6a:    2402        .$      MOVS     r4,#2
        0x00004a6c:    e003        ..      B        0x4a76 ; initialize_mote + 202
        0x00004a6e:    4620         F      MOV      r0,r4
        0x00004a70:    f7fefd59    ..Y.    BL       set_asc_bit ; 0x3526
        0x00004a74:    1c64        d.      ADDS     r4,r4,#1
        0x00004a76:    2c09        .,      CMP      r4,#9
        0x00004a78:    dbf9        ..      BLT      0x4a6e ; initialize_mote + 194
        0x00004a7a:    f7fff96d    ..m.    BL       radio_init_rx_MF ; 0x3d58
        0x00004a7e:    f7fffb4c    ..L.    BL       radio_init_tx ; 0x411a
        0x00004a82:    2220         "      MOVS     r2,#0x20
        0x00004a84:    0212        ..      LSLS     r2,r2,#8
        0x00004a86:    3200        .2      ADDS     r2,#0
        0x00004a88:    0212        ..      LSLS     r2,r2,#8
        0x00004a8a:    3206        .2      ADDS     r2,#6
        0x00004a8c:    0212        ..      LSLS     r2,r2,#8
        0x00004a8e:    32fc        .2      ADDS     r2,r2,#0xfc
        0x00004a90:    6c91        .l      LDR      r1,[r2,#0x48]
        0x00004a92:    6c50        Pl      LDR      r0,[r2,#0x44]
        0x00004a94:    2200        ."      MOVS     r2,#0
        0x00004a96:    f7fffda8    ....    BL       set_IF_clock_frequency ; 0x45ea
        0x00004a9a:    2020                MOVS     r0,#0x20
        0x00004a9c:    0200        ..      LSLS     r0,r0,#8
        0x00004a9e:    3000        .0      ADDS     r0,#0
        0x00004aa0:    0200        ..      LSLS     r0,r0,#8
        0x00004aa2:    3006        .0      ADDS     r0,#6
        0x00004aa4:    0200        ..      LSLS     r0,r0,#8
        0x00004aa6:    30fc        .0      ADDS     r0,r0,#0xfc
        0x00004aa8:    6bc0        .k      LDR      r0,[r0,#0x3c]
        0x00004aaa:    9000        ..      STR      r0,[sp,#0]
        0x00004aac:    2020                MOVS     r0,#0x20
        0x00004aae:    0200        ..      LSLS     r0,r0,#8
        0x00004ab0:    3000        .0      ADDS     r0,#0
        0x00004ab2:    0200        ..      LSLS     r0,r0,#8
        0x00004ab4:    3006        .0      ADDS     r0,#6
        0x00004ab6:    0200        ..      LSLS     r0,r0,#8
        0x00004ab8:    30fc        .0      ADDS     r0,r0,#0xfc
        0x00004aba:    6b83        .k      LDR      r3,[r0,#0x38]
        0x00004abc:    211f        .!      MOVS     r1,#0x1f
        0x00004abe:    6b42        Bk      LDR      r2,[r0,#0x34]
        0x00004ac0:    4608        .F      MOV      r0,r1
        0x00004ac2:    f7ffff17    ....    BL       set_2M_RC_frequency ; 0x48f4
        0x00004ac6:    2004        .       MOVS     r0,#4
        0x00004ac8:    0200        ..      LSLS     r0,r0,#8
        0x00004aca:    305a        Z0      ADDS     r0,r0,#0x5a
        0x00004acc:    f7fefd2b    ..+.    BL       set_asc_bit ; 0x3526
        0x00004ad0:    2096        .       MOVS     r0,#0x96
        0x00004ad2:    f7fffead    ....    BL       LC_monotonic ; 0x4830
        0x00004ad6:    207d        }       MOVS     r0,#0x7d
        0x00004ad8:    0100        ..      LSLS     r0,r0,#4
        0x00004ada:    f7fffd1b    ....    BL       radio_init_divider ; 0x4514
        0x00004ade:    f7fffe24    ..$.    BL       analog_scan_chain_write ; 0x472a
        0x00004ae2:    f7fffe19    ....    BL       analog_scan_chain_load ; 0x4718
        0x00004ae6:    bd38        8.      POP      {r3-r5,pc}
    estimate_temperature_2M_32k
        0x00004ae8:    b5f8        ..      PUSH     {r3-r7,lr}
        0x00004aea:    2000        .       MOVS     r0,#0
        0x00004aec:    2129        )!      MOVS     r1,#0x29
        0x00004aee:    0649        I.      LSLS     r1,r1,#25
        0x00004af0:    6008        .`      STR      r0,[r1,#0]
        0x00004af2:    203f        ?       MOVS     r0,#0x3f
        0x00004af4:    0200        ..      LSLS     r0,r0,#8
        0x00004af6:    30ff        .0      ADDS     r0,r0,#0xff
        0x00004af8:    6008        .`      STR      r0,[r1,#0]
        0x00004afa:    2701        .'      MOVS     r7,#1
        0x00004afc:    e000        ..      B        0x4b00 ; estimate_temperature_2M_32k + 24
        0x00004afe:    1c7f        ..      ADDS     r7,r7,#1
        0x00004b00:    20c3        .       MOVS     r0,#0xc3
        0x00004b02:    0200        ..      LSLS     r0,r0,#8
        0x00004b04:    3050        P0      ADDS     r0,r0,#0x50
        0x00004b06:    4287        .B      CMP      r7,r0
        0x00004b08:    dbf9        ..      BLT      0x4afe ; estimate_temperature_2M_32k + 22
        0x00004b0a:    207f        .       MOVS     r0,#0x7f
        0x00004b0c:    2129        )!      MOVS     r1,#0x29
        0x00004b0e:    0649        I.      LSLS     r1,r1,#25
        0x00004b10:    6008        .`      STR      r0,[r1,#0]
        0x00004b12:    2052        R       MOVS     r0,#0x52
        0x00004b14:    0200        ..      LSLS     r0,r0,#8
        0x00004b16:    3018        .0      ADDS     r0,r0,#0x18
        0x00004b18:    0400        ..      LSLS     r0,r0,#16
        0x00004b1a:    6804        .h      LDR      r4,[r0,#0]
        0x00004b1c:    2052        R       MOVS     r0,#0x52
        0x00004b1e:    0200        ..      LSLS     r0,r0,#8
        0x00004b20:    301c        .0      ADDS     r0,r0,#0x1c
        0x00004b22:    0400        ..      LSLS     r0,r0,#16
        0x00004b24:    6805        .h      LDR      r5,[r0,#0]
        0x00004b26:    0428        (.      LSLS     r0,r5,#16
        0x00004b28:    1906        ..      ADDS     r6,r0,r4
        0x00004b2a:    4608        .F      MOV      r0,r1
        0x00004b2c:    6804        .h      LDR      r4,[r0,#0]
        0x00004b2e:    2052        R       MOVS     r0,#0x52
        0x00004b30:    0200        ..      LSLS     r0,r0,#8
        0x00004b32:    3004        .0      ADDS     r0,#4
        0x00004b34:    0400        ..      LSLS     r0,r0,#16
        0x00004b36:    6805        .h      LDR      r5,[r0,#0]
        0x00004b38:    0428        (.      LSLS     r0,r5,#16
        0x00004b3a:    1900        ..      ADDS     r0,r0,r4
        0x00004b3c:    9000        ..      STR      r0,[sp,#0]
        0x00004b3e:    0370        p.      LSLS     r0,r6,#13
        0x00004b40:    9900        ..      LDR      r1,[sp,#0]
        0x00004b42:    f000fa06    ....    BL       __aeabi_uidiv ; 0x4f52
        0x00004b46:    bdf8        ..      POP      {r3-r7,pc}
    initialize_2M_DAC
        0x00004b48:    b518        ..      PUSH     {r3,r4,lr}
        0x00004b4a:    2020                MOVS     r0,#0x20
        0x00004b4c:    0200        ..      LSLS     r0,r0,#8
        0x00004b4e:    3000        .0      ADDS     r0,#0
        0x00004b50:    0200        ..      LSLS     r0,r0,#8
        0x00004b52:    3007        .0      ADDS     r0,#7
        0x00004b54:    0200        ..      LSLS     r0,r0,#8
        0x00004b56:    3014        .0      ADDS     r0,r0,#0x14
        0x00004b58:    6900        .i      LDR      r0,[r0,#0x10]
        0x00004b5a:    2420         $      MOVS     r4,#0x20
        0x00004b5c:    0224        $.      LSLS     r4,r4,#8
        0x00004b5e:    3400        .4      ADDS     r4,#0
        0x00004b60:    0224        $.      LSLS     r4,r4,#8
        0x00004b62:    3407        .4      ADDS     r4,#7
        0x00004b64:    0224        $.      LSLS     r4,r4,#8
        0x00004b66:    3414        .4      ADDS     r4,r4,#0x14
        0x00004b68:    9000        ..      STR      r0,[sp,#0]
        0x00004b6a:    68e3        .h      LDR      r3,[r4,#0xc]
        0x00004b6c:    68a2        .h      LDR      r2,[r4,#8]
        0x00004b6e:    6861        ah      LDR      r1,[r4,#4]
        0x00004b70:    3c18        .<      SUBS     r4,r4,#0x18
        0x00004b72:    69a0        .i      LDR      r0,[r4,#0x18]
        0x00004b74:    f7fffebe    ....    BL       set_2M_RC_frequency ; 0x48f4
        0x00004b78:    bd18        ..      POP      {r3,r4,pc}
    read_counters
        0x00004b7a:    b570        p.      PUSH     {r4-r6,lr}
        0x00004b7c:    4603        .F      MOV      r3,r0
        0x00004b7e:    460c        .F      MOV      r4,r1
        0x00004b80:    257f        .%      MOVS     r5,#0x7f
        0x00004b82:    2629        )&      MOVS     r6,#0x29
        0x00004b84:    0676        v.      LSLS     r6,r6,#25
        0x00004b86:    6035        5`      STR      r5,[r6,#0]
        0x00004b88:    2552        R%      MOVS     r5,#0x52
        0x00004b8a:    022d        -.      LSLS     r5,r5,#8
        0x00004b8c:    3518        .5      ADDS     r5,r5,#0x18
        0x00004b8e:    042d        -.      LSLS     r5,r5,#16
        0x00004b90:    6828        (h      LDR      r0,[r5,#0]
        0x00004b92:    2552        R%      MOVS     r5,#0x52
        0x00004b94:    022d        -.      LSLS     r5,r5,#8
        0x00004b96:    351c        .5      ADDS     r5,r5,#0x1c
        0x00004b98:    042d        -.      LSLS     r5,r5,#16
        0x00004b9a:    6829        )h      LDR      r1,[r5,#0]
        0x00004b9c:    040d        ..      LSLS     r5,r1,#16
        0x00004b9e:    182d        -.      ADDS     r5,r5,r0
        0x00004ba0:    601d        .`      STR      r5,[r3,#0]
        0x00004ba2:    2552        R%      MOVS     r5,#0x52
        0x00004ba4:    022d        -.      LSLS     r5,r5,#8
        0x00004ba6:    3520         5      ADDS     r5,r5,#0x20
        0x00004ba8:    042d        -.      LSLS     r5,r5,#16
        0x00004baa:    6828        (h      LDR      r0,[r5,#0]
        0x00004bac:    2552        R%      MOVS     r5,#0x52
        0x00004bae:    022d        -.      LSLS     r5,r5,#8
        0x00004bb0:    3524        $5      ADDS     r5,r5,#0x24
        0x00004bb2:    042d        -.      LSLS     r5,r5,#16
        0x00004bb4:    6829        )h      LDR      r1,[r5,#0]
        0x00004bb6:    040d        ..      LSLS     r5,r1,#16
        0x00004bb8:    182d        -.      ADDS     r5,r5,r0
        0x00004bba:    6025        %`      STR      r5,[r4,#0]
        0x00004bbc:    4635        5F      MOV      r5,r6
        0x00004bbe:    6828        (h      LDR      r0,[r5,#0]
        0x00004bc0:    2552        R%      MOVS     r5,#0x52
        0x00004bc2:    022d        -.      LSLS     r5,r5,#8
        0x00004bc4:    3504        .5      ADDS     r5,#4
        0x00004bc6:    042d        -.      LSLS     r5,r5,#16
        0x00004bc8:    6829        )h      LDR      r1,[r5,#0]
        0x00004bca:    040d        ..      LSLS     r5,r1,#16
        0x00004bcc:    182d        -.      ADDS     r5,r5,r0
        0x00004bce:    6015        .`      STR      r5,[r2,#0]
        0x00004bd0:    2500        .%      MOVS     r5,#0
        0x00004bd2:    6035        5`      STR      r5,[r6,#0]
        0x00004bd4:    253f        ?%      MOVS     r5,#0x3f
        0x00004bd6:    022d        -.      LSLS     r5,r5,#8
        0x00004bd8:    35ff        .5      ADDS     r5,r5,#0xff
        0x00004bda:    6035        5`      STR      r5,[r6,#0]
        0x00004bdc:    bd70        p.      POP      {r4-r6,pc}
    update_PN31_byte
        0x00004bde:    b510        ..      PUSH     {r4,lr}
        0x00004be0:    2100        .!      MOVS     r1,#0
        0x00004be2:    e00b        ..      B        0x4bfc ; update_PN31_byte + 30
        0x00004be4:    6803        .h      LDR      r3,[r0,#0]
        0x00004be6:    0f9b        ..      LSRS     r3,r3,#30
        0x00004be8:    6804        .h      LDR      r4,[r0,#0]
        0x00004bea:    0ee4        ..      LSRS     r4,r4,#27
        0x00004bec:    4063        c@      EORS     r3,r3,r4
        0x00004bee:    07da        ..      LSLS     r2,r3,#31
        0x00004bf0:    0fd2        ..      LSRS     r2,r2,#31
        0x00004bf2:    6803        .h      LDR      r3,[r0,#0]
        0x00004bf4:    005b        [.      LSLS     r3,r3,#1
        0x00004bf6:    4313        .C      ORRS     r3,r3,r2
        0x00004bf8:    6003        .`      STR      r3,[r0,#0]
        0x00004bfa:    1c49        I.      ADDS     r1,r1,#1
        0x00004bfc:    2908        .)      CMP      r1,#8
        0x00004bfe:    dbf1        ..      BLT      0x4be4 ; update_PN31_byte + 6
        0x00004c00:    bd10        ..      POP      {r4,pc}
    disable_polyphase_ASC
        0x00004c02:    2020                MOVS     r0,#0x20
        0x00004c04:    0200        ..      LSLS     r0,r0,#8
        0x00004c06:    3000        .0      ADDS     r0,#0
        0x00004c08:    0200        ..      LSLS     r0,r0,#8
        0x00004c0a:    3006        .0      ADDS     r0,#6
        0x00004c0c:    0200        ..      LSLS     r0,r0,#8
        0x00004c0e:    307c        |0      ADDS     r0,r0,#0x7c
        0x00004c10:    6f80        .o      LDR      r0,[r0,#0x78]
        0x00004c12:    2101        .!      MOVS     r1,#1
        0x00004c14:    0509        ..      LSLS     r1,r1,#20
        0x00004c16:    4388        .C      BICS     r0,r0,r1
        0x00004c18:    2120         !      MOVS     r1,#0x20
        0x00004c1a:    0209        ..      LSLS     r1,r1,#8
        0x00004c1c:    3100        .1      ADDS     r1,#0
        0x00004c1e:    0209        ..      LSLS     r1,r1,#8
        0x00004c20:    3106        .1      ADDS     r1,#6
        0x00004c22:    0209        ..      LSLS     r1,r1,#8
        0x00004c24:    317c        |1      ADDS     r1,r1,#0x7c
        0x00004c26:    6788        .g      STR      r0,[r1,#0x78]
        0x00004c28:    4770        pG      BX       lr
    enable_polyphase_ASC
        0x00004c2a:    2020                MOVS     r0,#0x20
        0x00004c2c:    0200        ..      LSLS     r0,r0,#8
        0x00004c2e:    3000        .0      ADDS     r0,#0
        0x00004c30:    0200        ..      LSLS     r0,r0,#8
        0x00004c32:    3006        .0      ADDS     r0,#6
        0x00004c34:    0200        ..      LSLS     r0,r0,#8
        0x00004c36:    307c        |0      ADDS     r0,r0,#0x7c
        0x00004c38:    6f80        .o      LDR      r0,[r0,#0x78]
        0x00004c3a:    2101        .!      MOVS     r1,#1
        0x00004c3c:    0509        ..      LSLS     r1,r1,#20
        0x00004c3e:    4308        .C      ORRS     r0,r0,r1
        0x00004c40:    2120         !      MOVS     r1,#0x20
        0x00004c42:    0209        ..      LSLS     r1,r1,#8
        0x00004c44:    3100        .1      ADDS     r1,#0
        0x00004c46:    0209        ..      LSLS     r1,r1,#8
        0x00004c48:    3106        .1      ADDS     r1,#6
        0x00004c4a:    0209        ..      LSLS     r1,r1,#8
        0x00004c4c:    317c        |1      ADDS     r1,r1,#0x7c
        0x00004c4e:    6788        .g      STR      r0,[r1,#0x78]
        0x00004c50:    4770        pG      BX       lr
    disable_div_power_ASC
        0x00004c52:    2020                MOVS     r0,#0x20
        0x00004c54:    0200        ..      LSLS     r0,r0,#8
        0x00004c56:    3000        .0      ADDS     r0,#0
        0x00004c58:    0200        ..      LSLS     r0,r0,#8
        0x00004c5a:    3006        .0      ADDS     r0,#6
        0x00004c5c:    0200        ..      LSLS     r0,r0,#8
        0x00004c5e:    307c        |0      ADDS     r0,r0,#0x7c
        0x00004c60:    6c00        .l      LDR      r0,[r0,#0x40]
        0x00004c62:    2109        .!      MOVS     r1,#9
        0x00004c64:    06c9        ..      LSLS     r1,r1,#27
        0x00004c66:    4388        .C      BICS     r0,r0,r1
        0x00004c68:    2120         !      MOVS     r1,#0x20
        0x00004c6a:    0209        ..      LSLS     r1,r1,#8
        0x00004c6c:    3100        .1      ADDS     r1,#0
        0x00004c6e:    0209        ..      LSLS     r1,r1,#8
        0x00004c70:    3106        .1      ADDS     r1,#6
        0x00004c72:    0209        ..      LSLS     r1,r1,#8
        0x00004c74:    317c        |1      ADDS     r1,r1,#0x7c
        0x00004c76:    6408        .d      STR      r0,[r1,#0x40]
        0x00004c78:    4770        pG      BX       lr
    enable_div_power_ASC
        0x00004c7a:    2020                MOVS     r0,#0x20
        0x00004c7c:    0200        ..      LSLS     r0,r0,#8
        0x00004c7e:    3000        .0      ADDS     r0,#0
        0x00004c80:    0200        ..      LSLS     r0,r0,#8
        0x00004c82:    3006        .0      ADDS     r0,#6
        0x00004c84:    0200        ..      LSLS     r0,r0,#8
        0x00004c86:    307c        |0      ADDS     r0,r0,#0x7c
        0x00004c88:    6c00        .l      LDR      r0,[r0,#0x40]
        0x00004c8a:    2109        .!      MOVS     r1,#9
        0x00004c8c:    06c9        ..      LSLS     r1,r1,#27
        0x00004c8e:    4308        .C      ORRS     r0,r0,r1
        0x00004c90:    2120         !      MOVS     r1,#0x20
        0x00004c92:    0209        ..      LSLS     r1,r1,#8
        0x00004c94:    3100        .1      ADDS     r1,#0
        0x00004c96:    0209        ..      LSLS     r1,r1,#8
        0x00004c98:    3106        .1      ADDS     r1,#6
        0x00004c9a:    0209        ..      LSLS     r1,r1,#8
        0x00004c9c:    317c        |1      ADDS     r1,r1,#0x7c
        0x00004c9e:    6408        .d      STR      r0,[r1,#0x40]
        0x00004ca0:    4770        pG      BX       lr
    ext_clk_ble_ASC
        0x00004ca2:    2020                MOVS     r0,#0x20
        0x00004ca4:    0200        ..      LSLS     r0,r0,#8
        0x00004ca6:    3000        .0      ADDS     r0,#0
        0x00004ca8:    0200        ..      LSLS     r0,r0,#8
        0x00004caa:    3006        .0      ADDS     r0,#6
        0x00004cac:    0200        ..      LSLS     r0,r0,#8
        0x00004cae:    30fc        .0      ADDS     r0,r0,#0xfc
        0x00004cb0:    6800        .h      LDR      r0,[r0,#0]
        0x00004cb2:    2101        .!      MOVS     r1,#1
        0x00004cb4:    04c9        ..      LSLS     r1,r1,#19
        0x00004cb6:    4308        .C      ORRS     r0,r0,r1
        0x00004cb8:    2120         !      MOVS     r1,#0x20
        0x00004cba:    0209        ..      LSLS     r1,r1,#8
        0x00004cbc:    3100        .1      ADDS     r1,#0
        0x00004cbe:    0209        ..      LSLS     r1,r1,#8
        0x00004cc0:    3106        .1      ADDS     r1,#6
        0x00004cc2:    0209        ..      LSLS     r1,r1,#8
        0x00004cc4:    31fc        .1      ADDS     r1,r1,#0xfc
        0x00004cc6:    6008        .`      STR      r0,[r1,#0]
        0x00004cc8:    4770        pG      BX       lr
    int_clk_ble_ASC
        0x00004cca:    2020                MOVS     r0,#0x20
        0x00004ccc:    0200        ..      LSLS     r0,r0,#8
        0x00004cce:    3000        .0      ADDS     r0,#0
        0x00004cd0:    0200        ..      LSLS     r0,r0,#8
        0x00004cd2:    3006        .0      ADDS     r0,#6
        0x00004cd4:    0200        ..      LSLS     r0,r0,#8
        0x00004cd6:    30fc        .0      ADDS     r0,r0,#0xfc
        0x00004cd8:    6800        .h      LDR      r0,[r0,#0]
        0x00004cda:    2101        .!      MOVS     r1,#1
        0x00004cdc:    04c9        ..      LSLS     r1,r1,#19
        0x00004cde:    4388        .C      BICS     r0,r0,r1
        0x00004ce0:    2120         !      MOVS     r1,#0x20
        0x00004ce2:    0209        ..      LSLS     r1,r1,#8
        0x00004ce4:    3100        .1      ADDS     r1,#0
        0x00004ce6:    0209        ..      LSLS     r1,r1,#8
        0x00004ce8:    3106        .1      ADDS     r1,#6
        0x00004cea:    0209        ..      LSLS     r1,r1,#8
        0x00004cec:    31fc        .1      ADDS     r1,r1,#0xfc
        0x00004cee:    6008        .`      STR      r0,[r1,#0]
        0x00004cf0:    4770        pG      BX       lr
    enable_1mhz_ble_ASC
        0x00004cf2:    2020                MOVS     r0,#0x20
        0x00004cf4:    0200        ..      LSLS     r0,r0,#8
        0x00004cf6:    3000        .0      ADDS     r0,#0
        0x00004cf8:    0200        ..      LSLS     r0,r0,#8
        0x00004cfa:    3006        .0      ADDS     r0,#6
        0x00004cfc:    0200        ..      LSLS     r0,r0,#8
        0x00004cfe:    30fc        .0      ADDS     r0,r0,#0xfc
        0x00004d00:    6800        .h      LDR      r0,[r0,#0]
        0x00004d02:    2103        .!      MOVS     r1,#3
        0x00004d04:    0449        I.      LSLS     r1,r1,#17
        0x00004d06:    4388        .C      BICS     r0,r0,r1
        0x00004d08:    2120         !      MOVS     r1,#0x20
        0x00004d0a:    0209        ..      LSLS     r1,r1,#8
        0x00004d0c:    3100        .1      ADDS     r1,#0
        0x00004d0e:    0209        ..      LSLS     r1,r1,#8
        0x00004d10:    3106        .1      ADDS     r1,#6
        0x00004d12:    0209        ..      LSLS     r1,r1,#8
        0x00004d14:    31fc        .1      ADDS     r1,r1,#0xfc
        0x00004d16:    6008        .`      STR      r0,[r1,#0]
        0x00004d18:    4770        pG      BX       lr
    disable_1mhz_ble_ASC
        0x00004d1a:    2020                MOVS     r0,#0x20
        0x00004d1c:    0200        ..      LSLS     r0,r0,#8
        0x00004d1e:    3000        .0      ADDS     r0,#0
        0x00004d20:    0200        ..      LSLS     r0,r0,#8
        0x00004d22:    3006        .0      ADDS     r0,#6
        0x00004d24:    0200        ..      LSLS     r0,r0,#8
        0x00004d26:    30fc        .0      ADDS     r0,r0,#0xfc
        0x00004d28:    6800        .h      LDR      r0,[r0,#0]
        0x00004d2a:    2103        .!      MOVS     r1,#3
        0x00004d2c:    0449        I.      LSLS     r1,r1,#17
        0x00004d2e:    4308        .C      ORRS     r0,r0,r1
        0x00004d30:    2120         !      MOVS     r1,#0x20
        0x00004d32:    0209        ..      LSLS     r1,r1,#8
        0x00004d34:    3100        .1      ADDS     r1,#0
        0x00004d36:    0209        ..      LSLS     r1,r1,#8
        0x00004d38:    3106        .1      ADDS     r1,#6
        0x00004d3a:    0209        ..      LSLS     r1,r1,#8
        0x00004d3c:    31fc        .1      ADDS     r1,r1,#0xfc
        0x00004d3e:    6008        .`      STR      r0,[r1,#0]
        0x00004d40:    4770        pG      BX       lr
    .text
    __use_no_semihosting
        0x00004d42:    4770        pG      BX       lr
    .text
    __2printf
        0x00004d44:    b40f        ..      PUSH     {r0-r3}
        0x00004d46:    4905        .I      LDR      r1,[pc,#20] ; [0x4d5c] = 0x20000014
        0x00004d48:    b510        ..      PUSH     {r4,lr}
        0x00004d4a:    aa03        ..      ADD      r2,sp,#0xc
        0x00004d4c:    9802        ..      LDR      r0,[sp,#8]
        0x00004d4e:    f000fd11    ....    BL       _printf_char_file ; 0x5774
        0x00004d52:    bc10        ..      POP      {r4}
        0x00004d54:    bc08        ..      POP      {r3}
        0x00004d56:    b004        ..      ADD      sp,sp,#0x10
        0x00004d58:    4718        .G      BX       r3
    $d
        0x00004d5a:    0000        ..      DCW    0
        0x00004d5c:    20000014    ...     DCD    536870932
    $t
    .text
    __printf
        0x00004d60:    b5f8        ..      PUSH     {r3-r7,lr}
        0x00004d62:    460e        .F      MOV      r6,r1
        0x00004d64:    4604        .F      MOV      r4,r0
        0x00004d66:    2000        .       MOVS     r0,#0
        0x00004d68:    6220         b      STR      r0,[r4,#0x20]
        0x00004d6a:    4620         F      MOV      r0,r4
        0x00004d6c:    68e1        .h      LDR      r1,[r4,#0xc]
        0x00004d6e:    4788        .G      BLX      r1
        0x00004d70:    2800        .(      CMP      r0,#0
        0x00004d72:    d029        ).      BEQ      0x4dc8 ; __printf + 104
        0x00004d74:    2825        %(      CMP      r0,#0x25
        0x00004d76:    d002        ..      BEQ      0x4d7e ; __printf + 30
        0x00004d78:    6862        bh      LDR      r2,[r4,#4]
        0x00004d7a:    68a1        .h      LDR      r1,[r4,#8]
        0x00004d7c:    e020         .      B        0x4dc0 ; __printf + 96
        0x00004d7e:    68e1        .h      LDR      r1,[r4,#0xc]
        0x00004d80:    4620         F      MOV      r0,r4
        0x00004d82:    2700        .'      MOVS     r7,#0
        0x00004d84:    4788        .G      BLX      r1
        0x00004d86:    0005        ..      MOVS     r5,r0
        0x00004d88:    d01e        ..      BEQ      0x4dc8 ; __printf + 104
        0x00004d8a:    4628        (F      MOV      r0,r5
        0x00004d8c:    3841        A8      SUBS     r0,r0,#0x41
        0x00004d8e:    2819        .(      CMP      r0,#0x19
        0x00004d90:    d802        ..      BHI      0x4d98 ; __printf + 56
        0x00004d92:    2701        .'      MOVS     r7,#1
        0x00004d94:    02ff        ..      LSLS     r7,r7,#11
        0x00004d96:    3520         5      ADDS     r5,r5,#0x20
        0x00004d98:    4632        2F      MOV      r2,r6
        0x00004d9a:    4620         F      MOV      r0,r4
        0x00004d9c:    6027        '`      STR      r7,[r4,#0]
        0x00004d9e:    4629        )F      MOV      r1,r5
        0x00004da0:    f7fbf9ac    ....    BL       _printf_percent ; 0xfc
        0x00004da4:    2800        .(      CMP      r0,#0
        0x00004da6:    d008        ..      BEQ      0x4dba ; __printf + 90
        0x00004da8:    2801        .(      CMP      r0,#1
        0x00004daa:    d004        ..      BEQ      0x4db6 ; __printf + 86
        0x00004dac:    1df6        ..      ADDS     r6,r6,#7
        0x00004dae:    08f6        ..      LSRS     r6,r6,#3
        0x00004db0:    00f6        ..      LSLS     r6,r6,#3
        0x00004db2:    3608        .6      ADDS     r6,r6,#8
        0x00004db4:    e7d9        ..      B        0x4d6a ; __printf + 10
        0x00004db6:    1d36        6.      ADDS     r6,r6,#4
        0x00004db8:    e7d7        ..      B        0x4d6a ; __printf + 10
        0x00004dba:    6862        bh      LDR      r2,[r4,#4]
        0x00004dbc:    4628        (F      MOV      r0,r5
        0x00004dbe:    68a1        .h      LDR      r1,[r4,#8]
        0x00004dc0:    4790        .G      BLX      r2
        0x00004dc2:    6a20         j      LDR      r0,[r4,#0x20]
        0x00004dc4:    1c40        @.      ADDS     r0,r0,#1
        0x00004dc6:    e7cf        ..      B        0x4d68 ; __printf + 8
        0x00004dc8:    6a20         j      LDR      r0,[r4,#0x20]
        0x00004dca:    bdf8        ..      POP      {r3-r7,pc}
    .text
    _printf_int_dec
        0x00004dcc:    b5f7        ..      PUSH     {r0-r2,r4-r7,lr}
        0x00004dce:    2500        .%      MOVS     r5,#0
        0x00004dd0:    2975        u)      CMP      r1,#0x75
        0x00004dd2:    6810        .h      LDR      r0,[r2,#0]
        0x00004dd4:    9900        ..      LDR      r1,[sp,#0]
        0x00004dd6:    a614        ..      ADR      r6,{pc}+0x52 ; 0x4e28
        0x00004dd8:    d011        ..      BEQ      0x4dfe ; _printf_int_dec + 50
        0x00004dda:    46c0        .F      MOV      r8,r8
        0x00004ddc:    46c0        .F      MOV      r8,r8
        0x00004dde:    2800        .(      CMP      r0,#0
        0x00004de0:    da02        ..      BGE      0x4de8 ; _printf_int_dec + 28
        0x00004de2:    4240        @B      RSBS     r0,r0,#0
        0x00004de4:    a611        ..      ADR      r6,{pc}+0x48 ; 0x4e2c
        0x00004de6:    e008        ..      B        0x4dfa ; _printf_int_dec + 46
        0x00004de8:    9900        ..      LDR      r1,[sp,#0]
        0x00004dea:    6809        .h      LDR      r1,[r1,#0]
        0x00004dec:    078a        ..      LSLS     r2,r1,#30
        0x00004dee:    d501        ..      BPL      0x4df4 ; _printf_int_dec + 40
        0x00004df0:    a60f        ..      ADR      r6,{pc}+0x40 ; 0x4e30
        0x00004df2:    e002        ..      B        0x4dfa ; _printf_int_dec + 46
        0x00004df4:    0749        I.      LSLS     r1,r1,#29
        0x00004df6:    d504        ..      BPL      0x4e02 ; _printf_int_dec + 54
        0x00004df8:    a60e        ..      ADR      r6,{pc}+0x3c ; 0x4e34
        0x00004dfa:    2501        .%      MOVS     r5,#1
        0x00004dfc:    e001        ..      B        0x4e02 ; _printf_int_dec + 54
        0x00004dfe:    46c0        .F      MOV      r8,r8
        0x00004e00:    46c0        .F      MOV      r8,r8
        0x00004e02:    9f00        ..      LDR      r7,[sp,#0]
        0x00004e04:    2400        .$      MOVS     r4,#0
        0x00004e06:    3724        $7      ADDS     r7,r7,#0x24
        0x00004e08:    e004        ..      B        0x4e14 ; _printf_int_dec + 72
        0x00004e0a:    f000fcc7    ....    BL       __rt_udiv10 ; 0x579c
        0x00004e0e:    3130        01      ADDS     r1,r1,#0x30
        0x00004e10:    5539        9U      STRB     r1,[r7,r4]
        0x00004e12:    1c64        d.      ADDS     r4,r4,#1
        0x00004e14:    2800        .(      CMP      r0,#0
        0x00004e16:    d1f8        ..      BNE      0x4e0a ; _printf_int_dec + 62
        0x00004e18:    462b        +F      MOV      r3,r5
        0x00004e1a:    4632        2F      MOV      r2,r6
        0x00004e1c:    4621        !F      MOV      r1,r4
        0x00004e1e:    9800        ..      LDR      r0,[sp,#0]
        0x00004e20:    f000fc4f    ..O.    BL       _printf_int_common ; 0x56c2
        0x00004e24:    bdfe        ..      POP      {r1-r7,pc}
    $d
        0x00004e26:    0000        ..      DCW    0
        0x00004e28:    00000000    ....    DCD    0
        0x00004e2c:    0000002d    -...    DCD    45
        0x00004e30:    0000002b    +...    DCD    43
        0x00004e34:    00000020     ...    DCD    32
    $t
    .text
    _printf_int_hex
    _printf_longlong_hex
        0x00004e38:    b570        p.      PUSH     {r4-r6,lr}
        0x00004e3a:    4604        .F      MOV      r4,r0
        0x00004e3c:    460d        .F      MOV      r5,r1
        0x00004e3e:    4621        !F      MOV      r1,r4
        0x00004e40:    6810        .h      LDR      r0,[r2,#0]
        0x00004e42:    46c0        .F      MOV      r8,r8
        0x00004e44:    46c0        .F      MOV      r8,r8
        0x00004e46:    8821        !.      LDRH     r1,[r4,#0]
        0x00004e48:    0509        ..      LSLS     r1,r1,#20
        0x00004e4a:    d502        ..      BPL      0x4e52 ; _printf_int_hex + 26
        0x00004e4c:    4a0f        .J      LDR      r2,[pc,#60] ; [0x4e8c] = 0xad6
        0x00004e4e:    447a        zD      ADD      r2,r2,pc
        0x00004e50:    e002        ..      B        0x4e58 ; _printf_int_hex + 32
        0x00004e52:    4a0e        .J      LDR      r2,[pc,#56] ; [0x4e8c] = 0xad6
        0x00004e54:    447a        zD      ADD      r2,r2,pc
        0x00004e56:    320e        .2      ADDS     r2,r2,#0xe
        0x00004e58:    4623        #F      MOV      r3,r4
        0x00004e5a:    2100        .!      MOVS     r1,#0
        0x00004e5c:    3324        $3      ADDS     r3,r3,#0x24
        0x00004e5e:    e005        ..      B        0x4e6c ; _printf_int_hex + 52
        0x00004e60:    0706        ..      LSLS     r6,r0,#28
        0x00004e62:    0900        ..      LSRS     r0,r0,#4
        0x00004e64:    0f36        6.      LSRS     r6,r6,#28
        0x00004e66:    5d96        .]      LDRB     r6,[r2,r6]
        0x00004e68:    545e        ^T      STRB     r6,[r3,r1]
        0x00004e6a:    1c49        I.      ADDS     r1,r1,#1
        0x00004e6c:    2800        .(      CMP      r0,#0
        0x00004e6e:    d1f7        ..      BNE      0x4e60 ; _printf_int_hex + 40
        0x00004e70:    7820         x      LDRB     r0,[r4,#0]
        0x00004e72:    2300        .#      MOVS     r3,#0
        0x00004e74:    0700        ..      LSLS     r0,r0,#28
        0x00004e76:    d505        ..      BPL      0x4e84 ; _printf_int_hex + 76
        0x00004e78:    2d70        p-      CMP      r5,#0x70
        0x00004e7a:    d003        ..      BEQ      0x4e84 ; _printf_int_hex + 76
        0x00004e7c:    2900        .)      CMP      r1,#0
        0x00004e7e:    d001        ..      BEQ      0x4e84 ; _printf_int_hex + 76
        0x00004e80:    2302        .#      MOVS     r3,#2
        0x00004e82:    3211        .2      ADDS     r2,r2,#0x11
        0x00004e84:    4620         F      MOV      r0,r4
        0x00004e86:    f000fc1c    ....    BL       _printf_int_common ; 0x56c2
        0x00004e8a:    bd70        p.      POP      {r4-r6,pc}
    $d
        0x00004e8c:    00000ad6    ....    DCD    2774
    $t
    .text
    __aeabi_memcpy
    __rt_memcpy
        0x00004e90:    b5f8        ..      PUSH     {r3-r7,lr}
        0x00004e92:    2a04        .*      CMP      r2,#4
        0x00004e94:    d32c        ,.      BCC      0x4ef0 ; __aeabi_memcpy + 96
        0x00004e96:    0783        ..      LSLS     r3,r0,#30
        0x00004e98:    d012        ..      BEQ      0x4ec0 ; __aeabi_memcpy + 48
        0x00004e9a:    780b        .x      LDRB     r3,[r1,#0]
        0x00004e9c:    1c49        I.      ADDS     r1,r1,#1
        0x00004e9e:    7003        .p      STRB     r3,[r0,#0]
        0x00004ea0:    1c40        @.      ADDS     r0,r0,#1
        0x00004ea2:    1e52        R.      SUBS     r2,r2,#1
        0x00004ea4:    0783        ..      LSLS     r3,r0,#30
        0x00004ea6:    d00b        ..      BEQ      0x4ec0 ; __aeabi_memcpy + 48
        0x00004ea8:    780b        .x      LDRB     r3,[r1,#0]
        0x00004eaa:    1c49        I.      ADDS     r1,r1,#1
        0x00004eac:    7003        .p      STRB     r3,[r0,#0]
        0x00004eae:    1c40        @.      ADDS     r0,r0,#1
        0x00004eb0:    1e52        R.      SUBS     r2,r2,#1
        0x00004eb2:    0783        ..      LSLS     r3,r0,#30
        0x00004eb4:    d004        ..      BEQ      0x4ec0 ; __aeabi_memcpy + 48
        0x00004eb6:    780b        .x      LDRB     r3,[r1,#0]
        0x00004eb8:    1c49        I.      ADDS     r1,r1,#1
        0x00004eba:    7003        .p      STRB     r3,[r0,#0]
        0x00004ebc:    1c40        @.      ADDS     r0,r0,#1
        0x00004ebe:    1e52        R.      SUBS     r2,r2,#1
        0x00004ec0:    078b        ..      LSLS     r3,r1,#30
        0x00004ec2:    0f9b        ..      LSRS     r3,r3,#30
        0x00004ec4:    d005        ..      BEQ      0x4ed2 ; __aeabi_memcpy + 66
        0x00004ec6:    1ac9        ..      SUBS     r1,r1,r3
        0x00004ec8:    00df        ..      LSLS     r7,r3,#3
        0x00004eca:    2320         #      MOVS     r3,#0x20
        0x00004ecc:    1bde        ..      SUBS     r6,r3,r7
        0x00004ece:    c908        ..      LDM      r1!,{r3}
        0x00004ed0:    e00a        ..      B        0x4ee8 ; __aeabi_memcpy + 88
        0x00004ed2:    f7fbf933    ..3.    BL       __aeabi_memcpy4 ; 0x13c
        0x00004ed6:    bdf8        ..      POP      {r3-r7,pc}
        0x00004ed8:    461d        .F      MOV      r5,r3
        0x00004eda:    c908        ..      LDM      r1!,{r3}
        0x00004edc:    40fd        .@      LSRS     r5,r5,r7
        0x00004ede:    461c        .F      MOV      r4,r3
        0x00004ee0:    40b4        .@      LSLS     r4,r4,r6
        0x00004ee2:    432c        ,C      ORRS     r4,r4,r5
        0x00004ee4:    c010        ..      STM      r0!,{r4}
        0x00004ee6:    1f12        ..      SUBS     r2,r2,#4
        0x00004ee8:    2a04        .*      CMP      r2,#4
        0x00004eea:    d2f5        ..      BCS      0x4ed8 ; __aeabi_memcpy + 72
        0x00004eec:    08f3        ..      LSRS     r3,r6,#3
        0x00004eee:    1ac9        ..      SUBS     r1,r1,r3
        0x00004ef0:    1e52        R.      SUBS     r2,r2,#1
        0x00004ef2:    d4f0        ..      BMI      0x4ed6 ; __aeabi_memcpy + 70
        0x00004ef4:    780b        .x      LDRB     r3,[r1,#0]
        0x00004ef6:    1c49        I.      ADDS     r1,r1,#1
        0x00004ef8:    7003        .p      STRB     r3,[r0,#0]
        0x00004efa:    1c40        @.      ADDS     r0,r0,#1
        0x00004efc:    1e52        R.      SUBS     r2,r2,#1
        0x00004efe:    d4ea        ..      BMI      0x4ed6 ; __aeabi_memcpy + 70
        0x00004f00:    780b        .x      LDRB     r3,[r1,#0]
        0x00004f02:    1c49        I.      ADDS     r1,r1,#1
        0x00004f04:    7003        .p      STRB     r3,[r0,#0]
        0x00004f06:    1c40        @.      ADDS     r0,r0,#1
        0x00004f08:    2a01        .*      CMP      r2,#1
        0x00004f0a:    d4e4        ..      BMI      0x4ed6 ; __aeabi_memcpy + 70
        0x00004f0c:    7809        .x      LDRB     r1,[r1,#0]
        0x00004f0e:    7001        .p      STRB     r1,[r0,#0]
        0x00004f10:    bdf8        ..      POP      {r3-r7,pc}
    .text
    _memset_w
        0x00004f12:    e001        ..      B        0x4f18 ; _memset_w + 6
        0x00004f14:    c004        ..      STM      r0!,{r2}
        0x00004f16:    1f09        ..      SUBS     r1,r1,#4
        0x00004f18:    2904        .)      CMP      r1,#4
        0x00004f1a:    d2fb        ..      BCS      0x4f14 ; _memset_w + 2
        0x00004f1c:    078b        ..      LSLS     r3,r1,#30
        0x00004f1e:    d501        ..      BPL      0x4f24 ; _memset_w + 18
        0x00004f20:    8002        ..      STRH     r2,[r0,#0]
        0x00004f22:    1c80        ..      ADDS     r0,r0,#2
        0x00004f24:    07c9        ..      LSLS     r1,r1,#31
        0x00004f26:    d000        ..      BEQ      0x4f2a ; _memset_w + 24
        0x00004f28:    7002        .p      STRB     r2,[r0,#0]
        0x00004f2a:    4770        pG      BX       lr
    _memset
        0x00004f2c:    2900        .)      CMP      r1,#0
        0x00004f2e:    d00b        ..      BEQ      0x4f48 ; _memset + 28
        0x00004f30:    07c3        ..      LSLS     r3,r0,#31
        0x00004f32:    d002        ..      BEQ      0x4f3a ; _memset + 14
        0x00004f34:    7002        .p      STRB     r2,[r0,#0]
        0x00004f36:    1c40        @.      ADDS     r0,r0,#1
        0x00004f38:    1e49        I.      SUBS     r1,r1,#1
        0x00004f3a:    2902        .)      CMP      r1,#2
        0x00004f3c:    d304        ..      BCC      0x4f48 ; _memset + 28
        0x00004f3e:    0783        ..      LSLS     r3,r0,#30
        0x00004f40:    d502        ..      BPL      0x4f48 ; _memset + 28
        0x00004f42:    8002        ..      STRH     r2,[r0,#0]
        0x00004f44:    1c80        ..      ADDS     r0,r0,#2
        0x00004f46:    1e89        ..      SUBS     r1,r1,#2
        0x00004f48:    e7e3        ..      B        _memset_w ; 0x4f12
    __aeabi_memclr
    __rt_memclr
        0x00004f4a:    2200        ."      MOVS     r2,#0
        0x00004f4c:    e7ee        ..      B        _memset ; 0x4f2c
    __aeabi_memclr4
    __aeabi_memclr8
    __rt_memclr_w
        0x00004f4e:    2200        ."      MOVS     r2,#0
        0x00004f50:    e7df        ..      B        _memset_w ; 0x4f12
    .text
    __aeabi_uidiv
    __aeabi_uidivmod
        0x00004f52:    2200        ."      MOVS     r2,#0
        0x00004f54:    0903        ..      LSRS     r3,r0,#4
        0x00004f56:    428b        .B      CMP      r3,r1
        0x00004f58:    d32c        ,.      BCC      0x4fb4 ; __aeabi_idiv + 78
        0x00004f5a:    0a03        ..      LSRS     r3,r0,#8
        0x00004f5c:    428b        .B      CMP      r3,r1
        0x00004f5e:    d311        ..      BCC      0x4f84 ; __aeabi_idiv + 30
        0x00004f60:    2300        .#      MOVS     r3,#0
        0x00004f62:    469c        .F      MOV      r12,r3
        0x00004f64:    e04e        N.      B        0x5004 ; __aeabi_idiv + 158
    __aeabi_idiv
    __aeabi_idivmod
        0x00004f66:    4603        .F      MOV      r3,r0
        0x00004f68:    430b        .C      ORRS     r3,r3,r1
        0x00004f6a:    d43c        <.      BMI      0x4fe6 ; __aeabi_idiv + 128
        0x00004f6c:    2200        ."      MOVS     r2,#0
        0x00004f6e:    0843        C.      LSRS     r3,r0,#1
        0x00004f70:    428b        .B      CMP      r3,r1
        0x00004f72:    d331        1.      BCC      0x4fd8 ; __aeabi_idiv + 114
        0x00004f74:    0903        ..      LSRS     r3,r0,#4
        0x00004f76:    428b        .B      CMP      r3,r1
        0x00004f78:    d31c        ..      BCC      0x4fb4 ; __aeabi_idiv + 78
        0x00004f7a:    0a03        ..      LSRS     r3,r0,#8
        0x00004f7c:    428b        .B      CMP      r3,r1
        0x00004f7e:    d301        ..      BCC      0x4f84 ; __aeabi_idiv + 30
        0x00004f80:    4694        .F      MOV      r12,r2
        0x00004f82:    e03f        ?.      B        0x5004 ; __aeabi_idiv + 158
        0x00004f84:    09c3        ..      LSRS     r3,r0,#7
        0x00004f86:    428b        .B      CMP      r3,r1
        0x00004f88:    d301        ..      BCC      0x4f8e ; __aeabi_idiv + 40
        0x00004f8a:    01cb        ..      LSLS     r3,r1,#7
        0x00004f8c:    1ac0        ..      SUBS     r0,r0,r3
        0x00004f8e:    4152        RA      ADCS     r2,r2,r2
        0x00004f90:    0983        ..      LSRS     r3,r0,#6
        0x00004f92:    428b        .B      CMP      r3,r1
        0x00004f94:    d301        ..      BCC      0x4f9a ; __aeabi_idiv + 52
        0x00004f96:    018b        ..      LSLS     r3,r1,#6
        0x00004f98:    1ac0        ..      SUBS     r0,r0,r3
        0x00004f9a:    4152        RA      ADCS     r2,r2,r2
        0x00004f9c:    0943        C.      LSRS     r3,r0,#5
        0x00004f9e:    428b        .B      CMP      r3,r1
        0x00004fa0:    d301        ..      BCC      0x4fa6 ; __aeabi_idiv + 64
        0x00004fa2:    014b        K.      LSLS     r3,r1,#5
        0x00004fa4:    1ac0        ..      SUBS     r0,r0,r3
        0x00004fa6:    4152        RA      ADCS     r2,r2,r2
        0x00004fa8:    0903        ..      LSRS     r3,r0,#4
        0x00004faa:    428b        .B      CMP      r3,r1
        0x00004fac:    d301        ..      BCC      0x4fb2 ; __aeabi_idiv + 76
        0x00004fae:    010b        ..      LSLS     r3,r1,#4
        0x00004fb0:    1ac0        ..      SUBS     r0,r0,r3
        0x00004fb2:    4152        RA      ADCS     r2,r2,r2
        0x00004fb4:    08c3        ..      LSRS     r3,r0,#3
        0x00004fb6:    428b        .B      CMP      r3,r1
        0x00004fb8:    d301        ..      BCC      0x4fbe ; __aeabi_idiv + 88
        0x00004fba:    00cb        ..      LSLS     r3,r1,#3
        0x00004fbc:    1ac0        ..      SUBS     r0,r0,r3
        0x00004fbe:    4152        RA      ADCS     r2,r2,r2
        0x00004fc0:    0883        ..      LSRS     r3,r0,#2
        0x00004fc2:    428b        .B      CMP      r3,r1
        0x00004fc4:    d301        ..      BCC      0x4fca ; __aeabi_idiv + 100
        0x00004fc6:    008b        ..      LSLS     r3,r1,#2
        0x00004fc8:    1ac0        ..      SUBS     r0,r0,r3
        0x00004fca:    4152        RA      ADCS     r2,r2,r2
        0x00004fcc:    0843        C.      LSRS     r3,r0,#1
        0x00004fce:    428b        .B      CMP      r3,r1
        0x00004fd0:    d301        ..      BCC      0x4fd6 ; __aeabi_idiv + 112
        0x00004fd2:    004b        K.      LSLS     r3,r1,#1
        0x00004fd4:    1ac0        ..      SUBS     r0,r0,r3
        0x00004fd6:    4152        RA      ADCS     r2,r2,r2
        0x00004fd8:    1a41        A.      SUBS     r1,r0,r1
        0x00004fda:    d200        ..      BCS      0x4fde ; __aeabi_idiv + 120
        0x00004fdc:    4601        .F      MOV      r1,r0
        0x00004fde:    4152        RA      ADCS     r2,r2,r2
        0x00004fe0:    4610        .F      MOV      r0,r2
        0x00004fe2:    4770        pG      BX       lr
        0x00004fe4:    e05d        ].      B        0x50a2 ; __aeabi_idiv + 316
        0x00004fe6:    0fca        ..      LSRS     r2,r1,#31
        0x00004fe8:    d000        ..      BEQ      0x4fec ; __aeabi_idiv + 134
        0x00004fea:    4249        IB      RSBS     r1,r1,#0
        0x00004fec:    1003        ..      ASRS     r3,r0,#32
        0x00004fee:    d300        ..      BCC      0x4ff2 ; __aeabi_idiv + 140
        0x00004ff0:    4240        @B      RSBS     r0,r0,#0
        0x00004ff2:    4053        S@      EORS     r3,r3,r2
        0x00004ff4:    2200        ."      MOVS     r2,#0
        0x00004ff6:    469c        .F      MOV      r12,r3
        0x00004ff8:    0903        ..      LSRS     r3,r0,#4
        0x00004ffa:    428b        .B      CMP      r3,r1
        0x00004ffc:    d32d        -.      BCC      0x505a ; __aeabi_idiv + 244
        0x00004ffe:    0a03        ..      LSRS     r3,r0,#8
        0x00005000:    428b        .B      CMP      r3,r1
        0x00005002:    d312        ..      BCC      0x502a ; __aeabi_idiv + 196
        0x00005004:    22fc        ."      MOVS     r2,#0xfc
        0x00005006:    0189        ..      LSLS     r1,r1,#6
        0x00005008:    ba12        ..      REV      r2,r2
        0x0000500a:    0a03        ..      LSRS     r3,r0,#8
        0x0000500c:    428b        .B      CMP      r3,r1
        0x0000500e:    d30c        ..      BCC      0x502a ; __aeabi_idiv + 196
        0x00005010:    0189        ..      LSLS     r1,r1,#6
        0x00005012:    1192        ..      ASRS     r2,r2,#6
        0x00005014:    428b        .B      CMP      r3,r1
        0x00005016:    d308        ..      BCC      0x502a ; __aeabi_idiv + 196
        0x00005018:    0189        ..      LSLS     r1,r1,#6
        0x0000501a:    1192        ..      ASRS     r2,r2,#6
        0x0000501c:    428b        .B      CMP      r3,r1
        0x0000501e:    d304        ..      BCC      0x502a ; __aeabi_idiv + 196
        0x00005020:    0189        ..      LSLS     r1,r1,#6
        0x00005022:    d03a        :.      BEQ      0x509a ; __aeabi_idiv + 308
        0x00005024:    1192        ..      ASRS     r2,r2,#6
        0x00005026:    e000        ..      B        0x502a ; __aeabi_idiv + 196
        0x00005028:    0989        ..      LSRS     r1,r1,#6
        0x0000502a:    09c3        ..      LSRS     r3,r0,#7
        0x0000502c:    428b        .B      CMP      r3,r1
        0x0000502e:    d301        ..      BCC      0x5034 ; __aeabi_idiv + 206
        0x00005030:    01cb        ..      LSLS     r3,r1,#7
        0x00005032:    1ac0        ..      SUBS     r0,r0,r3
        0x00005034:    4152        RA      ADCS     r2,r2,r2
        0x00005036:    0983        ..      LSRS     r3,r0,#6
        0x00005038:    428b        .B      CMP      r3,r1
        0x0000503a:    d301        ..      BCC      0x5040 ; __aeabi_idiv + 218
        0x0000503c:    018b        ..      LSLS     r3,r1,#6
        0x0000503e:    1ac0        ..      SUBS     r0,r0,r3
        0x00005040:    4152        RA      ADCS     r2,r2,r2
        0x00005042:    0943        C.      LSRS     r3,r0,#5
        0x00005044:    428b        .B      CMP      r3,r1
        0x00005046:    d301        ..      BCC      0x504c ; __aeabi_idiv + 230
        0x00005048:    014b        K.      LSLS     r3,r1,#5
        0x0000504a:    1ac0        ..      SUBS     r0,r0,r3
        0x0000504c:    4152        RA      ADCS     r2,r2,r2
        0x0000504e:    0903        ..      LSRS     r3,r0,#4
        0x00005050:    428b        .B      CMP      r3,r1
        0x00005052:    d301        ..      BCC      0x5058 ; __aeabi_idiv + 242
        0x00005054:    010b        ..      LSLS     r3,r1,#4
        0x00005056:    1ac0        ..      SUBS     r0,r0,r3
        0x00005058:    4152        RA      ADCS     r2,r2,r2
        0x0000505a:    08c3        ..      LSRS     r3,r0,#3
        0x0000505c:    428b        .B      CMP      r3,r1
        0x0000505e:    d301        ..      BCC      0x5064 ; __aeabi_idiv + 254
        0x00005060:    00cb        ..      LSLS     r3,r1,#3
        0x00005062:    1ac0        ..      SUBS     r0,r0,r3
        0x00005064:    4152        RA      ADCS     r2,r2,r2
        0x00005066:    0883        ..      LSRS     r3,r0,#2
        0x00005068:    428b        .B      CMP      r3,r1
        0x0000506a:    d301        ..      BCC      0x5070 ; __aeabi_idiv + 266
        0x0000506c:    008b        ..      LSLS     r3,r1,#2
        0x0000506e:    1ac0        ..      SUBS     r0,r0,r3
        0x00005070:    4152        RA      ADCS     r2,r2,r2
        0x00005072:    d2d9        ..      BCS      0x5028 ; __aeabi_idiv + 194
        0x00005074:    0843        C.      LSRS     r3,r0,#1
        0x00005076:    428b        .B      CMP      r3,r1
        0x00005078:    d301        ..      BCC      0x507e ; __aeabi_idiv + 280
        0x0000507a:    004b        K.      LSLS     r3,r1,#1
        0x0000507c:    1ac0        ..      SUBS     r0,r0,r3
        0x0000507e:    4152        RA      ADCS     r2,r2,r2
        0x00005080:    1a41        A.      SUBS     r1,r0,r1
        0x00005082:    d200        ..      BCS      0x5086 ; __aeabi_idiv + 288
        0x00005084:    4601        .F      MOV      r1,r0
        0x00005086:    4663        cF      MOV      r3,r12
        0x00005088:    4152        RA      ADCS     r2,r2,r2
        0x0000508a:    105b        [.      ASRS     r3,r3,#1
        0x0000508c:    4610        .F      MOV      r0,r2
        0x0000508e:    d301        ..      BCC      0x5094 ; __aeabi_idiv + 302
        0x00005090:    4240        @B      RSBS     r0,r0,#0
        0x00005092:    2b00        .+      CMP      r3,#0
        0x00005094:    d500        ..      BPL      0x5098 ; __aeabi_idiv + 306
        0x00005096:    4249        IB      RSBS     r1,r1,#0
        0x00005098:    4770        pG      BX       lr
        0x0000509a:    4663        cF      MOV      r3,r12
        0x0000509c:    105b        [.      ASRS     r3,r3,#1
        0x0000509e:    d300        ..      BCC      0x50a2 ; __aeabi_idiv + 316
        0x000050a0:    4240        @B      RSBS     r0,r0,#0
        0x000050a2:    b501        ..      PUSH     {r0,lr}
        0x000050a4:    2000        .       MOVS     r0,#0
        0x000050a6:    46c0        .F      MOV      r8,r8
        0x000050a8:    46c0        .F      MOV      r8,r8
        0x000050aa:    bd02        ..      POP      {r1,pc}
    .text
    __use_two_region_memory
        0x000050ac:    4770        pG      BX       lr
    __rt_heap_escrow$2region
        0x000050ae:    4770        pG      BX       lr
    __rt_heap_expand$2region
        0x000050b0:    4770        pG      BX       lr
        0x000050b2:    0000        ..      MOVS     r0,r0
    .text
    _dadd1
        0x000050b4:    b5f0        ..      PUSH     {r4-r7,lr}
        0x000050b6:    460c        .F      MOV      r4,r1
        0x000050b8:    1a87        ..      SUBS     r7,r0,r2
        0x000050ba:    419c        .A      SBCS     r4,r4,r3
        0x000050bc:    460d        .F      MOV      r5,r1
        0x000050be:    1a86        ..      SUBS     r6,r0,r2
        0x000050c0:    419d        .A      SBCS     r5,r5,r3
        0x000050c2:    d203        ..      BCS      0x50cc ; _dadd1 + 24
        0x000050c4:    1bc0        ..      SUBS     r0,r0,r7
        0x000050c6:    41a1        .A      SBCS     r1,r1,r4
        0x000050c8:    19d2        ..      ADDS     r2,r2,r7
        0x000050ca:    4163        cA      ADCS     r3,r3,r4
        0x000050cc:    0d0d        ..      LSRS     r5,r1,#20
        0x000050ce:    0d1f        ..      LSRS     r7,r3,#20
        0x000050d0:    4ec9        .N      LDR      r6,[pc,#804] ; [0x53f8] = 0x7ff
        0x000050d2:    1bec        ..      SUBS     r4,r5,r7
        0x000050d4:    43ae        .C      BICS     r6,r6,r5
        0x000050d6:    d05c        \.      BEQ      0x5192 ; _dadd1 + 222
        0x000050d8:    057f        ..      LSLS     r7,r7,#21
        0x000050da:    0d7f        ..      LSRS     r7,r7,#21
        0x000050dc:    2600        .&      MOVS     r6,#0
        0x000050de:    2f00        ./      CMP      r7,#0
        0x000050e0:    d051        Q.      BEQ      0x5186 ; _dadd1 + 210
        0x000050e2:    052d        -.      LSLS     r5,r5,#20
        0x000050e4:    46ac        .F      MOV      r12,r5
        0x000050e6:    43a9        .C      BICS     r1,r1,r5
        0x000050e8:    02dd        ..      LSLS     r5,r3,#11
        0x000050ea:    2301        .#      MOVS     r3,#1
        0x000050ec:    0aed        ..      LSRS     r5,r5,#11
        0x000050ee:    051b        ..      LSLS     r3,r3,#20
        0x000050f0:    431d        .C      ORRS     r5,r5,r3
        0x000050f2:    2320         #      MOVS     r3,#0x20
        0x000050f4:    1b1b        ..      SUBS     r3,r3,r4
        0x000050f6:    d424        $.      BMI      0x5142 ; _dadd1 + 142
        0x000050f8:    4617        .F      MOV      r7,r2
        0x000050fa:    40e7        .@      LSRS     r7,r7,r4
        0x000050fc:    1838        8.      ADDS     r0,r7,r0
        0x000050fe:    4171        qA      ADCS     r1,r1,r6
        0x00005100:    462f        /F      MOV      r7,r5
        0x00005102:    40e7        .@      LSRS     r7,r7,r4
        0x00005104:    19cc        ..      ADDS     r4,r1,r7
        0x00005106:    409d        .@      LSLS     r5,r5,r3
        0x00005108:    1828        (.      ADDS     r0,r5,r0
        0x0000510a:    4631        1F      MOV      r1,r6
        0x0000510c:    4161        aA      ADCS     r1,r1,r4
        0x0000510e:    0d0c        ..      LSRS     r4,r1,#20
        0x00005110:    d127        '.      BNE      0x5162 ; _dadd1 + 174
        0x00005112:    4461        aD      ADD      r1,r1,r12
        0x00005114:    409a        .@      LSLS     r2,r2,r3
        0x00005116:    d513        ..      BPL      0x5140 ; _dadd1 + 140
        0x00005118:    2300        .#      MOVS     r3,#0
        0x0000511a:    1c40        @.      ADDS     r0,r0,#1
        0x0000511c:    4159        YA      ADCS     r1,r1,r3
        0x0000511e:    0052        R.      LSLS     r2,r2,#1
        0x00005120:    d10e        ..      BNE      0x5140 ; _dadd1 + 140
        0x00005122:    0840        @.      LSRS     r0,r0,#1
        0x00005124:    0040        @.      LSLS     r0,r0,#1
        0x00005126:    2201        ."      MOVS     r2,#1
        0x00005128:    004b        K.      LSLS     r3,r1,#1
        0x0000512a:    0552        R.      LSLS     r2,r2,#21
        0x0000512c:    42d3        .B      CMN      r3,r2
        0x0000512e:    d307        ..      BCC      0x5140 ; _dadd1 + 140
        0x00005130:    2005        .       MOVS     r0,#5
        0x00005132:    0740        @.      LSLS     r0,r0,#29
        0x00005134:    42c1        .B      CMN      r1,r0
        0x00005136:    d501        ..      BPL      0x513c ; _dadd1 + 136
        0x00005138:    49b0        .I      LDR      r1,[pc,#704] ; [0x53fc] = 0xfff00000
        0x0000513a:    e000        ..      B        0x513e ; _dadd1 + 138
        0x0000513c:    49b0        .I      LDR      r1,[pc,#704] ; [0x5400] = 0x7ff00000
        0x0000513e:    4630        0F      MOV      r0,r6
        0x00005140:    bdf0        ..      POP      {r4-r7,pc}
        0x00005142:    006b        k.      LSLS     r3,r5,#1
        0x00005144:    2a00        .*      CMP      r2,#0
        0x00005146:    d000        ..      BEQ      0x514a ; _dadd1 + 150
        0x00005148:    2201        ."      MOVS     r2,#1
        0x0000514a:    189a        ..      ADDS     r2,r3,r2
        0x0000514c:    231f        .#      MOVS     r3,#0x1f
        0x0000514e:    3c20         <      SUBS     r4,r4,#0x20
        0x00005150:    1b1b        ..      SUBS     r3,r3,r4
        0x00005152:    d501        ..      BPL      0x5158 ; _dadd1 + 164
        0x00005154:    2300        .#      MOVS     r3,#0
        0x00005156:    e002        ..      B        0x515e ; _dadd1 + 170
        0x00005158:    40e5        .@      LSRS     r5,r5,r4
        0x0000515a:    1828        (.      ADDS     r0,r5,r0
        0x0000515c:    4171        qA      ADCS     r1,r1,r6
        0x0000515e:    0d0c        ..      LSRS     r4,r1,#20
        0x00005160:    d0d7        ..      BEQ      0x5112 ; _dadd1 + 94
        0x00005162:    2401        .$      MOVS     r4,#1
        0x00005164:    0524        $.      LSLS     r4,r4,#20
        0x00005166:    1909        ..      ADDS     r1,r1,r4
        0x00005168:    07c4        ..      LSLS     r4,r0,#31
        0x0000516a:    07cd        ..      LSLS     r5,r1,#31
        0x0000516c:    0840        @.      LSRS     r0,r0,#1
        0x0000516e:    0849        I.      LSRS     r1,r1,#1
        0x00005170:    0fe4        ..      LSRS     r4,r4,#31
        0x00005172:    4328        (C      ORRS     r0,r0,r5
        0x00005174:    4461        aD      ADD      r1,r1,r12
        0x00005176:    2c00        .,      CMP      r4,#0
        0x00005178:    d0d5        ..      BEQ      0x5126 ; _dadd1 + 114
        0x0000517a:    2400        .$      MOVS     r4,#0
        0x0000517c:    1c40        @.      ADDS     r0,r0,#1
        0x0000517e:    4161        aA      ADCS     r1,r1,r4
        0x00005180:    409a        .@      LSLS     r2,r2,r3
        0x00005182:    d1d0        ..      BNE      0x5126 ; _dadd1 + 114
        0x00005184:    e7cd        ..      B        0x5122 ; _dadd1 + 110
        0x00005186:    056a        j.      LSLS     r2,r5,#21
        0x00005188:    0d52        R.      LSRS     r2,r2,#21
        0x0000518a:    d1d9        ..      BNE      0x5140 ; _dadd1 + 140
        0x0000518c:    0fc9        ..      LSRS     r1,r1,#31
        0x0000518e:    07c9        ..      LSLS     r1,r1,#31
        0x00005190:    e7d5        ..      B        0x513e ; _dadd1 + 138
        0x00005192:    4d9c        .M      LDR      r5,[pc,#624] ; [0x5404] = 0xffe00000
        0x00005194:    004e        N.      LSLS     r6,r1,#1
        0x00005196:    2800        .(      CMP      r0,#0
        0x00005198:    d001        ..      BEQ      0x519e ; _dadd1 + 234
        0x0000519a:    2401        .$      MOVS     r4,#1
        0x0000519c:    e000        ..      B        0x51a0 ; _dadd1 + 236
        0x0000519e:    2400        .$      MOVS     r4,#0
        0x000051a0:    1934        4.      ADDS     r4,r6,r4
        0x000051a2:    005f        _.      LSLS     r7,r3,#1
        0x000051a4:    2a00        .*      CMP      r2,#0
        0x000051a6:    d001        ..      BEQ      0x51ac ; _dadd1 + 248
        0x000051a8:    2601        .&      MOVS     r6,#1
        0x000051aa:    e000        ..      B        0x51ae ; _dadd1 + 250
        0x000051ac:    2600        .&      MOVS     r6,#0
        0x000051ae:    19be        ..      ADDS     r6,r7,r6
        0x000051b0:    4f95        .O      LDR      r7,[pc,#596] ; [0x5408] = 0x7ff80000
        0x000051b2:    42ac        .B      CMP      r4,r5
        0x000051b4:    d80c        ..      BHI      0x51d0 ; _dadd1 + 284
        0x000051b6:    42ae        .B      CMP      r6,r5
        0x000051b8:    d80a        ..      BHI      0x51d0 ; _dadd1 + 284
        0x000051ba:    42b4        .B      CMP      r4,r6
        0x000051bc:    d006        ..      BEQ      0x51cc ; _dadd1 + 280
        0x000051be:    2501        .%      MOVS     r5,#1
        0x000051c0:    056d        m.      LSLS     r5,r5,#21
        0x000051c2:    42ec        .B      CMN      r4,r5
        0x000051c4:    d0bc        ..      BEQ      0x5140 ; _dadd1 + 140
        0x000051c6:    4610        .F      MOV      r0,r2
        0x000051c8:    4619        .F      MOV      r1,r3
        0x000051ca:    bdf0        ..      POP      {r4-r7,pc}
        0x000051cc:    4299        .B      CMP      r1,r3
        0x000051ce:    d0fc        ..      BEQ      0x51ca ; _dadd1 + 278
        0x000051d0:    2000        .       MOVS     r0,#0
        0x000051d2:    4639        9F      MOV      r1,r7
        0x000051d4:    bdf0        ..      POP      {r4-r7,pc}
    _dsub1
        0x000051d6:    b5f0        ..      PUSH     {r4-r7,lr}
        0x000051d8:    b41f        ..      PUSH     {r0-r4}
        0x000051da:    460c        .F      MOV      r4,r1
        0x000051dc:    460f        .F      MOV      r7,r1
        0x000051de:    1a81        ..      SUBS     r1,r0,r2
        0x000051e0:    419f        .A      SBCS     r7,r7,r3
        0x000051e2:    4625        %F      MOV      r5,r4
        0x000051e4:    1a86        ..      SUBS     r6,r0,r2
        0x000051e6:    419d        .A      SBCS     r5,r5,r3
        0x000051e8:    d206        ..      BCS      0x51f8 ; _dsub1 + 34
        0x000051ea:    2501        .%      MOVS     r5,#1
        0x000051ec:    07ed        ..      LSLS     r5,r5,#31
        0x000051ee:    406f        o@      EORS     r7,r7,r5
        0x000051f0:    1a40        @.      SUBS     r0,r0,r1
        0x000051f2:    41bc        .A      SBCS     r4,r4,r7
        0x000051f4:    1852        R.      ADDS     r2,r2,r1
        0x000051f6:    417b        {A      ADCS     r3,r3,r7
        0x000051f8:    0d21        !.      LSRS     r1,r4,#20
        0x000051fa:    0d1e        ..      LSRS     r6,r3,#20
        0x000051fc:    1b8d        ..      SUBS     r5,r1,r6
        0x000051fe:    46ac        .F      MOV      r12,r5
        0x00005200:    4d7d        }M      LDR      r5,[pc,#500] ; [0x53f8] = 0x7ff
        0x00005202:    438d        .C      BICS     r5,r5,r1
        0x00005204:    d07e        ~.      BEQ      0x5304 ; _dsub1 + 302
        0x00005206:    0575        u.      LSLS     r5,r6,#21
        0x00005208:    0d6d        m.      LSRS     r5,r5,#21
        0x0000520a:    d07c        |.      BEQ      0x5306 ; _dsub1 + 304
        0x0000520c:    050d        ..      LSLS     r5,r1,#20
        0x0000520e:    46ae        .F      MOV      lr,r5
        0x00005210:    43ac        .C      BICS     r4,r4,r5
        0x00005212:    031b        ..      LSLS     r3,r3,#12
        0x00005214:    0b1b        ..      LSRS     r3,r3,#12
        0x00005216:    4d79        yM      LDR      r5,[pc,#484] ; [0x53fc] = 0xfff00000
        0x00005218:    4252        RB      RSBS     r2,r2,#0
        0x0000521a:    419d        .A      SBCS     r5,r5,r3
        0x0000521c:    2320         #      MOVS     r3,#0x20
        0x0000521e:    4666        fF      MOV      r6,r12
        0x00005220:    1b9b        ..      SUBS     r3,r3,r6
        0x00005222:    d314        ..      BCC      0x524e ; _dsub1 + 120
        0x00005224:    4617        .F      MOV      r7,r2
        0x00005226:    40f7        .@      LSRS     r7,r7,r6
        0x00005228:    1838        8.      ADDS     r0,r7,r0
        0x0000522a:    2600        .&      MOVS     r6,#0
        0x0000522c:    9000        ..      STR      r0,[sp,#0]
        0x0000522e:    4174        tA      ADCS     r4,r4,r6
        0x00005230:    4660        `F      MOV      r0,r12
        0x00005232:    462f        /F      MOV      r7,r5
        0x00005234:    4107        .A      ASRS     r7,r7,r0
        0x00005236:    19e4        ..      ADDS     r4,r4,r7
        0x00005238:    9800        ..      LDR      r0,[sp,#0]
        0x0000523a:    409d        .@      LSLS     r5,r5,r3
        0x0000523c:    1828        (.      ADDS     r0,r5,r0
        0x0000523e:    4166        fA      ADCS     r6,r6,r4
        0x00005240:    d416        ..      BMI      0x5270 ; _dsub1 + 154
        0x00005242:    4671        qF      MOV      r1,lr
        0x00005244:    1871        q.      ADDS     r1,r6,r1
        0x00005246:    409a        .@      LSLS     r2,r2,r3
        0x00005248:    d525        %.      BPL      0x5296 ; _dsub1 + 192
        0x0000524a:    2301        .#      MOVS     r3,#1
        0x0000524c:    e020         .      B        0x5290 ; _dsub1 + 186
        0x0000524e:    1893        ..      ADDS     r3,r2,r2
        0x00005250:    462a        *F      MOV      r2,r5
        0x00005252:    416a        jA      ADCS     r2,r2,r5
        0x00005254:    0052        R.      LSLS     r2,r2,#1
        0x00005256:    2b00        .+      CMP      r3,#0
        0x00005258:    d000        ..      BEQ      0x525c ; _dsub1 + 134
        0x0000525a:    1c52        R.      ADDS     r2,r2,#1
        0x0000525c:    231e        .#      MOVS     r3,#0x1e
        0x0000525e:    3e20         >      SUBS     r6,r6,#0x20
        0x00005260:    1b9b        ..      SUBS     r3,r3,r6
        0x00005262:    2b00        .+      CMP      r3,#0
        0x00005264:    dd61        a.      BLE      0x532a ; _dsub1 + 340
        0x00005266:    4135        5A      ASRS     r5,r5,r6
        0x00005268:    17ee        ..      ASRS     r6,r5,#31
        0x0000526a:    1828        (.      ADDS     r0,r5,r0
        0x0000526c:    4166        fA      ADCS     r6,r6,r4
        0x0000526e:    d5e8        ..      BPL      0x5242 ; _dsub1 + 108
        0x00005270:    1800        ..      ADDS     r0,r0,r0
        0x00005272:    4176        vA      ADCS     r6,r6,r6
        0x00005274:    1c5b        [.      ADDS     r3,r3,#1
        0x00005276:    409a        .@      LSLS     r2,r2,r3
        0x00005278:    d300        ..      BCC      0x527c ; _dsub1 + 166
        0x0000527a:    1c40        @.      ADDS     r0,r0,#1
        0x0000527c:    054b        K.      LSLS     r3,r1,#21
        0x0000527e:    18f3        ..      ADDS     r3,r6,r3
        0x00005280:    2415        .$      MOVS     r4,#0x15
        0x00005282:    40e3        .@      LSRS     r3,r3,r4
        0x00005284:    d310        ..      BCC      0x52a8 ; _dsub1 + 210
        0x00005286:    2b00        .+      CMP      r3,#0
        0x00005288:    d052        R.      BEQ      0x5330 ; _dsub1 + 346
        0x0000528a:    4671        qF      MOV      r1,lr
        0x0000528c:    1871        q.      ADDS     r1,r6,r1
        0x0000528e:    0fd3        ..      LSRS     r3,r2,#31
        0x00005290:    18c0        ..      ADDS     r0,r0,r3
        0x00005292:    d302        ..      BCC      0x529a ; _dsub1 + 196
        0x00005294:    1c49        I.      ADDS     r1,r1,#1
        0x00005296:    b005        ..      ADD      sp,sp,#0x14
        0x00005298:    bdf0        ..      POP      {r4-r7,pc}
        0x0000529a:    2301        .#      MOVS     r3,#1
        0x0000529c:    07db        ..      LSLS     r3,r3,#31
        0x0000529e:    429a        .B      CMP      r2,r3
        0x000052a0:    d1f9        ..      BNE      0x5296 ; _dsub1 + 192
        0x000052a2:    0840        @.      LSRS     r0,r0,#1
        0x000052a4:    0040        @.      LSLS     r0,r0,#1
        0x000052a6:    e7f6        ..      B        0x5296 ; _dsub1 + 192
        0x000052a8:    2201        ."      MOVS     r2,#1
        0x000052aa:    0552        R.      LSLS     r2,r2,#21
        0x000052ac:    18b2        ..      ADDS     r2,r6,r2
        0x000052ae:    d101        ..      BNE      0x52b4 ; _dsub1 + 222
        0x000052b0:    2800        .(      CMP      r0,#0
        0x000052b2:    d053        S.      BEQ      0x535c ; _dsub1 + 390
        0x000052b4:    2301        .#      MOVS     r3,#1
        0x000052b6:    0acc        ..      LSRS     r4,r1,#11
        0x000052b8:    02db        ..      LSLS     r3,r3,#11
        0x000052ba:    4399        .C      BICS     r1,r1,r3
        0x000052bc:    1e89        ..      SUBS     r1,r1,#2
        0x000052be:    2a00        .*      CMP      r2,#0
        0x000052c0:    d108        ..      BNE      0x52d4 ; _dsub1 + 254
        0x000052c2:    0c02        ..      LSRS     r2,r0,#16
        0x000052c4:    d003        ..      BEQ      0x52ce ; _dsub1 + 248
        0x000052c6:    0c02        ..      LSRS     r2,r0,#16
        0x000052c8:    0400        ..      LSLS     r0,r0,#16
        0x000052ca:    3910        .9      SUBS     r1,r1,#0x10
        0x000052cc:    e002        ..      B        0x52d4 ; _dsub1 + 254
        0x000052ce:    4602        .F      MOV      r2,r0
        0x000052d0:    2000        .       MOVS     r0,#0
        0x000052d2:    3920         9      SUBS     r1,r1,#0x20
        0x000052d4:    2300        .#      MOVS     r3,#0
        0x000052d6:    0b55        U.      LSRS     r5,r2,#13
        0x000052d8:    d105        ..      BNE      0x52e6 ; _dsub1 + 272
        0x000052da:    0212        ..      LSLS     r2,r2,#8
        0x000052dc:    2308        .#      MOVS     r3,#8
        0x000052de:    0b55        U.      LSRS     r5,r2,#13
        0x000052e0:    d101        ..      BNE      0x52e6 ; _dsub1 + 272
        0x000052e2:    0152        R.      LSLS     r2,r2,#5
        0x000052e4:    230d        .#      MOVS     r3,#0xd
        0x000052e6:    0c55        U.      LSRS     r5,r2,#17
        0x000052e8:    d101        ..      BNE      0x52ee ; _dsub1 + 280
        0x000052ea:    0112        ..      LSLS     r2,r2,#4
        0x000052ec:    1d1b        ..      ADDS     r3,r3,#4
        0x000052ee:    0cd5        ..      LSRS     r5,r2,#19
        0x000052f0:    d101        ..      BNE      0x52f6 ; _dsub1 + 288
        0x000052f2:    0092        ..      LSLS     r2,r2,#2
        0x000052f4:    1c9b        ..      ADDS     r3,r3,#2
        0x000052f6:    0d15        ..      LSRS     r5,r2,#20
        0x000052f8:    d101        ..      BNE      0x52fe ; _dsub1 + 296
        0x000052fa:    0052        R.      LSLS     r2,r2,#1
        0x000052fc:    1c5b        [.      ADDS     r3,r3,#1
        0x000052fe:    2520         %      MOVS     r5,#0x20
        0x00005300:    1aee        ..      SUBS     r6,r5,r3
        0x00005302:    e001        ..      B        0x5308 ; _dsub1 + 306
        0x00005304:    e02c        ,.      B        0x5360 ; _dsub1 + 394
        0x00005306:    e022        ".      B        0x534e ; _dsub1 + 376
        0x00005308:    4605        .F      MOV      r5,r0
        0x0000530a:    40f5        .@      LSRS     r5,r5,r6
        0x0000530c:    4315        .C      ORRS     r5,r5,r2
        0x0000530e:    4098        .@      LSLS     r0,r0,r3
        0x00005310:    1aca        ..      SUBS     r2,r1,r3
        0x00005312:    07e1        ..      LSLS     r1,r4,#31
        0x00005314:    1869        i.      ADDS     r1,r5,r1
        0x00005316:    0513        ..      LSLS     r3,r2,#20
        0x00005318:    18c9        ..      ADDS     r1,r1,r3
        0x0000531a:    2a00        .*      CMP      r2,#0
        0x0000531c:    dabb        ..      BGE      0x5296 ; _dsub1 + 192
        0x0000531e:    2003        .       MOVS     r0,#3
        0x00005320:    0740        @.      LSLS     r0,r0,#29
        0x00005322:    1808        ..      ADDS     r0,r1,r0
        0x00005324:    0fc1        ..      LSRS     r1,r0,#31
        0x00005326:    07c9        ..      LSLS     r1,r1,#31
        0x00005328:    e00f        ..      B        0x534a ; _dsub1 + 372
        0x0000532a:    4671        qF      MOV      r1,lr
        0x0000532c:    1861        a.      ADDS     r1,r4,r1
        0x0000532e:    e7b2        ..      B        0x5296 ; _dsub1 + 192
        0x00005330:    07f1        ..      LSLS     r1,r6,#31
        0x00005332:    0840        @.      LSRS     r0,r0,#1
        0x00005334:    4308        .C      ORRS     r0,r0,r1
        0x00005336:    1071        q.      ASRS     r1,r6,#1
        0x00005338:    4471        qD      ADD      r1,r1,lr
        0x0000533a:    004a        J.      LSLS     r2,r1,#1
        0x0000533c:    d00c        ..      BEQ      0x5358 ; _dsub1 + 386
        0x0000533e:    2301        .#      MOVS     r3,#1
        0x00005340:    055b        [.      LSLS     r3,r3,#21
        0x00005342:    429a        .B      CMP      r2,r3
        0x00005344:    d2a7        ..      BCS      0x5296 ; _dsub1 + 192
        0x00005346:    0fc9        ..      LSRS     r1,r1,#31
        0x00005348:    07c9        ..      LSLS     r1,r1,#31
        0x0000534a:    2000        .       MOVS     r0,#0
        0x0000534c:    e7a3        ..      B        0x5296 ; _dsub1 + 192
        0x0000534e:    0549        I.      LSLS     r1,r1,#21
        0x00005350:    0d49        I.      LSRS     r1,r1,#21
        0x00005352:    d126        &.      BNE      0x53a2 ; _dsub1 + 460
        0x00005354:    2000        .       MOVS     r0,#0
        0x00005356:    e001        ..      B        0x535c ; _dsub1 + 390
        0x00005358:    2800        .(      CMP      r0,#0
        0x0000535a:    d1f4        ..      BNE      0x5346 ; _dsub1 + 368
        0x0000535c:    2100        .!      MOVS     r1,#0
        0x0000535e:    e79a        ..      B        0x5296 ; _dsub1 + 192
        0x00005360:    4d28        (M      LDR      r5,[pc,#160] ; [0x5404] = 0xffe00000
        0x00005362:    0066        f.      LSLS     r6,r4,#1
        0x00005364:    2800        .(      CMP      r0,#0
        0x00005366:    d001        ..      BEQ      0x536c ; _dsub1 + 406
        0x00005368:    2101        .!      MOVS     r1,#1
        0x0000536a:    e000        ..      B        0x536e ; _dsub1 + 408
        0x0000536c:    2100        .!      MOVS     r1,#0
        0x0000536e:    1871        q.      ADDS     r1,r6,r1
        0x00005370:    005f        _.      LSLS     r7,r3,#1
        0x00005372:    2a00        .*      CMP      r2,#0
        0x00005374:    d001        ..      BEQ      0x537a ; _dsub1 + 420
        0x00005376:    2601        .&      MOVS     r6,#1
        0x00005378:    e000        ..      B        0x537c ; _dsub1 + 422
        0x0000537a:    2600        .&      MOVS     r6,#0
        0x0000537c:    19be        ..      ADDS     r6,r7,r6
        0x0000537e:    4f22        "O      LDR      r7,[pc,#136] ; [0x5408] = 0x7ff80000
        0x00005380:    42a9        .B      CMP      r1,r5
        0x00005382:    d810        ..      BHI      0x53a6 ; _dsub1 + 464
        0x00005384:    42ae        .B      CMP      r6,r5
        0x00005386:    d80e        ..      BHI      0x53a6 ; _dsub1 + 464
        0x00005388:    42b1        .B      CMP      r1,r6
        0x0000538a:    d008        ..      BEQ      0x539e ; _dsub1 + 456
        0x0000538c:    2501        .%      MOVS     r5,#1
        0x0000538e:    056d        m.      LSLS     r5,r5,#21
        0x00005390:    42e9        .B      CMN      r1,r5
        0x00005392:    d006        ..      BEQ      0x53a2 ; _dsub1 + 460
        0x00005394:    4619        .F      MOV      r1,r3
        0x00005396:    02a8        ..      LSLS     r0,r5,#10
        0x00005398:    4041        A@      EORS     r1,r1,r0
        0x0000539a:    4610        .F      MOV      r0,r2
        0x0000539c:    e77b        {.      B        0x5296 ; _dsub1 + 192
        0x0000539e:    429c        .B      CMP      r4,r3
        0x000053a0:    d001        ..      BEQ      0x53a6 ; _dsub1 + 464
        0x000053a2:    4621        !F      MOV      r1,r4
        0x000053a4:    e777        w.      B        0x5296 ; _dsub1 + 192
        0x000053a6:    2000        .       MOVS     r0,#0
        0x000053a8:    4639        9F      MOV      r1,r7
        0x000053aa:    e774        t.      B        0x5296 ; _dsub1 + 192
    __aeabi_dadd
    _dadd
        0x000053ac:    b510        ..      PUSH     {r4,lr}
        0x000053ae:    460c        .F      MOV      r4,r1
        0x000053b0:    405c        \@      EORS     r4,r4,r3
        0x000053b2:    d505        ..      BPL      0x53c0 ; __aeabi_dadd + 20
        0x000053b4:    2401        .$      MOVS     r4,#1
        0x000053b6:    07e4        ..      LSLS     r4,r4,#31
        0x000053b8:    4063        c@      EORS     r3,r3,r4
        0x000053ba:    f7ffff0c    ....    BL       _dsub1 ; 0x51d6
        0x000053be:    bd10        ..      POP      {r4,pc}
        0x000053c0:    f7fffe78    ..x.    BL       _dadd1 ; 0x50b4
        0x000053c4:    bd10        ..      POP      {r4,pc}
    __aeabi_dsub
    _dsub
        0x000053c6:    b430        0.      PUSH     {r4,r5}
        0x000053c8:    460c        .F      MOV      r4,r1
        0x000053ca:    405c        \@      EORS     r4,r4,r3
        0x000053cc:    d504        ..      BPL      0x53d8 ; __aeabi_dsub + 18
        0x000053ce:    2401        .$      MOVS     r4,#1
        0x000053d0:    07e4        ..      LSLS     r4,r4,#31
        0x000053d2:    4063        c@      EORS     r3,r3,r4
        0x000053d4:    bc30        0.      POP      {r4,r5}
        0x000053d6:    e66d        m.      B        _dadd1 ; 0x50b4
        0x000053d8:    bc30        0.      POP      {r4,r5}
        0x000053da:    e6fc        ..      B        _dsub1 ; 0x51d6
    __aeabi_drsub
    _drsb
        0x000053dc:    b570        p.      PUSH     {r4-r6,lr}
        0x000053de:    2401        .$      MOVS     r4,#1
        0x000053e0:    07e4        ..      LSLS     r4,r4,#31
        0x000053e2:    4061        a@      EORS     r1,r1,r4
        0x000053e4:    460d        .F      MOV      r5,r1
        0x000053e6:    405d        ]@      EORS     r5,r5,r3
        0x000053e8:    d402        ..      BMI      0x53f0 ; __aeabi_drsub + 20
        0x000053ea:    f7fffe63    ..c.    BL       _dadd1 ; 0x50b4
        0x000053ee:    bd70        p.      POP      {r4-r6,pc}
        0x000053f0:    4063        c@      EORS     r3,r3,r4
        0x000053f2:    f7fffef0    ....    BL       _dsub1 ; 0x51d6
        0x000053f6:    bd70        p.      POP      {r4-r6,pc}
    $d
        0x000053f8:    000007ff    ....    DCD    2047
        0x000053fc:    fff00000    ....    DCD    4293918720
        0x00005400:    7ff00000    ....    DCD    2146435072
        0x00005404:    ffe00000    ....    DCD    4292870144
        0x00005408:    7ff80000    ....    DCD    2146959360
    $t
    .text
    __aeabi_d2iz
    _dfix
        0x0000540c:    b530        0.      PUSH     {r4,r5,lr}
        0x0000540e:    4603        .F      MOV      r3,r0
        0x00005410:    02ca        ..      LSLS     r2,r1,#11
        0x00005412:    0d40        @.      LSRS     r0,r0,#21
        0x00005414:    4310        .C      ORRS     r0,r0,r2
        0x00005416:    4d16        .M      LDR      r5,[pc,#88] ; [0x5470] = 0x41e
        0x00005418:    4c16        .L      LDR      r4,[pc,#88] ; [0x5474] = 0x80000000
        0x0000541a:    150a        ..      ASRS     r2,r1,#20
        0x0000541c:    d002        ..      BEQ      0x5424 ; __aeabi_d2iz + 24
        0x0000541e:    4320         C      ORRS     r0,r0,r4
        0x00005420:    2a00        .*      CMP      r2,#0
        0x00005422:    db06        ..      BLT      0x5432 ; __aeabi_d2iz + 38
        0x00005424:    1aaa        ..      SUBS     r2,r5,r2
        0x00005426:    2a00        .*      CMP      r2,#0
        0x00005428:    dd12        ..      BLE      0x5450 ; __aeabi_d2iz + 68
        0x0000542a:    40d0        .@      LSRS     r0,r0,r2
        0x0000542c:    2aff        .*      CMP      r2,#0xff
        0x0000542e:    dc0b        ..      BGT      0x5448 ; __aeabi_d2iz + 60
        0x00005430:    bd30        0.      POP      {r4,r5,pc}
        0x00005432:    0552        R.      LSLS     r2,r2,#21
        0x00005434:    0d52        R.      LSRS     r2,r2,#21
        0x00005436:    d101        ..      BNE      0x543c ; __aeabi_d2iz + 48
        0x00005438:    0040        @.      LSLS     r0,r0,#1
        0x0000543a:    0840        @.      LSRS     r0,r0,#1
        0x0000543c:    1aaa        ..      SUBS     r2,r5,r2
        0x0000543e:    d407        ..      BMI      0x5450 ; __aeabi_d2iz + 68
        0x00005440:    40d0        .@      LSRS     r0,r0,r2
        0x00005442:    4240        @B      RSBS     r0,r0,#0
        0x00005444:    2aff        .*      CMP      r2,#0xff
        0x00005446:    dd01        ..      BLE      0x544c ; __aeabi_d2iz + 64
        0x00005448:    2000        .       MOVS     r0,#0
        0x0000544a:    bd30        0.      POP      {r4,r5,pc}
        0x0000544c:    2800        .(      CMP      r0,#0
        0x0000544e:    ddfc        ..      BLE      0x544a ; __aeabi_d2iz + 62
        0x00005450:    004a        J.      LSLS     r2,r1,#1
        0x00005452:    2b00        .+      CMP      r3,#0
        0x00005454:    d001        ..      BEQ      0x545a ; __aeabi_d2iz + 78
        0x00005456:    2001        .       MOVS     r0,#1
        0x00005458:    e000        ..      B        0x545c ; __aeabi_d2iz + 80
        0x0000545a:    2000        .       MOVS     r0,#0
        0x0000545c:    1810        ..      ADDS     r0,r2,r0
        0x0000545e:    2201        ."      MOVS     r2,#1
        0x00005460:    0552        R.      LSLS     r2,r2,#21
        0x00005462:    42d0        .B      CMN      r0,r2
        0x00005464:    d8f0        ..      BHI      0x5448 ; __aeabi_d2iz + 60
        0x00005466:    17c8        ..      ASRS     r0,r1,#31
        0x00005468:    43c0        .C      MVNS     r0,r0
        0x0000546a:    4060        `@      EORS     r0,r0,r4
        0x0000546c:    bd30        0.      POP      {r4,r5,pc}
    $d
        0x0000546e:    0000        ..      DCW    0
        0x00005470:    0000041e    ....    DCD    1054
        0x00005474:    80000000    ....    DCD    2147483648
    $t
    .text
    __aeabi_dmul
    _dmul
        0x00005478:    b5f0        ..      PUSH     {r4-r7,lr}
        0x0000547a:    4c8b        .L      LDR      r4,[pc,#556] ; [0x56a8] = 0x7ff0000
        0x0000547c:    090f        ..      LSRS     r7,r1,#4
        0x0000547e:    4625        %F      MOV      r5,r4
        0x00005480:    b089        ..      SUB      sp,sp,#0x24
        0x00005482:    43bd        .C      BICS     r5,r5,r7
        0x00005484:    d07b        {.      BEQ      0x557e ; __aeabi_dmul + 262
        0x00005486:    091d        ..      LSRS     r5,r3,#4
        0x00005488:    4626        &F      MOV      r6,r4
        0x0000548a:    43ae        .C      BICS     r6,r6,r5
        0x0000548c:    d0fa        ..      BEQ      0x5484 ; __aeabi_dmul + 12
        0x0000548e:    460e        .F      MOV      r6,r1
        0x00005490:    405e        ^@      EORS     r6,r6,r3
        0x00005492:    4027        '@      ANDS     r7,r7,r4
        0x00005494:    0ff6        ..      LSRS     r6,r6,#31
        0x00005496:    433e        >C      ORRS     r6,r6,r7
        0x00005498:    4025        %@      ANDS     r5,r5,r4
        0x0000549a:    d071        q.      BEQ      0x5580 ; __aeabi_dmul + 264
        0x0000549c:    0124        $.      LSLS     r4,r4,#4
        0x0000549e:    4221        !B      TST      r1,r4
        0x000054a0:    d0fb        ..      BEQ      0x549a ; __aeabi_dmul + 34
        0x000054a2:    24ff        .$      MOVS     r4,#0xff
        0x000054a4:    19ad        ..      ADDS     r5,r5,r6
        0x000054a6:    04a4        ..      LSLS     r4,r4,#18
        0x000054a8:    1b2d        -.      SUBS     r5,r5,r4
        0x000054aa:    9503        ..      STR      r5,[sp,#0xc]
        0x000054ac:    2501        .%      MOVS     r5,#1
        0x000054ae:    052d        -.      LSLS     r5,r5,#20
        0x000054b0:    02db        ..      LSLS     r3,r3,#11
        0x000054b2:    0adb        ..      LSRS     r3,r3,#11
        0x000054b4:    02c9        ..      LSLS     r1,r1,#11
        0x000054b6:    432b        +C      ORRS     r3,r3,r5
        0x000054b8:    0ac9        ..      LSRS     r1,r1,#11
        0x000054ba:    4329        )C      ORRS     r1,r1,r5
        0x000054bc:    011e        ..      LSLS     r6,r3,#4
        0x000054be:    0109        ..      LSLS     r1,r1,#4
        0x000054c0:    0f04        ..      LSRS     r4,r0,#28
        0x000054c2:    0f13        ..      LSRS     r3,r2,#28
        0x000054c4:    0105        ..      LSLS     r5,r0,#4
        0x000054c6:    4321        !C      ORRS     r1,r1,r4
        0x000054c8:    0117        ..      LSLS     r7,r2,#4
        0x000054ca:    0b88        ..      LSRS     r0,r1,#14
        0x000054cc:    0382        ..      LSLS     r2,r0,#14
        0x000054ce:    4391        .C      BICS     r1,r1,r2
        0x000054d0:    092d        -.      LSRS     r5,r5,#4
        0x000054d2:    468c        .F      MOV      r12,r1
        0x000054d4:    0ba9        ..      LSRS     r1,r5,#14
        0x000054d6:    431e        .C      ORRS     r6,r6,r3
        0x000054d8:    038a        ..      LSLS     r2,r1,#14
        0x000054da:    4395        .C      BICS     r5,r5,r2
        0x000054dc:    0bb3        ..      LSRS     r3,r6,#14
        0x000054de:    039a        ..      LSLS     r2,r3,#14
        0x000054e0:    4396        .C      BICS     r6,r6,r2
        0x000054e2:    093f        ?.      LSRS     r7,r7,#4
        0x000054e4:    0bba        ..      LSRS     r2,r7,#14
        0x000054e6:    0394        ..      LSLS     r4,r2,#14
        0x000054e8:    43a7        .C      BICS     r7,r7,r4
        0x000054ea:    9602        ..      STR      r6,[sp,#8]
        0x000054ec:    462e        .F      MOV      r6,r5
        0x000054ee:    437e        ~C      MULS     r6,r7,r6
        0x000054f0:    9704        ..      STR      r7,[sp,#0x10]
        0x000054f2:    46b6        .F      MOV      lr,r6
        0x000054f4:    194e        N.      ADDS     r6,r1,r5
        0x000054f6:    19d7        ..      ADDS     r7,r2,r7
        0x000054f8:    460c        .F      MOV      r4,r1
        0x000054fa:    9601        ..      STR      r6,[sp,#4]
        0x000054fc:    4354        TC      MULS     r4,r2,r4
        0x000054fe:    9705        ..      STR      r7,[sp,#0x14]
        0x00005500:    437e        ~C      MULS     r6,r7,r6
        0x00005502:    1b37        7.      SUBS     r7,r6,r4
        0x00005504:    4676        vF      MOV      r6,lr
        0x00005506:    1bbf        ..      SUBS     r7,r7,r6
        0x00005508:    0136        6.      LSLS     r6,r6,#4
        0x0000550a:    46b6        .F      MOV      lr,r6
        0x0000550c:    0bbe        ..      LSRS     r6,r7,#14
        0x0000550e:    1936        6.      ADDS     r6,r6,r4
        0x00005510:    9600        ..      STR      r6,[sp,#0]
        0x00005512:    4676        vF      MOV      r6,lr
        0x00005514:    04bc        ..      LSLS     r4,r7,#18
        0x00005516:    1937        7.      ADDS     r7,r6,r4
        0x00005518:    9c00        ..      LDR      r4,[sp,#0]
        0x0000551a:    d301        ..      BCC      0x5520 ; __aeabi_dmul + 168
        0x0000551c:    1c64        d.      ADDS     r4,r4,#1
        0x0000551e:    9400        ..      STR      r4,[sp,#0]
        0x00005520:    0064        d.      LSLS     r4,r4,#1
        0x00005522:    2f00        ./      CMP      r7,#0
        0x00005524:    d001        ..      BEQ      0x552a ; __aeabi_dmul + 178
        0x00005526:    2601        .&      MOVS     r6,#1
        0x00005528:    4334        4C      ORRS     r4,r4,r6
        0x0000552a:    9e02        ..      LDR      r6,[sp,#8]
        0x0000552c:    9f04        ..      LDR      r7,[sp,#0x10]
        0x0000552e:    4375        uC      MULS     r5,r6,r5
        0x00005530:    4666        fF      MOV      r6,r12
        0x00005532:    437e        ~C      MULS     r6,r7,r6
        0x00005534:    9604        ..      STR      r6,[sp,#0x10]
        0x00005536:    0076        v.      LSLS     r6,r6,#1
        0x00005538:    1934        4.      ADDS     r4,r6,r4
        0x0000553a:    006e        n.      LSLS     r6,r5,#1
        0x0000553c:    1934        4.      ADDS     r4,r6,r4
        0x0000553e:    9400        ..      STR      r4,[sp,#0]
        0x00005540:    9c02        ..      LDR      r4,[sp,#8]
        0x00005542:    9e01        ..      LDR      r6,[sp,#4]
        0x00005544:    191c        ..      ADDS     r4,r3,r4
        0x00005546:    4366        fC      MULS     r6,r4,r6
        0x00005548:    1b75        u.      SUBS     r5,r6,r5
        0x0000554a:    46ae        .F      MOV      lr,r5
        0x0000554c:    9406        ..      STR      r4,[sp,#0x18]
        0x0000554e:    4665        eF      MOV      r5,r12
        0x00005550:    1945        E.      ADDS     r5,r0,r5
        0x00005552:    9c05        ..      LDR      r4,[sp,#0x14]
        0x00005554:    9505        ..      STR      r5,[sp,#0x14]
        0x00005556:    436c        lC      MULS     r4,r5,r4
        0x00005558:    4359        YC      MULS     r1,r3,r1
        0x0000555a:    4675        uF      MOV      r5,lr
        0x0000555c:    9108        ..      STR      r1,[sp,#0x20]
        0x0000555e:    1a69        i.      SUBS     r1,r5,r1
        0x00005560:    9101        ..      STR      r1,[sp,#4]
        0x00005562:    9e04        ..      LDR      r6,[sp,#0x10]
        0x00005564:    4601        .F      MOV      r1,r0
        0x00005566:    4351        QC      MULS     r1,r2,r1
        0x00005568:    1ba4        ..      SUBS     r4,r4,r6
        0x0000556a:    9104        ..      STR      r1,[sp,#0x10]
        0x0000556c:    1a61        a.      SUBS     r1,r4,r1
        0x0000556e:    9c00        ..      LDR      r4,[sp,#0]
        0x00005570:    9107        ..      STR      r1,[sp,#0x1c]
        0x00005572:    06e1        ..      LSLS     r1,r4,#27
        0x00005574:    d005        ..      BEQ      0x5582 ; __aeabi_dmul + 266
        0x00005576:    0961        a.      LSRS     r1,r4,#5
        0x00005578:    2201        ."      MOVS     r2,#1
        0x0000557a:    4311        .C      ORRS     r1,r1,r2
        0x0000557c:    e002        ..      B        0x5584 ; __aeabi_dmul + 268
        0x0000557e:    e072        r.      B        0x5666 ; __aeabi_dmul + 494
        0x00005580:    e06e        n.      B        0x5660 ; __aeabi_dmul + 488
        0x00005582:    0961        a.      LSRS     r1,r4,#5
        0x00005584:    9d08        ..      LDR      r5,[sp,#0x20]
        0x00005586:    2700        .'      MOVS     r7,#0
        0x00005588:    0a2c        ,.      LSRS     r4,r5,#8
        0x0000558a:    062d        -.      LSLS     r5,r5,#24
        0x0000558c:    1869        i.      ADDS     r1,r5,r1
        0x0000558e:    9d04        ..      LDR      r5,[sp,#0x10]
        0x00005590:    417c        |A      ADCS     r4,r4,r7
        0x00005592:    0a2a        *.      LSRS     r2,r5,#8
        0x00005594:    062d        -.      LSLS     r5,r5,#24
        0x00005596:    1869        i.      ADDS     r1,r5,r1
        0x00005598:    9d01        ..      LDR      r5,[sp,#4]
        0x0000559a:    4162        bA      ADCS     r2,r2,r4
        0x0000559c:    0dac        ..      LSRS     r4,r5,#22
        0x0000559e:    02ad        ..      LSLS     r5,r5,#10
        0x000055a0:    186d        m.      ADDS     r5,r5,r1
        0x000055a2:    4154        TA      ADCS     r4,r4,r2
        0x000055a4:    9a07        ..      LDR      r2,[sp,#0x1c]
        0x000055a6:    0d91        ..      LSRS     r1,r2,#22
        0x000055a8:    0292        ..      LSLS     r2,r2,#10
        0x000055aa:    1955        U.      ADDS     r5,r2,r5
        0x000055ac:    4161        aA      ADCS     r1,r1,r4
        0x000055ae:    9a02        ..      LDR      r2,[sp,#8]
        0x000055b0:    4664        dF      MOV      r4,r12
        0x000055b2:    4358        XC      MULS     r0,r3,r0
        0x000055b4:    4354        TC      MULS     r4,r2,r4
        0x000055b6:    9b06        ..      LDR      r3,[sp,#0x18]
        0x000055b8:    9a05        ..      LDR      r2,[sp,#0x14]
        0x000055ba:    435a        ZC      MULS     r2,r3,r2
        0x000055bc:    1a12        ..      SUBS     r2,r2,r0
        0x000055be:    1b13        ..      SUBS     r3,r2,r4
        0x000055c0:    0e9a        ..      LSRS     r2,r3,#26
        0x000055c2:    019b        ..      LSLS     r3,r3,#6
        0x000055c4:    185b        [.      ADDS     r3,r3,r1
        0x000055c6:    417a        zA      ADCS     r2,r2,r7
        0x000055c8:    0b01        ..      LSRS     r1,r0,#12
        0x000055ca:    0500        ..      LSLS     r0,r0,#20
        0x000055cc:    18c3        ..      ADDS     r3,r0,r3
        0x000055ce:    4151        QA      ADCS     r1,r1,r2
        0x000055d0:    0a22        ".      LSRS     r2,r4,#8
        0x000055d2:    0620         .      LSLS     r0,r4,#24
        0x000055d4:    1944        D.      ADDS     r4,r0,r5
        0x000055d6:    415a        ZA      ADCS     r2,r2,r3
        0x000055d8:    429a        .B      CMP      r2,r3
        0x000055da:    d200        ..      BCS      0x55de ; __aeabi_dmul + 358
        0x000055dc:    1c49        I.      ADDS     r1,r1,#1
        0x000055de:    2001        .       MOVS     r0,#1
        0x000055e0:    0240        @.      LSLS     r0,r0,#9
        0x000055e2:    4281        .B      CMP      r1,r0
        0x000055e4:    d303        ..      BCC      0x55ee ; __aeabi_dmul + 374
        0x000055e6:    2315        .#      MOVS     r3,#0x15
        0x000055e8:    2602        .&      MOVS     r6,#2
        0x000055ea:    43f6        .C      MVNS     r6,r6
        0x000055ec:    e002        ..      B        0x55f4 ; __aeabi_dmul + 380
        0x000055ee:    2314        .#      MOVS     r3,#0x14
        0x000055f0:    2603        .&      MOVS     r6,#3
        0x000055f2:    43f6        .C      MVNS     r6,r6
        0x000055f4:    2020                MOVS     r0,#0x20
        0x000055f6:    1ac5        ..      SUBS     r5,r0,r3
        0x000055f8:    40a9        .@      LSLS     r1,r1,r5
        0x000055fa:    4617        .F      MOV      r7,r2
        0x000055fc:    40af        .@      LSLS     r7,r7,r5
        0x000055fe:    40da        .@      LSRS     r2,r2,r3
        0x00005600:    430a        .C      ORRS     r2,r2,r1
        0x00005602:    4620         F      MOV      r0,r4
        0x00005604:    9903        ..      LDR      r1,[sp,#0xc]
        0x00005606:    40d8        .@      LSRS     r0,r0,r3
        0x00005608:    1409        ..      ASRS     r1,r1,#16
        0x0000560a:    1873        s.      ADDS     r3,r6,r1
        0x0000560c:    0519        ..      LSLS     r1,r3,#20
        0x0000560e:    1851        Q.      ADDS     r1,r2,r1
        0x00005610:    9a03        ..      LDR      r2,[sp,#0xc]
        0x00005612:    4338        8C      ORRS     r0,r0,r7
        0x00005614:    07d2        ..      LSLS     r2,r2,#31
        0x00005616:    4051        Q@      EORS     r1,r1,r2
        0x00005618:    40ac        .@      LSLS     r4,r4,r5
        0x0000561a:    d009        ..      BEQ      0x5630 ; __aeabi_dmul + 440
        0x0000561c:    2201        ."      MOVS     r2,#1
        0x0000561e:    4094        .@      LSLS     r4,r4,r2
        0x00005620:    d306        ..      BCC      0x5630 ; __aeabi_dmul + 440
        0x00005622:    2200        ."      MOVS     r2,#0
        0x00005624:    1c40        @.      ADDS     r0,r0,#1
        0x00005626:    4151        QA      ADCS     r1,r1,r2
        0x00005628:    2c00        .,      CMP      r4,#0
        0x0000562a:    d101        ..      BNE      0x5630 ; __aeabi_dmul + 440
        0x0000562c:    0840        @.      LSRS     r0,r0,#1
        0x0000562e:    0040        @.      LSLS     r0,r0,#1
        0x00005630:    4a1e        .J      LDR      r2,[pc,#120] ; [0x56ac] = 0x7fe
        0x00005632:    4293        .B      CMP      r3,r2
        0x00005634:    d312        ..      BCC      0x565c ; __aeabi_dmul + 484
        0x00005636:    2201        ."      MOVS     r2,#1
        0x00005638:    9803        ..      LDR      r0,[sp,#0xc]
        0x0000563a:    0692        ..      LSLS     r2,r2,#26
        0x0000563c:    4290        .B      CMP      r0,r2
        0x0000563e:    db07        ..      BLT      0x5650 ; __aeabi_dmul + 472
        0x00005640:    2005        .       MOVS     r0,#5
        0x00005642:    0740        @.      LSLS     r0,r0,#29
        0x00005644:    1809        ..      ADDS     r1,r1,r0
        0x00005646:    481a        .H      LDR      r0,[pc,#104] ; [0x56b0] = 0x7fffffff
        0x00005648:    4301        .C      ORRS     r1,r1,r0
        0x0000564a:    12c0        ..      ASRS     r0,r0,#11
        0x0000564c:    4041        A@      EORS     r1,r1,r0
        0x0000564e:    e004        ..      B        0x565a ; __aeabi_dmul + 482
        0x00005650:    2003        .       MOVS     r0,#3
        0x00005652:    0740        @.      LSLS     r0,r0,#29
        0x00005654:    1808        ..      ADDS     r0,r1,r0
        0x00005656:    0fc1        ..      LSRS     r1,r0,#31
        0x00005658:    07c9        ..      LSLS     r1,r1,#31
        0x0000565a:    2000        .       MOVS     r0,#0
        0x0000565c:    b009        ..      ADD      sp,sp,#0x24
        0x0000565e:    bdf0        ..      POP      {r4-r7,pc}
        0x00005660:    2000        .       MOVS     r0,#0
        0x00005662:    07f1        ..      LSLS     r1,r6,#31
        0x00005664:    e7fa        ..      B        0x565c ; __aeabi_dmul + 484
        0x00005666:    1805        ..      ADDS     r5,r0,r0
        0x00005668:    460c        .F      MOV      r4,r1
        0x0000566a:    414c        LA      ADCS     r4,r4,r1
        0x0000566c:    4811        .H      LDR      r0,[pc,#68] ; [0x56b4] = 0xffe00000
        0x0000566e:    426d        mB      RSBS     r5,r5,#0
        0x00005670:    41a0        .A      SBCS     r0,r0,r4
        0x00005672:    d315        ..      BCC      0x56a0 ; __aeabi_dmul + 552
        0x00005674:    1894        ..      ADDS     r4,r2,r2
        0x00005676:    461a        .F      MOV      r2,r3
        0x00005678:    415a        ZA      ADCS     r2,r2,r3
        0x0000567a:    480e        .H      LDR      r0,[pc,#56] ; [0x56b4] = 0xffe00000
        0x0000567c:    4264        dB      RSBS     r4,r4,#0
        0x0000567e:    4190        .A      SBCS     r0,r0,r2
        0x00005680:    d30e        ..      BCC      0x56a0 ; __aeabi_dmul + 552
        0x00005682:    2001        .       MOVS     r0,#1
        0x00005684:    004a        J.      LSLS     r2,r1,#1
        0x00005686:    0540        @.      LSLS     r0,r0,#21
        0x00005688:    4282        .B      CMP      r2,r0
        0x0000568a:    d309        ..      BCC      0x56a0 ; __aeabi_dmul + 552
        0x0000568c:    005a        Z.      LSLS     r2,r3,#1
        0x0000568e:    4282        .B      CMP      r2,r0
        0x00005690:    d306        ..      BCC      0x56a0 ; __aeabi_dmul + 552
        0x00005692:    4059        Y@      EORS     r1,r1,r3
        0x00005694:    0fc9        ..      LSRS     r1,r1,#31
        0x00005696:    4a08        .J      LDR      r2,[pc,#32] ; [0x56b8] = 0x7ff00000
        0x00005698:    07c9        ..      LSLS     r1,r1,#31
        0x0000569a:    2000        .       MOVS     r0,#0
        0x0000569c:    4311        .C      ORRS     r1,r1,r2
        0x0000569e:    e7dd        ..      B        0x565c ; __aeabi_dmul + 484
        0x000056a0:    2000        .       MOVS     r0,#0
        0x000056a2:    4906        .I      LDR      r1,[pc,#24] ; [0x56bc] = 0x7ff80000
        0x000056a4:    e7da        ..      B        0x565c ; __aeabi_dmul + 484
    $d
        0x000056a6:    0000        ..      DCW    0
        0x000056a8:    07ff0000    ....    DCD    134152192
        0x000056ac:    000007fe    ....    DCD    2046
        0x000056b0:    7fffffff    ....    DCD    2147483647
        0x000056b4:    ffe00000    ....    DCD    4292870144
        0x000056b8:    7ff00000    ....    DCD    2146435072
        0x000056bc:    7ff80000    ....    DCD    2146959360
    $t
    .text
    __I$use$semihosting
    __use_no_semihosting_swi
        0x000056c0:    4770        pG      BX       lr
    .text
    _printf_int_common
        0x000056c2:    b5ff        ..      PUSH     {r0-r7,lr}
        0x000056c4:    4604        .F      MOV      r4,r0
        0x000056c6:    460d        .F      MOV      r5,r1
        0x000056c8:    b081        ..      SUB      sp,sp,#4
        0x000056ca:    3024        $0      ADDS     r0,r0,#0x24
        0x000056cc:    9000        ..      STR      r0,[sp,#0]
        0x000056ce:    6821        !h      LDR      r1,[r4,#0]
        0x000056d0:    0688        ..      LSLS     r0,r1,#26
        0x000056d2:    d504        ..      BPL      0x56de ; _printf_int_common + 28
        0x000056d4:    2210        ."      MOVS     r2,#0x10
        0x000056d6:    69e0        .i      LDR      r0,[r4,#0x1c]
        0x000056d8:    4391        .C      BICS     r1,r1,r2
        0x000056da:    6021        !`      STR      r1,[r4,#0]
        0x000056dc:    e000        ..      B        0x56e0 ; _printf_int_common + 30
        0x000056de:    2001        .       MOVS     r0,#1
        0x000056e0:    42a8        .B      CMP      r0,r5
        0x000056e2:    dd01        ..      BLE      0x56e8 ; _printf_int_common + 38
        0x000056e4:    1b47        G.      SUBS     r7,r0,r5
        0x000056e6:    e000        ..      B        0x56ea ; _printf_int_common + 40
        0x000056e8:    2700        .'      MOVS     r7,#0
        0x000056ea:    9804        ..      LDR      r0,[sp,#0x10]
        0x000056ec:    69a1        .i      LDR      r1,[r4,#0x18]
        0x000056ee:    197a        z.      ADDS     r2,r7,r5
        0x000056f0:    1810        ..      ADDS     r0,r2,r0
        0x000056f2:    1a08        ..      SUBS     r0,r1,r0
        0x000056f4:    61a0        .a      STR      r0,[r4,#0x18]
        0x000056f6:    7820         x      LDRB     r0,[r4,#0]
        0x000056f8:    06c0        ..      LSLS     r0,r0,#27
        0x000056fa:    d402        ..      BMI      0x5702 ; _printf_int_common + 64
        0x000056fc:    4620         F      MOV      r0,r4
        0x000056fe:    46c0        .F      MOV      r8,r8
        0x00005700:    46c0        .F      MOV      r8,r8
        0x00005702:    2600        .&      MOVS     r6,#0
        0x00005704:    e008        ..      B        0x5718 ; _printf_int_common + 86
        0x00005706:    9803        ..      LDR      r0,[sp,#0xc]
        0x00005708:    6862        bh      LDR      r2,[r4,#4]
        0x0000570a:    68a1        .h      LDR      r1,[r4,#8]
        0x0000570c:    5d80        .]      LDRB     r0,[r0,r6]
        0x0000570e:    4790        .G      BLX      r2
        0x00005710:    6a20         j      LDR      r0,[r4,#0x20]
        0x00005712:    1c40        @.      ADDS     r0,r0,#1
        0x00005714:    1c76        v.      ADDS     r6,r6,#1
        0x00005716:    6220         b      STR      r0,[r4,#0x20]
        0x00005718:    9804        ..      LDR      r0,[sp,#0x10]
        0x0000571a:    4286        .B      CMP      r6,r0
        0x0000571c:    dbf3        ..      BLT      0x5706 ; _printf_int_common + 68
        0x0000571e:    7820         x      LDRB     r0,[r4,#0]
        0x00005720:    06c0        ..      LSLS     r0,r0,#27
        0x00005722:    d50a        ..      BPL      0x573a ; _printf_int_common + 120
        0x00005724:    4620         F      MOV      r0,r4
        0x00005726:    46c0        .F      MOV      r8,r8
        0x00005728:    46c0        .F      MOV      r8,r8
        0x0000572a:    e006        ..      B        0x573a ; _printf_int_common + 120
        0x0000572c:    6862        bh      LDR      r2,[r4,#4]
        0x0000572e:    68a1        .h      LDR      r1,[r4,#8]
        0x00005730:    2030        0       MOVS     r0,#0x30
        0x00005732:    4790        .G      BLX      r2
        0x00005734:    6a20         j      LDR      r0,[r4,#0x20]
        0x00005736:    1c40        @.      ADDS     r0,r0,#1
        0x00005738:    6220         b      STR      r0,[r4,#0x20]
        0x0000573a:    4638        8F      MOV      r0,r7
        0x0000573c:    1e7f        ..      SUBS     r7,r7,#1
        0x0000573e:    2800        .(      CMP      r0,#0
        0x00005740:    dcf4        ..      BGT      0x572c ; _printf_int_common + 106
        0x00005742:    e007        ..      B        0x5754 ; _printf_int_common + 146
        0x00005744:    9800        ..      LDR      r0,[sp,#0]
        0x00005746:    6862        bh      LDR      r2,[r4,#4]
        0x00005748:    68a1        .h      LDR      r1,[r4,#8]
        0x0000574a:    5d40        @]      LDRB     r0,[r0,r5]
        0x0000574c:    4790        .G      BLX      r2
        0x0000574e:    6a20         j      LDR      r0,[r4,#0x20]
        0x00005750:    1c40        @.      ADDS     r0,r0,#1
        0x00005752:    6220         b      STR      r0,[r4,#0x20]
        0x00005754:    4628        (F      MOV      r0,r5
        0x00005756:    1e6d        m.      SUBS     r5,r5,#1
        0x00005758:    2800        .(      CMP      r0,#0
        0x0000575a:    dcf3        ..      BGT      0x5744 ; _printf_int_common + 130
        0x0000575c:    4620         F      MOV      r0,r4
        0x0000575e:    46c0        .F      MOV      r8,r8
        0x00005760:    46c0        .F      MOV      r8,r8
        0x00005762:    7820         x      LDRB     r0,[r4,#0]
        0x00005764:    0600        ..      LSLS     r0,r0,#24
        0x00005766:    d502        ..      BPL      0x576e ; _printf_int_common + 172
        0x00005768:    2002        .       MOVS     r0,#2
        0x0000576a:    b005        ..      ADD      sp,sp,#0x14
        0x0000576c:    bdf0        ..      POP      {r4-r7,pc}
        0x0000576e:    2001        .       MOVS     r0,#1
        0x00005770:    e7fb        ..      B        0x576a ; _printf_int_common + 168
        0x00005772:    0000        ..      MOVS     r0,r0
    .text
    _printf_char_file
        0x00005774:    4b08        .K      LDR      r3,[pc,#32] ; [0x5798] = 0xffffb9ef
        0x00005776:    b570        p.      PUSH     {r4-r6,lr}
        0x00005778:    460d        .F      MOV      r5,r1
        0x0000577a:    447b        {D      ADD      r3,r3,pc
        0x0000577c:    f000f827    ..'.    BL       _printf_char_common ; 0x57ce
        0x00005780:    4604        .F      MOV      r4,r0
        0x00005782:    4628        (F      MOV      r0,r5
        0x00005784:    f7fbfce2    ....    BL       ferror ; 0x114c
        0x00005788:    2800        .(      CMP      r0,#0
        0x0000578a:    d002        ..      BEQ      0x5792 ; _printf_char_file + 30
        0x0000578c:    2000        .       MOVS     r0,#0
        0x0000578e:    43c0        .C      MVNS     r0,r0
        0x00005790:    bd70        p.      POP      {r4-r6,pc}
        0x00005792:    4620         F      MOV      r0,r4
        0x00005794:    bd70        p.      POP      {r4-r6,pc}
    $d
        0x00005796:    0000        ..      DCW    0
        0x00005798:    ffffb9ef    ....    DCD    4294949359
    $t
    .text
    __rt_udiv10
        0x0000579c:    4601        .F      MOV      r1,r0
        0x0000579e:    0880        ..      LSRS     r0,r0,#2
        0x000057a0:    1a08        ..      SUBS     r0,r1,r0
        0x000057a2:    0902        ..      LSRS     r2,r0,#4
        0x000057a4:    1810        ..      ADDS     r0,r2,r0
        0x000057a6:    0a02        ..      LSRS     r2,r0,#8
        0x000057a8:    1810        ..      ADDS     r0,r2,r0
        0x000057aa:    0c02        ..      LSRS     r2,r0,#16
        0x000057ac:    1810        ..      ADDS     r0,r2,r0
        0x000057ae:    08c0        ..      LSRS     r0,r0,#3
        0x000057b0:    0082        ..      LSLS     r2,r0,#2
        0x000057b2:    1812        ..      ADDS     r2,r2,r0
        0x000057b4:    0052        R.      LSLS     r2,r2,#1
        0x000057b6:    1a89        ..      SUBS     r1,r1,r2
        0x000057b8:    e001        ..      B        0x57be ; __rt_udiv10 + 34
        0x000057ba:    1c40        @.      ADDS     r0,r0,#1
        0x000057bc:    390a        .9      SUBS     r1,r1,#0xa
        0x000057be:    290a        .)      CMP      r1,#0xa
        0x000057c0:    d2fb        ..      BCS      0x57ba ; __rt_udiv10 + 30
        0x000057c2:    4770        pG      BX       lr
    .text
    _printf_input_char
        0x000057c4:    6901        .i      LDR      r1,[r0,#0x10]
        0x000057c6:    1c4a        J.      ADDS     r2,r1,#1
        0x000057c8:    6102        .a      STR      r2,[r0,#0x10]
        0x000057ca:    7808        .x      LDRB     r0,[r1,#0]
        0x000057cc:    4770        pG      BX       lr
    _printf_char_common
        0x000057ce:    b500        ..      PUSH     {lr}
        0x000057d0:    b08f        ..      SUB      sp,sp,#0x3c
        0x000057d2:    9102        ..      STR      r1,[sp,#8]
        0x000057d4:    2100        .!      MOVS     r1,#0
        0x000057d6:    9105        ..      STR      r1,[sp,#0x14]
        0x000057d8:    4905        .I      LDR      r1,[pc,#20] ; [0x57f0] = 0xffffffe5
        0x000057da:    9301        ..      STR      r3,[sp,#4]
        0x000057dc:    4479        yD      ADD      r1,r1,pc
        0x000057de:    9103        ..      STR      r1,[sp,#0xc]
        0x000057e0:    4611        .F      MOV      r1,r2
        0x000057e2:    9004        ..      STR      r0,[sp,#0x10]
        0x000057e4:    4668        hF      MOV      r0,sp
        0x000057e6:    f7fffabb    ....    BL       __printf ; 0x4d60
        0x000057ea:    b00f        ..      ADD      sp,sp,#0x3c
        0x000057ec:    bd00        ..      POP      {pc}
    $d
        0x000057ee:    0000        ..      DCW    0
        0x000057f0:    ffffffe5    ....    DCD    4294967269
    $t
    .text
    __user_setup_stackheap
        0x000057f4:    4675        uF      MOV      r5,lr
        0x000057f6:    f000f825    ..%.    BL       __user_libspace ; 0x5844
        0x000057fa:    46ae        .F      MOV      lr,r5
        0x000057fc:    0005        ..      MOVS     r5,r0
        0x000057fe:    4669        iF      MOV      r1,sp
        0x00005800:    4653        SF      MOV      r3,r10
        0x00005802:    08c0        ..      LSRS     r0,r0,#3
        0x00005804:    00c0        ..      LSLS     r0,r0,#3
        0x00005806:    4685        .F      MOV      sp,r0
        0x00005808:    b018        ..      ADD      sp,sp,#0x60
        0x0000580a:    b520         .      PUSH     {r5,lr}
        0x0000580c:    f7fbfc8a    ....    BL       __user_initial_stackheap ; 0x1124
        0x00005810:    bc60        `.      POP      {r5,r6}
        0x00005812:    2700        .'      MOVS     r7,#0
        0x00005814:    0849        I.      LSRS     r1,r1,#1
        0x00005816:    46b6        .F      MOV      lr,r6
        0x00005818:    2600        .&      MOVS     r6,#0
        0x0000581a:    c5c0        ..      STM      r5!,{r6,r7}
        0x0000581c:    c5c0        ..      STM      r5!,{r6,r7}
        0x0000581e:    c5c0        ..      STM      r5!,{r6,r7}
        0x00005820:    c5c0        ..      STM      r5!,{r6,r7}
        0x00005822:    c5c0        ..      STM      r5!,{r6,r7}
        0x00005824:    c5c0        ..      STM      r5!,{r6,r7}
        0x00005826:    c5c0        ..      STM      r5!,{r6,r7}
        0x00005828:    c5c0        ..      STM      r5!,{r6,r7}
        0x0000582a:    3d40        @=      SUBS     r5,r5,#0x40
        0x0000582c:    0049        I.      LSLS     r1,r1,#1
        0x0000582e:    468d        .F      MOV      sp,r1
        0x00005830:    4770        pG      BX       lr
    .text
    exit
        0x00005832:    b510        ..      PUSH     {r4,lr}
        0x00005834:    4604        .F      MOV      r4,r0
        0x00005836:    46c0        .F      MOV      r8,r8
        0x00005838:    46c0        .F      MOV      r8,r8
        0x0000583a:    4620         F      MOV      r0,r4
        0x0000583c:    f7fafc78    ..x.    BL       __rt_exit ; 0x130
        0x00005840:    bd10        ..      POP      {r4,pc}
        0x00005842:    0000        ..      MOVS     r0,r0
    .text
    __user_libspace
    __user_perproc_libspace
    __user_perthread_libspace
        0x00005844:    4800        .H      LDR      r0,[pc,#0] ; [0x5848] = 0x20000748
        0x00005846:    4770        pG      BX       lr
    $d
        0x00005848:    20000748    H..     DCD    536872776
    $d.realdata
    .constdata
    adv_data
    x$fpl$usenofp
    __I$use$fp
        0x0000584c:    917d6b55    Uk}.    DCD    2440915797
        0x00005850:    7343b171    q.Cs    DCD    1933816177
        0x00005854:    8d3231cc    .12.    DCD    2368877004
        0x00005858:    e80cee04    ....    DCD    3893161476
        0x0000585c:    dd24f972    r.$.    DCD    3710187890
        0x00005860:    665bd06d    m.[f    DCD    1717293165
        0x00005864:    802a        *.      DCW    32810
    scan_rsp_data
        0x00005866:    0000        ..      DCW    0
        0x00005868:    00000000    ....    DCD    0
        0x0000586c:    00000000    ....    DCD    0
        0x00005870:    00000000    ....    DCD    0
        0x00005874:    00000000    ....    DCD    0
        0x00005878:    00000000    ....    DCD    0
        0x0000587c:    917d6b55    Uk}.    DCD    2440915797
        0x00005880:    737b9171    q.{s    DCD    1937478001
        0x00005884:    8d3231cc    .12.    DCD    2368877004
        0x00005888:    88730e04    ..s.    DCD    2289241604
        0x0000588c:    ccbb3c52    R<..    DCD    3434822738
        0x00005890:    00001326    &...    DCD    4902
    .constdata
        0x00005894:    03880322    "...    DCD    59245346
        0x00005898:    010d03a1    ....    DCD    17630113
        0x0000589c:    01b203b5    ....    DCD    28443573
        0x000058a0:    02420171    q.B.    DCD    37880177
        0x000058a4:    03ca01c7    ....    DCD    63570375
        0x000058a8:    0129008b    ..).    DCD    19464331
        0x000058ac:    006d024b    K.m.    DCD    7144011
        0x000058b0:    009f0175    u...    DCD    10420597
        0x000058b4:    03850321    !...    DCD    59048737
        0x000058b8:    010b039c    ....    DCD    17499036
        0x000058bc:    01ad03ac    ....    DCD    28115884
        0x000058c0:    0239016c    l.9.    DCD    37290348
        0x000058c4:    03b701bf    ....    DCD    62325183
        0x000058c8:    01220088    ..".    DCD    19005576
        0x000058cc:    006a023c    <.j.    DCD    6947388
        0x000058d0:    009a016a    j...    DCD    10092906
    .constdata
    default_dac_2m_setting
        0x000058d4:    0000001f    ....    DCD    31
        0x000058d8:    0000001f    ....    DCD    31
        0x000058dc:    0000001d    ....    DCD    29
        0x000058e0:    00000002    ....    DCD    2
        0x000058e4:    00000002    ....    DCD    2
        0x000058e8:    046d046b    k.m.    DCD    74253419
        0x000058ec:    0471046f    o.q.    DCD    74515567
        0x000058f0:    04760474    t.v.    DCD    74843252
        0x000058f4:    047a0478    x.z.    DCD    75105400
        0x000058f8:    045d045b    [.].    DCD    73204827
        0x000058fc:    0461045f    _.a.    DCD    73466975
        0x00005900:    04660464    d.f.    DCD    73794660
        0x00005904:    046a0468    h.j.    DCD    74056808
        0x00005908:    046e046c    l.n.    DCD    74318956
        0x0000590c:    04720470    p.r.    DCD    74581104
        0x00005910:    04750473    s.u.    DCD    74777715
        0x00005914:    04790477    w.y.    DCD    75039863
        0x00005918:    045e045c    \.^.    DCD    73270364
        0x0000591c:    04620460    `.b.    DCD    73532512
        0x00005920:    04650463    c.e.    DCD    73729123
        0x00005924:    04690467    g.i.    DCD    73991271
    .constdata
    uc_hextab
        0x00005928:    33323130    0123    DCD    858927408
        0x0000592c:    37363534    4567    DCD    926299444
        0x00005930:    42413938    89AB    DCD    1111570744
        0x00005934:    46454443    CDEF    DCD    1178944579
        0x00005938:    00583040    @0X.    DCD    5779520
    lc_hextab
        0x0000593c:    33323130    0123    DCD    858927408
        0x00005940:    37363534    4567    DCD    926299444
        0x00005944:    62613938    89ab    DCD    1650538808
        0x00005948:    66656463    cdef    DCD    1717920867
        0x0000594c:    00783040    @0x.    DCD    7876672
    .conststring
        0x00005950:    74696e49    Init    DCD    1953066569
        0x00005954:    696c6169    iali    DCD    1768710505
        0x00005958:    676e697a    zing    DCD    1735289210
        0x0000595c:    454c4220     BLE    DCD    1162625568
        0x00005960:    2e585420     TX.    DCD    777540640
        0x00005964:    00000a0d    ....    DCD    2573
    .conststring
        0x00005968:    6c637963    cycl    DCD    1818458467
        0x0000596c:    25207365    es %    DCD    622883685
        0x00005970:    000a0d64    d...    DCD    658788
    .conststring
        0x00005974:    45540a0d    ..TE    DCD    1163135501
        0x00005978:    44205453    ST D    DCD    1142969427
        0x0000597c:    0d454e4f    ONE.    DCD    222645839
        0x00005980:    0000000a    ....    DCD    10
    .conststring
        0x00005984:    696c6143    Cali    DCD    1768710467
        0x00005988:    74617262    brat    DCD    1952543330
        0x0000598c:    206e6f69    ion     DCD    544108393
        0x00005990:    706d6f63    comp    DCD    1886220131
        0x00005994:    6574656c    lete    DCD    1702126956
        0x00005998:    00000a0d    ....    DCD    2573
        0x0000599c:    253d4648    HF=%    DCD    624772680
        0x000059a0:    64252d64    d-%d    DCD    1680158052
        0x000059a4:    32202020       2    DCD    840966176
        0x000059a8:    64253d4d    M=%d    DCD    1680162125
        0x000059ac:    0064252d    -%d.    DCD    6563117
        0x000059b0:    2c64252c    ,%d,    DCD    744760620
        0x000059b4:    20206425    %d      DCD    538993701
        0x000059b8:    3d434c20     LC=    DCD    1027820576
        0x000059bc:    252d6425    %d-%    DCD    623731749
        0x000059c0:    20202064    d       DCD    538976356
        0x000059c4:    00000000    ....    DCD    0
        0x000059c8:    253d4649    IF=%    DCD    624772681
        0x000059cc:    64252d64    d-%d    DCD    1680158052
        0x000059d0:    00000a0d    ....    DCD    2573
    .conststring
        0x000059d4:    6e617274    tran    DCD    1851880052
        0x000059d8:    74696d73    smit    DCD    1953066355
        0x000059dc:    00000000    ....    DCD    0
        0x000059e0:    65636572    rece    DCD    1701012850
        0x000059e4:    00657669    ive.    DCD    6649449
        0x000059e8:    72616f63    coar    DCD    1918988131
        0x000059ec:    253d6573    se=%    DCD    624780659
        0x000059f0:    6d202c64    d, m    DCD    1830825060
        0x000059f4:    6c646469    iddl    DCD    1818518633
        0x000059f8:    64253d65    e=%d    DCD    1680162149
        0x000059fc:    6966202c    , fi    DCD    1768300588
        0x00005a00:    253d656e    ne=%    DCD    624780654
        0x00005a04:    000a0d64    d...    DCD    658788
        0x00005a08:    706f7453    Stop    DCD    1886352467
        0x00005a0c:    676e6970    ping    DCD    1735289200
        0x00005a10:    2f787220     rx/    DCD    796422688
        0x00005a14:    61207874    tx a    DCD    1629517940
        0x00005a18:    65772073    s we    DCD    1702305907
        0x00005a1c:    76616820     hav    DCD    1986095136
        0x00005a20:    65722065    e re    DCD    1701978213
        0x00005a24:    76696563    ceiv    DCD    1986618723
        0x00005a28:    742f6465    ed/t    DCD    1949262949
        0x00005a2c:    736e6172    rans    DCD    1936613746
        0x00005a30:    7474696d    mitt    DCD    1953786221
        0x00005a34:    25206465    ed %    DCD    622879845
        0x00005a38:    61702064    d pa    DCD    1634738276
        0x00005a3c:    74656b63    cket    DCD    1952803683
        0x00005a40:    00000a73    s...    DCD    2675
        0x00005a44:    65636552    Rece    DCD    1701012818
        0x00005a48:    64657669    ived    DCD    1684371049
        0x00005a4c:    63615020     Pac    DCD    1667321888
        0x00005a50:    2e74656b    ket.    DCD    779380075
        0x00005a54:    6e6f4320     Con    DCD    1852785440
        0x00005a58:    746e6574    tent    DCD    1953391988
        0x00005a5c:    00203a73    s: .    DCD    2112115
        0x00005a60:    00206425    %d .    DCD    2122789
        0x00005a64:    0000000a    ....    DCD    10
        0x00005a68:    0a0d5825    %X..    DCD    168646693
        0x00005a6c:    00000000    ....    DCD    0
    .conststring
        0x00005a70:    20434441    ADC     DCD    541279297
        0x00005a74:    65746e69    inte    DCD    1702129257
        0x00005a78:    70757272    rrup    DCD    1886745202
        0x00005a7c:    6e652074    t en    DCD    1852121204
        0x00005a80:    656c6261    able    DCD    1701601889
        0x00005a84:    30203a64    d: 0    DCD    807418468
        0x00005a88:    2e782578    x%x.    DCD    779625848
        0x00005a8c:    0000000a    ....    DCD    10
        0x00005a90:    20434441    ADC     DCD    541279297
        0x00005a94:    65746e69    inte    DCD    1702129257
        0x00005a98:    70757272    rrup    DCD    1886745202
        0x00005a9c:    69642074    t di    DCD    1768169588
        0x00005aa0:    6c626173    sabl    DCD    1818386803
        0x00005aa4:    203a6465    ed:     DCD    540697701
        0x00005aa8:    78257830    0x%x    DCD    2015721520
        0x00005aac:    00000a2e    ....    DCD    2606
        0x00005ab0:    20434441    ADC     DCD    541279297
        0x00005ab4:    766e6f63    conv    DCD    1986948963
        0x00005ab8:    69737265    ersi    DCD    1769173605
        0x00005abc:    63206e6f    on c    DCD    1663069807
        0x00005ac0:    6c706d6f    ompl    DCD    1819307375
        0x00005ac4:    2e657465    ete.    DCD    778400869
        0x00005ac8:    0000000a    ....    DCD    10
    .conststring
        0x00005acc:    65747845    Exte    DCD    1702131781
        0x00005ad0:    6c616e72    rnal    DCD    1818324594
        0x00005ad4:    746e4920     Int    DCD    1953384736
        0x00005ad8:    75727265    erru    DCD    1970434661
        0x00005adc:    47207470    pt G    DCD    1193309296
        0x00005ae0:    334f4950    PIO3    DCD    860834128
        0x00005ae4:    69727420     tri    DCD    1769108512
        0x00005ae8:    72656767    gger    DCD    1919248231
        0x00005aec:    0a0d6465    ed..    DCD    168649829
        0x00005af0:    00000000    ....    DCD    0
        0x00005af4:    65747845    Exte    DCD    1702131781
        0x00005af8:    6c616e72    rnal    DCD    1818324594
        0x00005afc:    746e4920     Int    DCD    1953384736
        0x00005b00:    75727265    erru    DCD    1970434661
        0x00005b04:    47207470    pt G    DCD    1193309296
        0x00005b08:    394f4950    PIO9    DCD    961497424
        0x00005b0c:    69727420     tri    DCD    1769108512
        0x00005b10:    72656767    gger    DCD    1919248231
        0x00005b14:    0a0d6465    ed..    DCD    168649829
        0x00005b18:    00000000    ....    DCD    0
        0x00005b1c:    65747845    Exte    DCD    1702131781
        0x00005b20:    6c616e72    rnal    DCD    1818324594
        0x00005b24:    746e4920     Int    DCD    1953384736
        0x00005b28:    75727265    erru    DCD    1970434661
        0x00005b2c:    47207470    pt G    DCD    1193309296
        0x00005b30:    314f4950    PIO1    DCD    827279696
        0x00005b34:    72742030    0 tr    DCD    1920213040
        0x00005b38:    65676769    igge    DCD    1701275497
        0x00005b3c:    0d646572    red.    DCD    224683378
        0x00005b40:    0000000a    ....    DCD    10
    .conststring
        0x00005b44:    74726175    uart    DCD    1953653109
        0x00005b48:    20787220     rx     DCD    544764448
        0x00005b4c:    65746e69    inte    DCD    1702129257
        0x00005b50:    70757272    rrup    DCD    1886745202
        0x00005b54:    72742074    t tr    DCD    1920213108
        0x00005b58:    65676769    igge    DCD    1701275497
        0x00005b5c:    0d646572    red.    DCD    224683378
        0x00005b60:    0000000a    ....    DCD    10
    .conststring
        0x00005b64:    65746e69    inte    DCD    1702129257
        0x00005b68:    70757272    rrup    DCD    1886745202
        0x00005b6c:    64252074    t %d    DCD    1680154740
        0x00005b70:    6c616320     cal    DCD    1818321696
        0x00005b74:    2c64656c    led,    DCD    744777068
        0x00005b78:    74756220     but    DCD    1953849888
        0x00005b7c:    64616820     had    DCD    1684105248
        0x00005b80:    206f6e20     no     DCD    544173600
        0x00005b84:    6c6c6163    call    DCD    1819042147
        0x00005b88:    6b636162    back    DCD    1801675106
        0x00005b8c:    66656420     def    DCD    1717920800
        0x00005b90:    64656e69    ined    DCD    1684369001
        0x00005b94:    00000a2e    ....    DCD    2606
    .conststring
        0x00005b98:    2d2d0a0d    ..--    DCD    757926413
        0x00005b9c:    2d2d2d2d    ----    DCD    757935405
        0x00005ba0:    2d2d2d2d    ----    DCD    757935405
        0x00005ba4:    2d2d2d2d    ----    DCD    757935405
        0x00005ba8:    2d2d2d2d    ----    DCD    757935405
        0x00005bac:    000a0d2d    -...    DCD    658733
        0x00005bb0:    696c6156    Vali    DCD    1768710486
        0x00005bb4:    69746164    dati    DCD    1769234788
        0x00005bb8:    7020676e    ng p    DCD    1881171822
        0x00005bbc:    72676f72    rogr    DCD    1919381362
        0x00005bc0:    69206d61    am i    DCD    1763732833
        0x00005bc4:    6765746e    nteg    DCD    1734702190
        0x00005bc8:    79746972    rity    DCD    2037672306
        0x00005bcc:    002e2e2e    ....    DCD    3026478
        0x00005bd0:    20435243    CRC     DCD    541282883
        0x00005bd4:    0a0d4b4f    OK..    DCD    168643407
        0x00005bd8:    00000000    ....    DCD    0
        0x00005bdc:    72500a0d    ..Pr    DCD    1917848077
        0x00005be0:    6172676f    ogra    DCD    1634887535
        0x00005be4:    6e696d6d    mmin    DCD    1852403053
        0x00005be8:    72452067    g Er    DCD    1917132903
        0x00005bec:    20726f72    ror     DCD    544370546
        0x00005bf0:    5243202d    - CR    DCD    1380130861
        0x00005bf4:    4f442043    C DO    DCD    1329864771
        0x00005bf8:    4e205345    ES N    DCD    1310741317
        0x00005bfc:    4d20544f    OT M    DCD    1293964367
        0x00005c00:    48435441    ATCH    DCD    1212372033
        0x00005c04:    48202d20     - H    DCD    1210068256
        0x00005c08:    69746c61    alti    DCD    1769237601
        0x00005c0c:    4520676e    ng E    DCD    1159751534
        0x00005c10:    75636578    xecu    DCD    1969448312
        0x00005c14:    6e6f6974    tion    DCD    1852795252
        0x00005c18:    00000a0d    ....    DCD    2573
        0x00005c1c:    0a0d0a0d    ....    DCD    168626701
        0x00005c20:    72617453    Star    DCD    1918989395
        0x00005c24:    676e6974    ting    DCD    1735289204
        0x00005c28:    41525320     SRA    DCD    1095914272
        0x00005c2c:    6574204d    M te    DCD    1702109261
        0x00005c30:    66207473    st f    DCD    1713402995
        0x00005c34:    206d6f72    rom     DCD    544042866
        0x00005c38:    58257830    0x%X    DCD    1478850608
        0x00005c3c:    206f7420     to     DCD    544175136
        0x00005c40:    58257830    0x%X    DCD    1478850608
        0x00005c44:    0d2e2e2e    ....    DCD    221130286
        0x00005c48:    0000000a    ....    DCD    10
        0x00005c4c:    73696854    This    DCD    1936287828
        0x00005c50:    6b617420     tak    DCD    1801548832
        0x00005c54:    61207365    es a    DCD    1629516645
        0x00005c58:    6c696877    whil    DCD    1818847351
        0x00005c5c:    2e2e2e65    e...    DCD    774778469
        0x00005c60:    00000a0d    ....    DCD    2573
        0x00005c64:    52450a0d    ..ER    DCD    1380256269
        0x00005c68:    20524f52    ROR     DCD    542265170
        0x00005c6c:    20402031    1 @     DCD    541073457
        0x00005c70:    72646461    addr    DCD    1919181921
        0x00005c74:    20737365    ess     DCD    544437093
        0x00005c78:    62205825    %X b    DCD    1646286885
        0x00005c7c:    25207469    it %    DCD    622883945
        0x00005c80:    2d2d2064    d --    DCD    757932132
        0x00005c84:    6c615620     Val    DCD    1818318368
        0x00005c88:    69206575    ue i    DCD    1763730805
        0x00005c8c:    58252073    s %X    DCD    1478828147
        0x00005c90:    00000000    ....    DCD    0
        0x00005c94:    52450a0d    ..ER    DCD    1380256269
        0x00005c98:    20524f52    ROR     DCD    542265170
        0x00005c9c:    20402032    2 @     DCD    541073458
        0x00005ca0:    72646461    addr    DCD    1919181921
        0x00005ca4:    20737365    ess     DCD    544437093
        0x00005ca8:    62205825    %X b    DCD    1646286885
        0x00005cac:    25207469    it %    DCD    622883945
        0x00005cb0:    2d2d2064    d --    DCD    757932132
        0x00005cb4:    6c615620     Val    DCD    1818318368
        0x00005cb8:    69206575    ue i    DCD    1763730805
        0x00005cbc:    58252073    s %X    DCD    1478828147
        0x00005cc0:    00000000    ....    DCD    0
        0x00005cc4:    52450a0d    ..ER    DCD    1380256269
        0x00005cc8:    20524f52    ROR     DCD    542265170
        0x00005ccc:    20402033    3 @     DCD    541073459
        0x00005cd0:    72646461    addr    DCD    1919181921
        0x00005cd4:    20737365    ess     DCD    544437093
        0x00005cd8:    62205825    %X b    DCD    1646286885
        0x00005cdc:    25207469    it %    DCD    622883945
        0x00005ce0:    2d2d2064    d --    DCD    757932132
        0x00005ce4:    6c615620     Val    DCD    1818318368
        0x00005ce8:    69206575    ue i    DCD    1763730805
        0x00005cec:    58252073    s %X    DCD    1478828147
        0x00005cf0:    00000000    ....    DCD    0
        0x00005cf4:    52450a0d    ..ER    DCD    1380256269
        0x00005cf8:    20524f52    ROR     DCD    542265170
        0x00005cfc:    20402034    4 @     DCD    541073460
        0x00005d00:    72646461    addr    DCD    1919181921
        0x00005d04:    20737365    ess     DCD    544437093
        0x00005d08:    62205825    %X b    DCD    1646286885
        0x00005d0c:    25207469    it %    DCD    622883945
        0x00005d10:    2d2d2064    d --    DCD    757932132
        0x00005d14:    6c615620     Val    DCD    1818318368
        0x00005d18:    69206575    ue i    DCD    1763730805
        0x00005d1c:    58252073    s %X    DCD    1478828147
        0x00005d20:    00000000    ....    DCD    0
        0x00005d24:    52450a0d    ..ER    DCD    1380256269
        0x00005d28:    20524f52    ROR     DCD    542265170
        0x00005d2c:    20402035    5 @     DCD    541073461
        0x00005d30:    72646461    addr    DCD    1919181921
        0x00005d34:    20737365    ess     DCD    544437093
        0x00005d38:    62205825    %X b    DCD    1646286885
        0x00005d3c:    25207469    it %    DCD    622883945
        0x00005d40:    2d2d2064    d --    DCD    757932132
        0x00005d44:    6c615620     Val    DCD    1818318368
        0x00005d48:    69206575    ue i    DCD    1763730805
        0x00005d4c:    58252073    s %X    DCD    1478828147
        0x00005d50:    00000000    ....    DCD    0
        0x00005d54:    52530a0d    ..SR    DCD    1381173773
        0x00005d58:    54204d41    AM T    DCD    1411403073
        0x00005d5c:    20747365    est     DCD    544502629
        0x00005d60:    706d6f43    Comp    DCD    1886220099
        0x00005d64:    6574656c    lete    DCD    1702126956
        0x00005d68:    202d2d20     --     DCD    539831584
        0x00005d6c:    45206425    %d E    DCD    1159750693
        0x00005d70:    726f7272    rror    DCD    1919906418
        0x00005d74:    000a0d73    s...    DCD    658803
        0x00005d78:    72616f63    coar    DCD    1918988131
        0x00005d7c:    203a6573    se:     DCD    540697971
        0x00005d80:    202c6425    %d,     DCD    539780133
        0x00005d84:    3a64696d    mid:    DCD    979659117
        0x00005d88:    2c642520     %d,    DCD    744760608
        0x00005d8c:    6e696620     fin    DCD    1852401184
        0x00005d90:    64252065    e %d    DCD    1680154725
        0x00005d94:    00000a0d    ....    DCD    2573
    Region$$Table$$Base
        0x00005d98:    00005db8    .]..    DCD    23992
        0x00005d9c:    20000000    ...     DCD    536870912
        0x00005da0:    000000b8    ....    DCD    184
        0x00005da4:    000000c4    ....    DCD    196
        0x00005da8:    00005e70    p^..    DCD    24176
        0x00005dac:    200000b8    ...     DCD    536871096
        0x00005db0:    000012f8    ....    DCD    4856
        0x00005db4:    000000e0    ....    DCD    224
    Region$$Table$$Limit

====================================

** Section #2

    Name        : RW_IRAM1
    Type        : SHT_PROGBITS (0x00000001)
    Flags       : SHF_ALLOC + SHF_WRITE (0x00000003)
    Addr        : 0x20000000
    File Offset : 24044 (0x5dec)
    Size        : 184 bytes (0xb8)
    Link        : SHN_UNDEF
    Info        : 0
    Alignment   : 4
    Entry Size  : 0


====================================

** Section #3

    Name        : RW_IRAM1
    Type        : SHT_NOBITS (0x00000008)
    Flags       : SHF_ALLOC + SHF_WRITE (0x00000003)
    Addr        : 0x200000b8
    File Offset : 24228 (0x5ea4)
    Size        : 4856 bytes (0x12f8)
    Link        : SHN_UNDEF
    Info        : 0
    Alignment   : 16
    Entry Size  : 0


====================================

** Section #4

    Name        : .debug_abbrev
    Type        : SHT_PROGBITS (0x00000001)
    Flags       : None (0x00000000)
    Addr        : 0x00000000
    File Offset : 24228 (0x5ea4)
    Size        : 1476 bytes (0x5c4)
    Link        : SHN_UNDEF
    Info        : 0
    Alignment   : 1
    Entry Size  : 0


====================================

** Section #5

    Name        : .debug_frame
    Type        : SHT_PROGBITS (0x00000001)
    Flags       : None (0x00000000)
    Addr        : 0x00000000
    File Offset : 25704 (0x6468)
    Size        : 6704 bytes (0x1a30)
    Link        : SHN_UNDEF
    Info        : 0
    Alignment   : 1
    Entry Size  : 0


====================================

** Section #6

    Name        : .debug_info
    Type        : SHT_PROGBITS (0x00000001)
    Flags       : None (0x00000000)
    Addr        : 0x00000000
    File Offset : 32408 (0x7e98)
    Size        : 30156 bytes (0x75cc)
    Link        : SHN_UNDEF
    Info        : 0
    Alignment   : 1
    Entry Size  : 0


====================================

** Section #7

    Name        : .debug_line
    Type        : SHT_PROGBITS (0x00000001)
    Flags       : None (0x00000000)
    Addr        : 0x00000000
    File Offset : 62564 (0xf464)
    Size        : 12556 bytes (0x310c)
    Link        : SHN_UNDEF
    Info        : 0
    Alignment   : 1
    Entry Size  : 0


====================================

** Section #8

    Name        : .debug_loc
    Type        : SHT_PROGBITS (0x00000001)
    Flags       : None (0x00000000)
    Addr        : 0x00000000
    File Offset : 75120 (0x12570)
    Size        : 11856 bytes (0x2e50)
    Link        : SHN_UNDEF
    Info        : 0
    Alignment   : 1
    Entry Size  : 0


====================================

** Section #9

    Name        : .debug_macinfo
    Type        : SHT_PROGBITS (0x00000001)
    Flags       : None (0x00000000)
    Addr        : 0x00000000
    File Offset : 86976 (0x153c0)
    Size        : 4128 bytes (0x1020)
    Link        : SHN_UNDEF
    Info        : 0
    Alignment   : 1
    Entry Size  : 0


====================================

** Section #10

    Name        : .debug_pubnames
    Type        : SHT_PROGBITS (0x00000001)
    Flags       : None (0x00000000)
    Addr        : 0x00000000
    File Offset : 91104 (0x163e0)
    Size        : 5878 bytes (0x16f6)
    Link        : SHN_UNDEF
    Info        : 0
    Alignment   : 1
    Entry Size  : 0


====================================

** Section #11

    Name        : .symtab
    Type        : SHT_SYMTAB (0x00000002)
    Flags       : None (0x00000000)
    Addr        : 0x00000000
    File Offset : 96984 (0x17ad8)
    Size        : 10288 bytes (0x2830)
    Link        : Section 12 (.strtab)
    Info        : Last local symbol no = 269
    Alignment   : 4
    Entry Size  : 16


====================================

** Section #12

    Name        : .strtab
    Type        : SHT_STRTAB (0x00000003)
    Flags       : None (0x00000000)
    Addr        : 0x00000000
    File Offset : 107272 (0x1a308)
    Size        : 9612 bytes (0x258c)
    Link        : SHN_UNDEF
    Info        : 0
    Alignment   : 1
    Entry Size  : 0


====================================

** Section #13

    Name        : .note
    Type        : SHT_NOTE (0x00000007)
    Flags       : None (0x00000000)
    Addr        : 0x00000000
    File Offset : 116884 (0x1c894)
    Size        : 28 bytes (0x1c)
    Link        : SHN_UNDEF
    Info        : 0
    Alignment   : 4
    Entry Size  : 0

        Section     Segment
    ====================================

              1           0
              2           0
              3           0

====================================

** Section #14

    Name        : .comment
    Type        : SHT_PROGBITS (0x00000001)
    Flags       : None (0x00000000)
    Addr        : 0x00000000
    File Offset : 116912 (0x1c8b0)
    Size        : 6788 bytes (0x1a84)
    Link        : SHN_UNDEF
    Info        : 0
    Alignment   : 1
    Entry Size  : 0

    Component: ARM Compiler 5.06 update 7 (build 960) Tool: armlink [4d3601]
    ArmLink --strict --callgraph --load_addr_map_info --map --symbols --xref --diag_suppress=9931 --cpu=Cortex-M0 --list=.\Listings\ble_tx.map --output=.\Objects\ble_tx.axf --scatter=.\Objects\ble_tx.sct --info=summarysizes,sizes,totals,unused,veneers

    C:\Keil_v5\ARM\ARMCC\Bin\..\lib\armlib\c_p.l
    C:\Keil_v5\ARM\ARMCC\Bin\..\lib\armlib\fz_ps.l
    C:\Keil_v5\ARM\ARMCC\Bin\..\lib\armlib\h_p.l
    C:\Keil_v5\ARM\ARMCC\Bin\..\lib\armlib\m_ps.l
    C:\Keil_v5\ARM\ARMCC\Bin\..\lib\armlib\vfpsupport.l
    Input Comments:
    
    ble_tx.o
    
    Component: ARM Compiler 5.06 update 7 (build 960) Tool: ArmCC [4d365d]
    ArmCC --c99 --execute_only --debug -c -o.\objects\ble_tx.o --depend=.\objects\ble_tx.d --cpu=Cortex-M0 --apcs=interwork -O0 --diag_suppress=9931 -I../../ -IC:\Users\6RF4001\AppData\Local\Arm\Packs\ARM\CMSIS\5.8.0\Device\ARM\ARMCM0\Include -IC:\Users\6RF4001\AppData\Local\Arm\Packs\ARM\CMSIS\5.8.0\Device\Include -D__EVAL -D__UVISION_VERSION=536 -DARMCM0 --omf_browse=.\objects\ble_tx.crf ble_tx.c
    
    ble.o
    
    Component: ARM Compiler 5.06 update 7 (build 960) Tool: ArmCC [4d365d]
    ArmCC --c99 --execute_only --debug -c -o.\objects\ble.o --depend=.\objects\ble.d --cpu=Cortex-M0 --apcs=interwork -O0 --diag_suppress=9931 -I../../ -IC:\Users\6RF4001\AppData\Local\Arm\Packs\ARM\CMSIS\5.8.0\Device\ARM\ARMCM0\Include -IC:\Users\6RF4001\AppData\Local\Arm\Packs\ARM\CMSIS\5.8.0\Device\Include -D__EVAL -D__UVISION_VERSION=536 -DARMCM0 --omf_browse=.\objects\ble.crf ble.c
    
    ble_transceiver.o
    
    Component: ARM Compiler 5.06 update 7 (build 960) Tool: ArmCC [4d365d]
    ArmCC --c99 --execute_only --debug -c -o.\objects\ble_transceiver.o --depend=.\objects\ble_transceiver.d --cpu=Cortex-M0 --apcs=interwork -O0 --diag_suppress=9931 -I../../ -IC:\Users\6RF4001\AppData\Local\Arm\Packs\ARM\CMSIS\5.8.0\Device\ARM\ARMCM0\Include -IC:\Users\6RF4001\AppData\Local\Arm\Packs\ARM\CMSIS\5.8.0\Device\Include -D__EVAL -D__UVISION_VERSION=536 -DARMCM0 --omf_browse=.\objects\ble_transceiver.crf ble_transceiver.c
    
    cm0dsasm.o
    
    Component: ARM Compiler 5.06 update 7 (build 960) Tool: armasm [4d35fa]
    ArmAsm --16 --debug --xref --diag_suppress=9931 --cpu=Cortex-M0 --apcs=interwork --depend=.\objects\cm0dsasm.d  -IC:\Users\6RF4001\AppData\Local\Arm\Packs\ARM\CMSIS\5.8.0\Device\ARM\ARMCM0\Include -IC:\Users\6RF4001\AppData\Local\Arm\Packs\
    
    
    retarget.o
    
    Component: ARM Compiler 5.06 update 7 (build 960) Tool: ArmCC [4d365d]
    ArmCC --c99 --execute_only --debug -c -o.\objects\retarget.o --depend=.\objects\retarget.d --cpu=Cortex-M0 --apcs=interwork -O0 --diag_suppress=9931 -I../../ -IC:\Users\6RF4001\AppData\Local\Arm\Packs\ARM\CMSIS\5.8.0\Device\ARM\ARMCM0\Include -IC:\Users\6RF4001\AppData\Local\Arm\Packs\ARM\CMSIS\5.8.0\Device\Include -D__EVAL -D__UVISION_VERSION=536 -DARMCM0 --omf_browse=.\objects\retarget.crf ..\..\retarget.c
    
    optical.o
    
    Component: ARM Compiler 5.06 update 7 (build 960) Tool: ArmCC [4d365d]
    ArmCC --c99 --execute_only --debug -c -o.\objects\optical.o --depend=.\objects\optical.d --cpu=Cortex-M0 --apcs=interwork -O0 --diag_suppress=9931 -I../../ -IC:\Users\6RF4001\AppData\Local\Arm\Packs\ARM\CMSIS\5.8.0\Device\ARM\ARMCM0\Include -IC:\Users\6RF4001\AppData\Local\Arm\Packs\ARM\CMSIS\5.8.0\Device\Include -D__EVAL -D__UVISION_VERSION=536 -DARMCM0 --omf_browse=.\objects\optical.crf ..\..\optical.c
    
    radio.o
    
    Component: ARM Compiler 5.06 update 7 (build 960) Tool: ArmCC [4d365d]
    ArmCC --c99 --execute_only --debug -c -o.\objects\radio.o --depend=.\objects\radio.d --cpu=Cortex-M0 --apcs=interwork -O0 --diag_suppress=9931 -I../../ -IC:\Users\6RF4001\AppData\Local\Arm\Packs\ARM\CMSIS\5.8.0\Device\ARM\ARMCM0\Include -IC:\Users\6RF4001\AppData\Local\Arm\Packs\ARM\CMSIS\5.8.0\Device\Include -D__EVAL -D__UVISION_VERSION=536 -DARMCM0 --omf_browse=.\objects\radio.crf ..\..\radio.c
    
    adc.o
    
    Component: ARM Compiler 5.06 update 7 (build 960) Tool: ArmCC [4d365d]
    ArmCC --c99 --execute_only --debug -c -o.\objects\adc.o --depend=.\objects\adc.d --cpu=Cortex-M0 --apcs=interwork -O0 --diag_suppress=9931 -I../../ -IC:\Users\6RF4001\AppData\Local\Arm\Packs\ARM\CMSIS\5.8.0\Device\ARM\ARMCM0\Include -IC:\Users\6RF4001\AppData\Local\Arm\Packs\ARM\CMSIS\5.8.0\Device\Include -D__EVAL -D__UVISION_VERSION=536 -DARMCM0 --omf_browse=.\objects\adc.crf ..\..\adc.c
    
    gpio.o
    
    Component: ARM Compiler 5.06 update 7 (build 960) Tool: ArmCC [4d365d]
    ArmCC --c99 --execute_only --debug -c -o.\objects\gpio.o --depend=.\objects\gpio.d --cpu=Cortex-M0 --apcs=interwork -O0 --diag_suppress=9931 -I../../ -IC:\Users\6RF4001\AppData\Local\Arm\Packs\ARM\CMSIS\5.8.0\Device\ARM\ARMCM0\Include -IC:\Users\6RF4001\AppData\Local\Arm\Packs\ARM\CMSIS\5.8.0\Device\Include -D__EVAL -D__UVISION_VERSION=536 -DARMCM0 --omf_browse=.\objects\gpio.crf ..\..\gpio.c
    
    uart.o
    
    Component: ARM Compiler 5.06 update 7 (build 960) Tool: ArmCC [4d365d]
    ArmCC --c99 --execute_only --debug -c -o.\objects\uart.o --depend=.\objects\uart.d --cpu=Cortex-M0 --apcs=interwork -O0 --diag_suppress=9931 -I../../ -IC:\Users\6RF4001\AppData\Local\Arm\Packs\ARM\CMSIS\5.8.0\Device\ARM\ARMCM0\Include -IC:\Users\6RF4001\AppData\Local\Arm\Packs\ARM\CMSIS\5.8.0\Device\Include -D__EVAL -D__UVISION_VERSION=536 -DARMCM0 --omf_browse=.\objects\uart.crf ..\..\uart.c
    
    rftimer.o
    
    Component: ARM Compiler 5.06 update 7 (build 960) Tool: ArmCC [4d365d]
    ArmCC --c99 --execute_only --debug -c -o.\objects\rftimer.o --depend=.\objects\rftimer.d --cpu=Cortex-M0 --apcs=interwork -O0 --diag_suppress=9931 -I../../ -IC:\Users\6RF4001\AppData\Local\Arm\Packs\ARM\CMSIS\5.8.0\Device\ARM\ARMCM0\Include -IC:\Users\6RF4001\AppData\Local\Arm\Packs\ARM\CMSIS\5.8.0\Device\Include -D__EVAL -D__UVISION_VERSION=536 -DARMCM0 --omf_browse=.\objects\rftimer.crf ..\..\rftimer.c
    
    scm3c_hw_interface.o
    
    Component: ARM Compiler 5.06 update 7 (build 960) Tool: ArmCC [4d365d]
    ArmCC --c99 --execute_only --debug -c -o.\objects\scm3c_hw_interface.o --depend=.\objects\scm3c_hw_interface.d --cpu=Cortex-M0 --apcs=interwork -O0 --diag_suppress=9931 -I../../ -IC:\Users\6RF4001\AppData\Local\Arm\Packs\ARM\CMSIS\5.8.0\Device\ARM\ARMCM0\Include -IC:\Users\6RF4001\AppData\Local\Arm\Packs\ARM\CMSIS\5.8.0\Device\Include -D__EVAL -D__UVISION_VERSION=536 -DARMCM0 --omf_browse=.\objects\scm3c_hw_interface.crf ..\..\scm3c_hw_interface.c
    
    tuning.o
    
    Component: ARM Compiler 5.06 update 7 (build 960) Tool: ArmCC [4d365d]
    ArmCC --c99 --execute_only --debug -c -o.\objects\tuning.o --depend=.\objects\tuning.d --cpu=Cortex-M0 --apcs=interwork -O0 --diag_suppress=9931 -I../../ -IC:\Users\6RF4001\AppData\Local\Arm\Packs\ARM\CMSIS\5.8.0\Device\ARM\ARMCM0\Include -IC:\Users\6RF4001\AppData\Local\Arm\Packs\ARM\CMSIS\5.8.0\Device\Include -D__EVAL -D__UVISION_VERSION=536 -DARMCM0 --omf_browse=.\objects\tuning.crf ..\..\tuning.c
    
    
    
    

====================================

** Section #15

    Name        : .shstrtab
    Type        : SHT_STRTAB (0x00000003)
    Flags       : None (0x00000000)
    Addr        : 0x00000000
    File Offset : 123700 (0x1e334)
    Size        : 156 bytes (0x9c)
    Link        : SHN_UNDEF
    Info        : 0
    Alignment   : 1
    Entry Size  : 0


====================================

